
prac12.elf:     file format elf32-avr

Sections:
Idx Name          Size      VMA       LMA       File off  Algn
  0 .data         00000122  00800200  0000279a  0000280e  2**0
                  CONTENTS, ALLOC, LOAD, DATA
  1 .text         0000279a  00000000  00000000  00000074  2**1
                  CONTENTS, ALLOC, LOAD, READONLY, CODE
  2 .bss          00000093  00800322  000028bc  00002930  2**0
                  ALLOC
  3 .stab         0000042c  00000000  00000000  00002930  2**2
                  CONTENTS, READONLY, DEBUGGING
  4 .stabstr      0000005f  00000000  00000000  00002d5c  2**0
                  CONTENTS, READONLY, DEBUGGING
  5 .debug_aranges 00000080  00000000  00000000  00002dbb  2**0
                  CONTENTS, READONLY, DEBUGGING
  6 .debug_pubnames 0000020d  00000000  00000000  00002e3b  2**0
                  CONTENTS, READONLY, DEBUGGING
  7 .debug_info   00000956  00000000  00000000  00003048  2**0
                  CONTENTS, READONLY, DEBUGGING
  8 .debug_abbrev 00000494  00000000  00000000  0000399e  2**0
                  CONTENTS, READONLY, DEBUGGING
  9 .debug_line   00000907  00000000  00000000  00003e32  2**0
                  CONTENTS, READONLY, DEBUGGING
 10 .debug_frame  000001f0  00000000  00000000  0000473c  2**2
                  CONTENTS, READONLY, DEBUGGING
 11 .debug_str    000002ee  00000000  00000000  0000492c  2**0
                  CONTENTS, READONLY, DEBUGGING
 12 .debug_loc    000004ce  00000000  00000000  00004c1a  2**0
                  CONTENTS, READONLY, DEBUGGING
Disassembly of section .text:

00000000 <__vectors>:
       0:	0c 94 72 00 	jmp	0xe4	; 0xe4 <__ctors_end>
       4:	0c 94 93 00 	jmp	0x126	; 0x126 <__bad_interrupt>
       8:	0c 94 93 00 	jmp	0x126	; 0x126 <__bad_interrupt>
       c:	0c 94 93 00 	jmp	0x126	; 0x126 <__bad_interrupt>
      10:	0c 94 93 00 	jmp	0x126	; 0x126 <__bad_interrupt>
      14:	0c 94 93 00 	jmp	0x126	; 0x126 <__bad_interrupt>
      18:	0c 94 93 00 	jmp	0x126	; 0x126 <__bad_interrupt>
      1c:	0c 94 93 00 	jmp	0x126	; 0x126 <__bad_interrupt>
      20:	0c 94 93 00 	jmp	0x126	; 0x126 <__bad_interrupt>
      24:	0c 94 93 00 	jmp	0x126	; 0x126 <__bad_interrupt>
      28:	0c 94 93 00 	jmp	0x126	; 0x126 <__bad_interrupt>
      2c:	0c 94 93 00 	jmp	0x126	; 0x126 <__bad_interrupt>
      30:	0c 94 93 00 	jmp	0x126	; 0x126 <__bad_interrupt>
      34:	0c 94 93 00 	jmp	0x126	; 0x126 <__bad_interrupt>
      38:	0c 94 93 00 	jmp	0x126	; 0x126 <__bad_interrupt>
      3c:	0c 94 93 00 	jmp	0x126	; 0x126 <__bad_interrupt>
      40:	0c 94 93 00 	jmp	0x126	; 0x126 <__bad_interrupt>
      44:	0c 94 93 00 	jmp	0x126	; 0x126 <__bad_interrupt>
      48:	0c 94 93 00 	jmp	0x126	; 0x126 <__bad_interrupt>
      4c:	0c 94 93 00 	jmp	0x126	; 0x126 <__bad_interrupt>
      50:	0c 94 93 00 	jmp	0x126	; 0x126 <__bad_interrupt>
      54:	0c 94 ab 02 	jmp	0x556	; 0x556 <__vector_21>
      58:	0c 94 93 00 	jmp	0x126	; 0x126 <__bad_interrupt>
      5c:	0c 94 93 00 	jmp	0x126	; 0x126 <__bad_interrupt>
      60:	0c 94 93 00 	jmp	0x126	; 0x126 <__bad_interrupt>
      64:	0c 94 b3 03 	jmp	0x766	; 0x766 <__vector_25>
      68:	0c 94 85 03 	jmp	0x70a	; 0x70a <__vector_26>
      6c:	0c 94 93 00 	jmp	0x126	; 0x126 <__bad_interrupt>
      70:	0c 94 93 00 	jmp	0x126	; 0x126 <__bad_interrupt>
      74:	0c 94 93 00 	jmp	0x126	; 0x126 <__bad_interrupt>
      78:	0c 94 93 00 	jmp	0x126	; 0x126 <__bad_interrupt>
      7c:	0c 94 93 00 	jmp	0x126	; 0x126 <__bad_interrupt>
      80:	0c 94 93 00 	jmp	0x126	; 0x126 <__bad_interrupt>
      84:	0c 94 93 00 	jmp	0x126	; 0x126 <__bad_interrupt>
      88:	0c 94 93 00 	jmp	0x126	; 0x126 <__bad_interrupt>
      8c:	0c 94 93 00 	jmp	0x126	; 0x126 <__bad_interrupt>
      90:	0c 94 93 00 	jmp	0x126	; 0x126 <__bad_interrupt>
      94:	0c 94 93 00 	jmp	0x126	; 0x126 <__bad_interrupt>
      98:	0c 94 93 00 	jmp	0x126	; 0x126 <__bad_interrupt>
      9c:	0c 94 93 00 	jmp	0x126	; 0x126 <__bad_interrupt>
      a0:	0c 94 93 00 	jmp	0x126	; 0x126 <__bad_interrupt>
      a4:	0c 94 93 00 	jmp	0x126	; 0x126 <__bad_interrupt>
      a8:	0c 94 93 00 	jmp	0x126	; 0x126 <__bad_interrupt>
      ac:	0c 94 93 00 	jmp	0x126	; 0x126 <__bad_interrupt>
      b0:	0c 94 93 00 	jmp	0x126	; 0x126 <__bad_interrupt>
      b4:	0c 94 93 00 	jmp	0x126	; 0x126 <__bad_interrupt>
      b8:	0c 94 93 00 	jmp	0x126	; 0x126 <__bad_interrupt>
      bc:	0c 94 93 00 	jmp	0x126	; 0x126 <__bad_interrupt>
      c0:	0c 94 93 00 	jmp	0x126	; 0x126 <__bad_interrupt>
      c4:	0c 94 93 00 	jmp	0x126	; 0x126 <__bad_interrupt>
      c8:	0c 94 93 00 	jmp	0x126	; 0x126 <__bad_interrupt>
      cc:	0c 94 93 00 	jmp	0x126	; 0x126 <__bad_interrupt>
      d0:	0c 94 93 00 	jmp	0x126	; 0x126 <__bad_interrupt>
      d4:	0c 94 93 00 	jmp	0x126	; 0x126 <__bad_interrupt>
      d8:	0c 94 93 00 	jmp	0x126	; 0x126 <__bad_interrupt>
      dc:	0c 94 93 00 	jmp	0x126	; 0x126 <__bad_interrupt>
      e0:	0c 94 93 00 	jmp	0x126	; 0x126 <__bad_interrupt>

000000e4 <__ctors_end>:
      e4:	11 24       	eor	r1, r1
      e6:	1f be       	out	0x3f, r1	; 63
      e8:	cf ef       	ldi	r28, 0xFF	; 255
      ea:	d1 e2       	ldi	r29, 0x21	; 33
      ec:	de bf       	out	0x3e, r29	; 62
      ee:	cd bf       	out	0x3d, r28	; 61
      f0:	00 e0       	ldi	r16, 0x00	; 0
      f2:	0c bf       	out	0x3c, r16	; 60

000000f4 <__do_copy_data>:
      f4:	13 e0       	ldi	r17, 0x03	; 3
      f6:	a0 e0       	ldi	r26, 0x00	; 0
      f8:	b2 e0       	ldi	r27, 0x02	; 2
      fa:	ea e9       	ldi	r30, 0x9A	; 154
      fc:	f7 e2       	ldi	r31, 0x27	; 39
      fe:	00 e0       	ldi	r16, 0x00	; 0
     100:	0b bf       	out	0x3b, r16	; 59
     102:	02 c0       	rjmp	.+4      	; 0x108 <__do_copy_data+0x14>
     104:	07 90       	elpm	r0, Z+
     106:	0d 92       	st	X+, r0
     108:	a2 32       	cpi	r26, 0x22	; 34
     10a:	b1 07       	cpc	r27, r17
     10c:	d9 f7       	brne	.-10     	; 0x104 <__do_copy_data+0x10>

0000010e <__do_clear_bss>:
     10e:	13 e0       	ldi	r17, 0x03	; 3
     110:	a2 e2       	ldi	r26, 0x22	; 34
     112:	b3 e0       	ldi	r27, 0x03	; 3
     114:	01 c0       	rjmp	.+2      	; 0x118 <.do_clear_bss_start>

00000116 <.do_clear_bss_loop>:
     116:	1d 92       	st	X+, r1

00000118 <.do_clear_bss_start>:
     118:	a5 3b       	cpi	r26, 0xB5	; 181
     11a:	b1 07       	cpc	r27, r17
     11c:	e1 f7       	brne	.-8      	; 0x116 <.do_clear_bss_loop>
     11e:	0e 94 95 00 	call	0x12a	; 0x12a <main>
     122:	0c 94 cc 13 	jmp	0x2798	; 0x2798 <_exit>

00000126 <__bad_interrupt>:
     126:	0c 94 00 00 	jmp	0	; 0x0 <__heap_end>

0000012a <main>:
     12a:	2f 92       	push	r2
     12c:	3f 92       	push	r3
     12e:	4f 92       	push	r4
     130:	5f 92       	push	r5
     132:	6f 92       	push	r6
     134:	7f 92       	push	r7
     136:	8f 92       	push	r8
     138:	9f 92       	push	r9
     13a:	af 92       	push	r10
     13c:	bf 92       	push	r11
     13e:	cf 92       	push	r12
     140:	df 92       	push	r13
     142:	ef 92       	push	r14
     144:	ff 92       	push	r15
     146:	0f 93       	push	r16
     148:	1f 93       	push	r17
     14a:	cf 93       	push	r28
     14c:	df 93       	push	r29
     14e:	cd b7       	in	r28, 0x3d	; 61
     150:	de b7       	in	r29, 0x3e	; 62
     152:	60 97       	sbiw	r28, 0x10	; 16
     154:	0f b6       	in	r0, 0x3f	; 63
     156:	f8 94       	cli
     158:	de bf       	out	0x3e, r29	; 62
     15a:	0f be       	out	0x3f, r0	; 63
     15c:	cd bf       	out	0x3d, r28	; 61
     15e:	78 94       	sei
     160:	02 e0       	ldi	r16, 0x02	; 2
     162:	21 e0       	ldi	r18, 0x01	; 1
     164:	48 e0       	ldi	r20, 0x08	; 8
     166:	69 e3       	ldi	r22, 0x39	; 57
     168:	70 e3       	ldi	r23, 0x30	; 48
     16a:	80 e0       	ldi	r24, 0x00	; 0
     16c:	0e 94 0a 05 	call	0xa14	; 0xa14 <UART_init>
     170:	80 b3       	in	r24, 0x10	; 16
     172:	80 63       	ori	r24, 0x30	; 48
     174:	80 bb       	out	0x10, r24	; 16
     176:	0e 94 63 01 	call	0x2c6	; 0x2c6 <ADC_Init>
     17a:	aa 24       	eor	r10, r10
     17c:	bb 24       	eor	r11, r11
     17e:	65 01       	movw	r12, r10
     180:	2e 01       	movw	r4, r28
     182:	08 94       	sec
     184:	41 1c       	adc	r4, r1
     186:	51 1c       	adc	r5, r1
     188:	97 e0       	ldi	r25, 0x07	; 7
     18a:	29 2e       	mov	r2, r25
     18c:	92 e0       	ldi	r25, 0x02	; 2
     18e:	39 2e       	mov	r3, r25
     190:	84 e0       	ldi	r24, 0x04	; 4
     192:	0e 94 8c 01 	call	0x318	; 0x318 <ADC_Read>
     196:	88 5e       	subi	r24, 0xE8	; 232
     198:	93 40       	sbci	r25, 0x03	; 3
     19a:	d0 f7       	brcc	.-12     	; 0x190 <main+0x66>
     19c:	0e 94 b1 01 	call	0x362	; 0x362 <PrintAdc>
     1a0:	60 e0       	ldi	r22, 0x00	; 0
     1a2:	72 e0       	ldi	r23, 0x02	; 2
     1a4:	80 e0       	ldi	r24, 0x00	; 0
     1a6:	0e 94 27 04 	call	0x84e	; 0x84e <UART_puts>
     1aa:	0e 94 5d 02 	call	0x4ba	; 0x4ba <millis>
     1ae:	29 87       	std	Y+9, r18	; 0x09
     1b0:	3a 87       	std	Y+10, r19	; 0x0a
     1b2:	4b 87       	std	Y+11, r20	; 0x0b
     1b4:	5c 87       	std	Y+12, r21	; 0x0c
     1b6:	6d 87       	std	Y+13, r22	; 0x0d
     1b8:	7e 87       	std	Y+14, r23	; 0x0e
     1ba:	8f 87       	std	Y+15, r24	; 0x0f
     1bc:	98 8b       	std	Y+16, r25	; 0x10
     1be:	a6 01       	movw	r20, r12
     1c0:	95 01       	movw	r18, r10
     1c2:	60 e0       	ldi	r22, 0x00	; 0
     1c4:	70 e0       	ldi	r23, 0x00	; 0
     1c6:	80 e0       	ldi	r24, 0x00	; 0
     1c8:	90 e0       	ldi	r25, 0x00	; 0
     1ca:	69 84       	ldd	r6, Y+9	; 0x09
     1cc:	6a 18       	sub	r6, r10
     1ce:	e1 e0       	ldi	r30, 0x01	; 1
     1d0:	f9 85       	ldd	r31, Y+9	; 0x09
     1d2:	f6 15       	cp	r31, r6
     1d4:	08 f0       	brcs	.+2      	; 0x1d8 <main+0xae>
     1d6:	e0 e0       	ldi	r30, 0x00	; 0
     1d8:	7a 84       	ldd	r7, Y+10	; 0x0a
     1da:	73 1a       	sub	r7, r19
     1dc:	a1 e0       	ldi	r26, 0x01	; 1
     1de:	fa 85       	ldd	r31, Y+10	; 0x0a
     1e0:	f7 15       	cp	r31, r7
     1e2:	08 f0       	brcs	.+2      	; 0x1e6 <main+0xbc>
     1e4:	a0 e0       	ldi	r26, 0x00	; 0
     1e6:	f7 2d       	mov	r31, r7
     1e8:	fe 1b       	sub	r31, r30
     1ea:	ef 2f       	mov	r30, r31
     1ec:	f1 e0       	ldi	r31, 0x01	; 1
     1ee:	7e 16       	cp	r7, r30
     1f0:	08 f0       	brcs	.+2      	; 0x1f4 <main+0xca>
     1f2:	f0 e0       	ldi	r31, 0x00	; 0
     1f4:	af 2b       	or	r26, r31
     1f6:	7e 2e       	mov	r7, r30
     1f8:	8b 84       	ldd	r8, Y+11	; 0x0b
     1fa:	84 1a       	sub	r8, r20
     1fc:	b1 e0       	ldi	r27, 0x01	; 1
     1fe:	eb 85       	ldd	r30, Y+11	; 0x0b
     200:	e8 15       	cp	r30, r8
     202:	08 f0       	brcs	.+2      	; 0x206 <main+0xdc>
     204:	b0 e0       	ldi	r27, 0x00	; 0
     206:	e8 2d       	mov	r30, r8
     208:	ea 1b       	sub	r30, r26
     20a:	f1 e0       	ldi	r31, 0x01	; 1
     20c:	8e 16       	cp	r8, r30
     20e:	08 f0       	brcs	.+2      	; 0x212 <main+0xe8>
     210:	f0 e0       	ldi	r31, 0x00	; 0
     212:	bf 2b       	or	r27, r31
     214:	8e 2e       	mov	r8, r30
     216:	9c 84       	ldd	r9, Y+12	; 0x0c
     218:	95 1a       	sub	r9, r21
     21a:	f1 e0       	ldi	r31, 0x01	; 1
     21c:	ec 85       	ldd	r30, Y+12	; 0x0c
     21e:	e9 15       	cp	r30, r9
     220:	08 f0       	brcs	.+2      	; 0x224 <main+0xfa>
     222:	f0 e0       	ldi	r31, 0x00	; 0
     224:	e9 2d       	mov	r30, r9
     226:	eb 1b       	sub	r30, r27
     228:	a1 e0       	ldi	r26, 0x01	; 1
     22a:	9e 16       	cp	r9, r30
     22c:	08 f0       	brcs	.+2      	; 0x230 <main+0x106>
     22e:	a0 e0       	ldi	r26, 0x00	; 0
     230:	fa 2b       	or	r31, r26
     232:	9e 2e       	mov	r9, r30
     234:	ad 84       	ldd	r10, Y+13	; 0x0d
     236:	ea 2d       	mov	r30, r10
     238:	ef 1b       	sub	r30, r31
     23a:	f1 e0       	ldi	r31, 0x01	; 1
     23c:	ae 16       	cp	r10, r30
     23e:	08 f0       	brcs	.+2      	; 0x242 <main+0x118>
     240:	f0 e0       	ldi	r31, 0x00	; 0
     242:	ae 2e       	mov	r10, r30
     244:	be 84       	ldd	r11, Y+14	; 0x0e
     246:	eb 2d       	mov	r30, r11
     248:	ef 1b       	sub	r30, r31
     24a:	a1 e0       	ldi	r26, 0x01	; 1
     24c:	be 16       	cp	r11, r30
     24e:	08 f0       	brcs	.+2      	; 0x252 <main+0x128>
     250:	a0 e0       	ldi	r26, 0x00	; 0
     252:	be 2e       	mov	r11, r30
     254:	cf 84       	ldd	r12, Y+15	; 0x0f
     256:	f0 e0       	ldi	r31, 0x00	; 0
     258:	ec 2d       	mov	r30, r12
     25a:	ea 1b       	sub	r30, r26
     25c:	a1 e0       	ldi	r26, 0x01	; 1
     25e:	ce 16       	cp	r12, r30
     260:	08 f0       	brcs	.+2      	; 0x264 <main+0x13a>
     262:	a0 e0       	ldi	r26, 0x00	; 0
     264:	fa 2b       	or	r31, r26
     266:	d8 88       	ldd	r13, Y+16	; 0x10
     268:	d9 1a       	sub	r13, r25
     26a:	7d 2d       	mov	r23, r13
     26c:	7f 1b       	sub	r23, r31
     26e:	8a e0       	ldi	r24, 0x0A	; 10
     270:	e8 2e       	mov	r14, r24
     272:	06 2d       	mov	r16, r6
     274:	17 2d       	mov	r17, r7
     276:	28 2d       	mov	r18, r8
     278:	39 2d       	mov	r19, r9
     27a:	4a 2d       	mov	r20, r10
     27c:	5b 2d       	mov	r21, r11
     27e:	6e 2f       	mov	r22, r30
     280:	c2 01       	movw	r24, r4
     282:	0e 94 92 05 	call	0xb24	; 0xb24 <itoa>
     286:	b2 01       	movw	r22, r4
     288:	80 e0       	ldi	r24, 0x00	; 0
     28a:	0e 94 27 04 	call	0x84e	; 0x84e <UART_puts>
     28e:	65 e0       	ldi	r22, 0x05	; 5
     290:	72 e0       	ldi	r23, 0x02	; 2
     292:	80 e0       	ldi	r24, 0x00	; 0
     294:	0e 94 27 04 	call	0x84e	; 0x84e <UART_puts>
     298:	85 9a       	sbi	0x10, 5	; 16
     29a:	0e 94 fd 01 	call	0x3fa	; 0x3fa <blink>
     29e:	8c 98       	cbi	0x11, 4	; 17
     2a0:	8d 9a       	sbi	0x11, 5	; 17
     2a2:	81 e0       	ldi	r24, 0x01	; 1
     2a4:	0e 94 a6 01 	call	0x34c	; 0x34c <delay>
     2a8:	85 98       	cbi	0x10, 5	; 16
     2aa:	8d 98       	cbi	0x11, 5	; 17
     2ac:	0e 94 5d 02 	call	0x4ba	; 0x4ba <millis>
     2b0:	a2 2e       	mov	r10, r18
     2b2:	b3 2e       	mov	r11, r19
     2b4:	c4 2e       	mov	r12, r20
     2b6:	d5 2e       	mov	r13, r21
     2b8:	0e 94 b1 01 	call	0x362	; 0x362 <PrintAdc>
     2bc:	b1 01       	movw	r22, r2
     2be:	80 e0       	ldi	r24, 0x00	; 0
     2c0:	0e 94 27 04 	call	0x84e	; 0x84e <UART_puts>
     2c4:	65 cf       	rjmp	.-310    	; 0x190 <main+0x66>

000002c6 <ADC_Init>:
     2c6:	81 e4       	ldi	r24, 0x41	; 65
     2c8:	80 93 7c 00 	sts	0x007C, r24
     2cc:	87 e8       	ldi	r24, 0x87	; 135
     2ce:	80 93 7a 00 	sts	0x007A, r24
     2d2:	80 91 7a 00 	lds	r24, 0x007A
     2d6:	80 64       	ori	r24, 0x40	; 64
     2d8:	80 93 7a 00 	sts	0x007A, r24
     2dc:	80 91 7a 00 	lds	r24, 0x007A
     2e0:	82 95       	swap	r24
     2e2:	86 95       	lsr	r24
     2e4:	86 95       	lsr	r24
     2e6:	83 70       	andi	r24, 0x03	; 3
     2e8:	80 fd       	sbrc	r24, 0
     2ea:	f8 cf       	rjmp	.-16     	; 0x2dc <ADC_Init+0x16>
     2ec:	80 91 7a 00 	lds	r24, 0x007A
     2f0:	80 64       	ori	r24, 0x40	; 64
     2f2:	80 93 7a 00 	sts	0x007A, r24
     2f6:	80 91 7a 00 	lds	r24, 0x007A
     2fa:	82 95       	swap	r24
     2fc:	86 95       	lsr	r24
     2fe:	86 95       	lsr	r24
     300:	83 70       	andi	r24, 0x03	; 3
     302:	80 fd       	sbrc	r24, 0
     304:	f8 cf       	rjmp	.-16     	; 0x2f6 <ADC_Init+0x30>
     306:	80 91 78 00 	lds	r24, 0x0078
     30a:	90 91 79 00 	lds	r25, 0x0079
     30e:	90 93 23 03 	sts	0x0323, r25
     312:	80 93 22 03 	sts	0x0322, r24
     316:	08 95       	ret

00000318 <ADC_Read>:
     318:	90 91 7b 00 	lds	r25, 0x007B
     31c:	98 2b       	or	r25, r24
     31e:	90 93 7b 00 	sts	0x007B, r25
     322:	80 91 7a 00 	lds	r24, 0x007A
     326:	80 64       	ori	r24, 0x40	; 64
     328:	80 93 7a 00 	sts	0x007A, r24
     32c:	80 91 7a 00 	lds	r24, 0x007A
     330:	82 95       	swap	r24
     332:	86 95       	lsr	r24
     334:	86 95       	lsr	r24
     336:	83 70       	andi	r24, 0x03	; 3
     338:	80 fd       	sbrc	r24, 0
     33a:	f8 cf       	rjmp	.-16     	; 0x32c <ADC_Read+0x14>
     33c:	80 91 78 00 	lds	r24, 0x0078
     340:	90 91 79 00 	lds	r25, 0x0079
     344:	08 95       	ret

00000346 <init_port>:
     346:	10 ba       	out	0x10, r1	; 16
     348:	11 ba       	out	0x11, r1	; 17
     34a:	08 95       	ret

0000034c <delay>:
     34c:	20 ea       	ldi	r18, 0xA0	; 160
     34e:	3f e0       	ldi	r19, 0x0F	; 15
     350:	40 e0       	ldi	r20, 0x00	; 0
     352:	50 e0       	ldi	r21, 0x00	; 0

00000354 <L_dl195>:
     354:	e2 2f       	mov	r30, r18
     356:	f3 2f       	mov	r31, r19

00000358 <L_dl295>:
     358:	31 97       	sbiw	r30, 0x01	; 1
     35a:	f1 f7       	brne	.-4      	; 0x358 <L_dl295>
     35c:	8a 95       	dec	r24
     35e:	d1 f7       	brne	.-12     	; 0x354 <L_dl195>
     360:	08 95       	ret

00000362 <PrintAdc>:
     362:	cf 92       	push	r12
     364:	df 92       	push	r13
     366:	ef 92       	push	r14
     368:	ff 92       	push	r15
     36a:	0f 93       	push	r16
     36c:	1f 93       	push	r17
     36e:	cf 93       	push	r28
     370:	df 93       	push	r29
     372:	cd b7       	in	r28, 0x3d	; 61
     374:	de b7       	in	r29, 0x3e	; 62
     376:	25 97       	sbiw	r28, 0x05	; 5
     378:	0f b6       	in	r0, 0x3f	; 63
     37a:	f8 94       	cli
     37c:	de bf       	out	0x3e, r29	; 62
     37e:	0f be       	out	0x3f, r0	; 63
     380:	cd bf       	out	0x3d, r28	; 61
     382:	84 e0       	ldi	r24, 0x04	; 4
     384:	0e 94 8c 01 	call	0x318	; 0x318 <ADC_Read>
     388:	7c 01       	movw	r14, r24
     38a:	69 e1       	ldi	r22, 0x19	; 25
     38c:	70 e0       	ldi	r23, 0x00	; 0
     38e:	0e 94 25 13 	call	0x264a	; 0x264a <__udivmodhi4>
     392:	6b 01       	movw	r12, r22
     394:	00 e0       	ldi	r16, 0x00	; 0
     396:	10 e0       	ldi	r17, 0x00	; 0
     398:	04 c0       	rjmp	.+8      	; 0x3a2 <PrintAdc+0x40>
     39a:	6e e2       	ldi	r22, 0x2E	; 46
     39c:	80 e0       	ldi	r24, 0x00	; 0
     39e:	0e 94 fa 03 	call	0x7f4	; 0x7f4 <UART_putchar>
     3a2:	80 2f       	mov	r24, r16
     3a4:	90 e0       	ldi	r25, 0x00	; 0
     3a6:	0f 5f       	subi	r16, 0xFF	; 255
     3a8:	1f 4f       	sbci	r17, 0xFF	; 255
     3aa:	8c 15       	cp	r24, r12
     3ac:	9d 05       	cpc	r25, r13
     3ae:	a8 f3       	brcs	.-22     	; 0x39a <PrintAdc+0x38>
     3b0:	97 01       	movw	r18, r14
     3b2:	8a e0       	ldi	r24, 0x0A	; 10
     3b4:	e8 2e       	mov	r14, r24
     3b6:	02 2f       	mov	r16, r18
     3b8:	13 2f       	mov	r17, r19
     3ba:	20 e0       	ldi	r18, 0x00	; 0
     3bc:	30 e0       	ldi	r19, 0x00	; 0
     3be:	40 e0       	ldi	r20, 0x00	; 0
     3c0:	50 e0       	ldi	r21, 0x00	; 0
     3c2:	60 e0       	ldi	r22, 0x00	; 0
     3c4:	70 e0       	ldi	r23, 0x00	; 0
     3c6:	6e 01       	movw	r12, r28
     3c8:	08 94       	sec
     3ca:	c1 1c       	adc	r12, r1
     3cc:	d1 1c       	adc	r13, r1
     3ce:	c6 01       	movw	r24, r12
     3d0:	0e 94 92 05 	call	0xb24	; 0xb24 <itoa>
     3d4:	b6 01       	movw	r22, r12
     3d6:	80 e0       	ldi	r24, 0x00	; 0
     3d8:	0e 94 27 04 	call	0x84e	; 0x84e <UART_puts>
     3dc:	25 96       	adiw	r28, 0x05	; 5
     3de:	0f b6       	in	r0, 0x3f	; 63
     3e0:	f8 94       	cli
     3e2:	de bf       	out	0x3e, r29	; 62
     3e4:	0f be       	out	0x3f, r0	; 63
     3e6:	cd bf       	out	0x3d, r28	; 61
     3e8:	df 91       	pop	r29
     3ea:	cf 91       	pop	r28
     3ec:	1f 91       	pop	r17
     3ee:	0f 91       	pop	r16
     3f0:	ff 90       	pop	r15
     3f2:	ef 90       	pop	r14
     3f4:	df 90       	pop	r13
     3f6:	cf 90       	pop	r12
     3f8:	08 95       	ret

000003fa <blink>:
     3fa:	8c 9a       	sbi	0x11, 4	; 17
     3fc:	8d 98       	cbi	0x11, 5	; 17
     3fe:	21 e0       	ldi	r18, 0x01	; 1
     400:	80 ea       	ldi	r24, 0xA0	; 160
     402:	9f e0       	ldi	r25, 0x0F	; 15
     404:	a0 e0       	ldi	r26, 0x00	; 0
     406:	b0 e0       	ldi	r27, 0x00	; 0

00000408 <L_dl1172>:
     408:	e8 2f       	mov	r30, r24
     40a:	f9 2f       	mov	r31, r25

0000040c <L_dl2172>:
     40c:	31 97       	sbiw	r30, 0x01	; 1
     40e:	f1 f7       	brne	.-4      	; 0x40c <L_dl2172>
     410:	2a 95       	dec	r18
     412:	d1 f7       	brne	.-12     	; 0x408 <L_dl1172>
     414:	8c 98       	cbi	0x11, 4	; 17
     416:	23 e6       	ldi	r18, 0x63	; 99

00000418 <L_dl1184>:
     418:	e8 2f       	mov	r30, r24
     41a:	f9 2f       	mov	r31, r25

0000041c <L_dl2184>:
     41c:	31 97       	sbiw	r30, 0x01	; 1
     41e:	f1 f7       	brne	.-4      	; 0x41c <L_dl2184>
     420:	2a 95       	dec	r18
     422:	d1 f7       	brne	.-12     	; 0x418 <L_dl1184>
     424:	08 95       	ret

00000426 <measureDischargeTime>:
     426:	af 92       	push	r10
     428:	bf 92       	push	r11
     42a:	cf 92       	push	r12
     42c:	df 92       	push	r13
     42e:	ef 92       	push	r14
     430:	ff 92       	push	r15
     432:	0f 93       	push	r16
     434:	1f 93       	push	r17
     436:	10 ba       	out	0x10, r1	; 16
     438:	11 ba       	out	0x11, r1	; 17
     43a:	80 b3       	in	r24, 0x10	; 16
     43c:	80 63       	ori	r24, 0x30	; 48
     43e:	80 bb       	out	0x10, r24	; 16
     440:	8c 9a       	sbi	0x11, 4	; 17
     442:	24 e6       	ldi	r18, 0x64	; 100
     444:	80 ea       	ldi	r24, 0xA0	; 160
     446:	9f e0       	ldi	r25, 0x0F	; 15
     448:	a0 e0       	ldi	r26, 0x00	; 0
     44a:	b0 e0       	ldi	r27, 0x00	; 0

0000044c <L_dl1214>:
     44c:	e8 2f       	mov	r30, r24
     44e:	f9 2f       	mov	r31, r25

00000450 <L_dl2214>:
     450:	31 97       	sbiw	r30, 0x01	; 1
     452:	f1 f7       	brne	.-4      	; 0x450 <L_dl2214>
     454:	2a 95       	dec	r18
     456:	d1 f7       	brne	.-12     	; 0x44c <L_dl1214>
     458:	0e 94 40 02 	call	0x480	; 0x480 <Timer0_Init>
     45c:	84 e0       	ldi	r24, 0x04	; 4
     45e:	0e 94 8c 01 	call	0x318	; 0x318 <ADC_Read>
     462:	0e 94 5d 02 	call	0x4ba	; 0x4ba <millis>
     466:	a2 2e       	mov	r10, r18
     468:	b3 2e       	mov	r11, r19
     46a:	10 ba       	out	0x10, r1	; 16
     46c:	c5 01       	movw	r24, r10
     46e:	1f 91       	pop	r17
     470:	0f 91       	pop	r16
     472:	ff 90       	pop	r15
     474:	ef 90       	pop	r14
     476:	df 90       	pop	r13
     478:	cf 90       	pop	r12
     47a:	bf 90       	pop	r11
     47c:	af 90       	pop	r10
     47e:	08 95       	ret

00000480 <Timer0_Init>:
     480:	27 9a       	sbi	0x04, 7	; 4
     482:	16 bc       	out	0x26, r1	; 38
     484:	89 ef       	ldi	r24, 0xF9	; 249
     486:	87 bd       	out	0x27, r24	; 39
     488:	84 b5       	in	r24, 0x24	; 36
     48a:	82 60       	ori	r24, 0x02	; 2
     48c:	84 bd       	out	0x24, r24	; 36
     48e:	85 b5       	in	r24, 0x25	; 37
     490:	83 60       	ori	r24, 0x03	; 3
     492:	85 bd       	out	0x25, r24	; 37
     494:	ee e6       	ldi	r30, 0x6E	; 110
     496:	f0 e0       	ldi	r31, 0x00	; 0
     498:	80 81       	ld	r24, Z
     49a:	82 60       	ori	r24, 0x02	; 2
     49c:	80 83       	st	Z, r24
     49e:	78 94       	sei
     4a0:	08 95       	ret

000004a2 <Timer0_SecFlag>:
     4a2:	80 91 2e 03 	lds	r24, 0x032E
     4a6:	88 23       	and	r24, r24
     4a8:	19 f4       	brne	.+6      	; 0x4b0 <Timer0_SecFlag+0xe>
     4aa:	80 e0       	ldi	r24, 0x00	; 0
     4ac:	90 e0       	ldi	r25, 0x00	; 0
     4ae:	08 95       	ret
     4b0:	10 92 2e 03 	sts	0x032E, r1
     4b4:	81 e0       	ldi	r24, 0x01	; 1
     4b6:	90 e0       	ldi	r25, 0x00	; 0
     4b8:	08 95       	ret

000004ba <millis>:
     4ba:	2f 92       	push	r2
     4bc:	3f 92       	push	r3
     4be:	4f 92       	push	r4
     4c0:	5f 92       	push	r5
     4c2:	6f 92       	push	r6
     4c4:	7f 92       	push	r7
     4c6:	8f 92       	push	r8
     4c8:	9f 92       	push	r9
     4ca:	af 92       	push	r10
     4cc:	bf 92       	push	r11
     4ce:	cf 92       	push	r12
     4d0:	df 92       	push	r13
     4d2:	ef 92       	push	r14
     4d4:	ff 92       	push	r15
     4d6:	0f 93       	push	r16
     4d8:	1f 93       	push	r17
     4da:	20 90 24 03 	lds	r2, 0x0324
     4de:	30 90 25 03 	lds	r3, 0x0325
     4e2:	40 90 26 03 	lds	r4, 0x0326
     4e6:	50 90 27 03 	lds	r5, 0x0327
     4ea:	60 90 28 03 	lds	r6, 0x0328
     4ee:	70 90 29 03 	lds	r7, 0x0329
     4f2:	80 90 2a 03 	lds	r8, 0x032A
     4f6:	90 90 2b 03 	lds	r9, 0x032B
     4fa:	22 2d       	mov	r18, r2
     4fc:	33 2d       	mov	r19, r3
     4fe:	44 2d       	mov	r20, r4
     500:	55 2d       	mov	r21, r5
     502:	66 2d       	mov	r22, r6
     504:	77 2d       	mov	r23, r7
     506:	88 2d       	mov	r24, r8
     508:	99 2d       	mov	r25, r9
     50a:	1f 91       	pop	r17
     50c:	0f 91       	pop	r16
     50e:	ff 90       	pop	r15
     510:	ef 90       	pop	r14
     512:	df 90       	pop	r13
     514:	cf 90       	pop	r12
     516:	bf 90       	pop	r11
     518:	af 90       	pop	r10
     51a:	9f 90       	pop	r9
     51c:	8f 90       	pop	r8
     51e:	7f 90       	pop	r7
     520:	6f 90       	pop	r6
     522:	5f 90       	pop	r5
     524:	4f 90       	pop	r4
     526:	3f 90       	pop	r3
     528:	2f 90       	pop	r2
     52a:	08 95       	ret

0000052c <UART_AutoBaudRate>:
     52c:	68 98       	cbi	0x0d, 0	; 13
     52e:	70 9a       	sbi	0x0e, 0	; 14
     530:	16 bc       	out	0x26, r1	; 38
     532:	14 bc       	out	0x24, r1	; 36
     534:	15 bc       	out	0x25, r1	; 37
     536:	60 99       	sbic	0x0c, 0	; 12
     538:	fe cf       	rjmp	.-4      	; 0x536 <UART_AutoBaudRate+0xa>
     53a:	82 e0       	ldi	r24, 0x02	; 2
     53c:	85 bd       	out	0x25, r24	; 37
     53e:	60 9b       	sbis	0x0c, 0	; 12
     540:	fe cf       	rjmp	.-4      	; 0x53e <UART_AutoBaudRate+0x12>
     542:	15 bc       	out	0x25, r1	; 37
     544:	86 b5       	in	r24, 0x26	; 38
     546:	86 95       	lsr	r24
     548:	90 e0       	ldi	r25, 0x00	; 0
     54a:	01 97       	sbiw	r24, 0x01	; 1
     54c:	90 93 c5 00 	sts	0x00C5, r25
     550:	80 93 c4 00 	sts	0x00C4, r24
     554:	08 95       	ret

00000556 <__vector_21>:
     556:	1f 92       	push	r1
     558:	0f 92       	push	r0
     55a:	0f b6       	in	r0, 0x3f	; 63
     55c:	0f 92       	push	r0
     55e:	11 24       	eor	r1, r1
     560:	8f 92       	push	r8
     562:	9f 92       	push	r9
     564:	af 92       	push	r10
     566:	bf 92       	push	r11
     568:	cf 92       	push	r12
     56a:	df 92       	push	r13
     56c:	ef 92       	push	r14
     56e:	ff 92       	push	r15
     570:	0f 93       	push	r16
     572:	1f 93       	push	r17
     574:	2f 93       	push	r18
     576:	3f 93       	push	r19
     578:	4f 93       	push	r20
     57a:	5f 93       	push	r21
     57c:	6f 93       	push	r22
     57e:	7f 93       	push	r23
     580:	8f 93       	push	r24
     582:	9f 93       	push	r25
     584:	af 93       	push	r26
     586:	bf 93       	push	r27
     588:	ef 93       	push	r30
     58a:	ff 93       	push	r31
     58c:	cf 93       	push	r28
     58e:	df 93       	push	r29
     590:	cd b7       	in	r28, 0x3d	; 61
     592:	de b7       	in	r29, 0x3e	; 62
     594:	28 97       	sbiw	r28, 0x08	; 8
     596:	de bf       	out	0x3e, r29	; 62
     598:	cd bf       	out	0x3d, r28	; 61
     59a:	00 91 24 03 	lds	r16, 0x0324
     59e:	10 91 25 03 	lds	r17, 0x0325
     5a2:	20 91 26 03 	lds	r18, 0x0326
     5a6:	30 91 27 03 	lds	r19, 0x0327
     5aa:	40 91 28 03 	lds	r20, 0x0328
     5ae:	50 91 29 03 	lds	r21, 0x0329
     5b2:	60 91 2a 03 	lds	r22, 0x032A
     5b6:	70 91 2b 03 	lds	r23, 0x032B
     5ba:	81 e0       	ldi	r24, 0x01	; 1
     5bc:	89 83       	std	Y+1, r24	; 0x01
     5be:	1a 82       	std	Y+2, r1	; 0x02
     5c0:	1b 82       	std	Y+3, r1	; 0x03
     5c2:	1c 82       	std	Y+4, r1	; 0x04
     5c4:	1d 82       	std	Y+5, r1	; 0x05
     5c6:	1e 82       	std	Y+6, r1	; 0x06
     5c8:	1f 82       	std	Y+7, r1	; 0x07
     5ca:	18 86       	std	Y+8, r1	; 0x08
     5cc:	88 24       	eor	r8, r8
     5ce:	83 94       	inc	r8
     5d0:	80 0e       	add	r8, r16
     5d2:	80 16       	cp	r8, r16
     5d4:	08 f0       	brcs	.+2      	; 0x5d8 <__vector_21+0x82>
     5d6:	80 e0       	ldi	r24, 0x00	; 0
     5d8:	9a 80       	ldd	r9, Y+2	; 0x02
     5da:	91 0e       	add	r9, r17
     5dc:	a1 e0       	ldi	r26, 0x01	; 1
     5de:	91 16       	cp	r9, r17
     5e0:	08 f0       	brcs	.+2      	; 0x5e4 <__vector_21+0x8e>
     5e2:	a0 e0       	ldi	r26, 0x00	; 0
     5e4:	89 0d       	add	r24, r9
     5e6:	91 e0       	ldi	r25, 0x01	; 1
     5e8:	89 15       	cp	r24, r9
     5ea:	08 f0       	brcs	.+2      	; 0x5ee <__vector_21+0x98>
     5ec:	90 e0       	ldi	r25, 0x00	; 0
     5ee:	a9 2b       	or	r26, r25
     5f0:	98 2e       	mov	r9, r24
     5f2:	ab 80       	ldd	r10, Y+3	; 0x03
     5f4:	a2 0e       	add	r10, r18
     5f6:	b1 e0       	ldi	r27, 0x01	; 1
     5f8:	a2 16       	cp	r10, r18
     5fa:	08 f0       	brcs	.+2      	; 0x5fe <__vector_21+0xa8>
     5fc:	b0 e0       	ldi	r27, 0x00	; 0
     5fe:	8a 2f       	mov	r24, r26
     600:	8a 0d       	add	r24, r10
     602:	91 e0       	ldi	r25, 0x01	; 1
     604:	8a 15       	cp	r24, r10
     606:	08 f0       	brcs	.+2      	; 0x60a <__vector_21+0xb4>
     608:	90 e0       	ldi	r25, 0x00	; 0
     60a:	b9 2b       	or	r27, r25
     60c:	a8 2e       	mov	r10, r24
     60e:	bc 80       	ldd	r11, Y+4	; 0x04
     610:	b3 0e       	add	r11, r19
     612:	a1 e0       	ldi	r26, 0x01	; 1
     614:	b3 16       	cp	r11, r19
     616:	08 f0       	brcs	.+2      	; 0x61a <__vector_21+0xc4>
     618:	a0 e0       	ldi	r26, 0x00	; 0
     61a:	8b 2f       	mov	r24, r27
     61c:	8b 0d       	add	r24, r11
     61e:	91 e0       	ldi	r25, 0x01	; 1
     620:	8b 15       	cp	r24, r11
     622:	08 f0       	brcs	.+2      	; 0x626 <__vector_21+0xd0>
     624:	90 e0       	ldi	r25, 0x00	; 0
     626:	a9 2b       	or	r26, r25
     628:	b8 2e       	mov	r11, r24
     62a:	cd 80       	ldd	r12, Y+5	; 0x05
     62c:	c4 0e       	add	r12, r20
     62e:	b1 e0       	ldi	r27, 0x01	; 1
     630:	c4 16       	cp	r12, r20
     632:	08 f0       	brcs	.+2      	; 0x636 <__vector_21+0xe0>
     634:	b0 e0       	ldi	r27, 0x00	; 0
     636:	8a 2f       	mov	r24, r26
     638:	8c 0d       	add	r24, r12
     63a:	91 e0       	ldi	r25, 0x01	; 1
     63c:	8c 15       	cp	r24, r12
     63e:	08 f0       	brcs	.+2      	; 0x642 <__vector_21+0xec>
     640:	90 e0       	ldi	r25, 0x00	; 0
     642:	b9 2b       	or	r27, r25
     644:	c8 2e       	mov	r12, r24
     646:	de 80       	ldd	r13, Y+6	; 0x06
     648:	d5 0e       	add	r13, r21
     64a:	a1 e0       	ldi	r26, 0x01	; 1
     64c:	d5 16       	cp	r13, r21
     64e:	08 f0       	brcs	.+2      	; 0x652 <__vector_21+0xfc>
     650:	a0 e0       	ldi	r26, 0x00	; 0
     652:	8b 2f       	mov	r24, r27
     654:	8d 0d       	add	r24, r13
     656:	91 e0       	ldi	r25, 0x01	; 1
     658:	8d 15       	cp	r24, r13
     65a:	08 f0       	brcs	.+2      	; 0x65e <__vector_21+0x108>
     65c:	90 e0       	ldi	r25, 0x00	; 0
     65e:	a9 2b       	or	r26, r25
     660:	d8 2e       	mov	r13, r24
     662:	ef 80       	ldd	r14, Y+7	; 0x07
     664:	e6 0e       	add	r14, r22
     666:	f1 e0       	ldi	r31, 0x01	; 1
     668:	e6 16       	cp	r14, r22
     66a:	08 f0       	brcs	.+2      	; 0x66e <__vector_21+0x118>
     66c:	f0 e0       	ldi	r31, 0x00	; 0
     66e:	9a 2f       	mov	r25, r26
     670:	9e 0d       	add	r25, r14
     672:	81 e0       	ldi	r24, 0x01	; 1
     674:	9e 15       	cp	r25, r14
     676:	08 f0       	brcs	.+2      	; 0x67a <__vector_21+0x124>
     678:	80 e0       	ldi	r24, 0x00	; 0
     67a:	8f 2b       	or	r24, r31
     67c:	f8 84       	ldd	r15, Y+8	; 0x08
     67e:	f7 0e       	add	r15, r23
     680:	8f 0d       	add	r24, r15
     682:	80 92 24 03 	sts	0x0324, r8
     686:	90 92 25 03 	sts	0x0325, r9
     68a:	a0 92 26 03 	sts	0x0326, r10
     68e:	b0 92 27 03 	sts	0x0327, r11
     692:	c0 92 28 03 	sts	0x0328, r12
     696:	d0 92 29 03 	sts	0x0329, r13
     69a:	90 93 2a 03 	sts	0x032A, r25
     69e:	80 93 2b 03 	sts	0x032B, r24
     6a2:	80 91 2c 03 	lds	r24, 0x032C
     6a6:	90 91 2d 03 	lds	r25, 0x032D
     6aa:	01 96       	adiw	r24, 0x01	; 1
     6ac:	90 93 2d 03 	sts	0x032D, r25
     6b0:	80 93 2c 03 	sts	0x032C, r24
     6b4:	88 5e       	subi	r24, 0xE8	; 232
     6b6:	93 40       	sbci	r25, 0x03	; 3
     6b8:	38 f0       	brcs	.+14     	; 0x6c8 <__vector_21+0x172>
     6ba:	81 e0       	ldi	r24, 0x01	; 1
     6bc:	80 93 2e 03 	sts	0x032E, r24
     6c0:	10 92 2d 03 	sts	0x032D, r1
     6c4:	10 92 2c 03 	sts	0x032C, r1
     6c8:	28 96       	adiw	r28, 0x08	; 8
     6ca:	f8 94       	cli
     6cc:	de bf       	out	0x3e, r29	; 62
     6ce:	cd bf       	out	0x3d, r28	; 61
     6d0:	df 91       	pop	r29
     6d2:	cf 91       	pop	r28
     6d4:	ff 91       	pop	r31
     6d6:	ef 91       	pop	r30
     6d8:	bf 91       	pop	r27
     6da:	af 91       	pop	r26
     6dc:	9f 91       	pop	r25
     6de:	8f 91       	pop	r24
     6e0:	7f 91       	pop	r23
     6e2:	6f 91       	pop	r22
     6e4:	5f 91       	pop	r21
     6e6:	4f 91       	pop	r20
     6e8:	3f 91       	pop	r19
     6ea:	2f 91       	pop	r18
     6ec:	1f 91       	pop	r17
     6ee:	0f 91       	pop	r16
     6f0:	ff 90       	pop	r15
     6f2:	ef 90       	pop	r14
     6f4:	df 90       	pop	r13
     6f6:	cf 90       	pop	r12
     6f8:	bf 90       	pop	r11
     6fa:	af 90       	pop	r10
     6fc:	9f 90       	pop	r9
     6fe:	8f 90       	pop	r8
     700:	0f 90       	pop	r0
     702:	0f be       	out	0x3f, r0	; 63
     704:	0f 90       	pop	r0
     706:	1f 90       	pop	r1
     708:	18 95       	reti

0000070a <__vector_26>:
     70a:	1f 92       	push	r1
     70c:	0f 92       	push	r0
     70e:	0f b6       	in	r0, 0x3f	; 63
     710:	0f 92       	push	r0
     712:	11 24       	eor	r1, r1
     714:	8f 93       	push	r24
     716:	9f 93       	push	r25
     718:	ef 93       	push	r30
     71a:	ff 93       	push	r31
     71c:	90 91 71 03 	lds	r25, 0x0371
     720:	80 91 72 03 	lds	r24, 0x0372
     724:	98 17       	cp	r25, r24
     726:	31 f4       	brne	.+12     	; 0x734 <__vector_26+0x2a>
     728:	80 91 c1 00 	lds	r24, 0x00C1
     72c:	8f 7d       	andi	r24, 0xDF	; 223
     72e:	80 93 c1 00 	sts	0x00C1, r24
     732:	10 c0       	rjmp	.+32     	; 0x754 <__vector_26+0x4a>
     734:	80 91 71 03 	lds	r24, 0x0371
     738:	90 e0       	ldi	r25, 0x00	; 0
     73a:	01 96       	adiw	r24, 0x01	; 1
     73c:	8f 73       	andi	r24, 0x3F	; 63
     73e:	90 70       	andi	r25, 0x00	; 0
     740:	80 93 71 03 	sts	0x0371, r24
     744:	e0 91 71 03 	lds	r30, 0x0371
     748:	f0 e0       	ldi	r31, 0x00	; 0
     74a:	ef 5c       	subi	r30, 0xCF	; 207
     74c:	fc 4f       	sbci	r31, 0xFC	; 252
     74e:	80 81       	ld	r24, Z
     750:	80 93 c6 00 	sts	0x00C6, r24
     754:	ff 91       	pop	r31
     756:	ef 91       	pop	r30
     758:	9f 91       	pop	r25
     75a:	8f 91       	pop	r24
     75c:	0f 90       	pop	r0
     75e:	0f be       	out	0x3f, r0	; 63
     760:	0f 90       	pop	r0
     762:	1f 90       	pop	r1
     764:	18 95       	reti

00000766 <__vector_25>:
     766:	1f 92       	push	r1
     768:	0f 92       	push	r0
     76a:	0f b6       	in	r0, 0x3f	; 63
     76c:	0f 92       	push	r0
     76e:	11 24       	eor	r1, r1
     770:	2f 93       	push	r18
     772:	3f 93       	push	r19
     774:	8f 93       	push	r24
     776:	9f 93       	push	r25
     778:	ef 93       	push	r30
     77a:	ff 93       	push	r31
     77c:	20 91 b3 03 	lds	r18, 0x03B3
     780:	80 91 b4 03 	lds	r24, 0x03B4
     784:	30 e0       	ldi	r19, 0x00	; 0
     786:	90 e0       	ldi	r25, 0x00	; 0
     788:	01 96       	adiw	r24, 0x01	; 1
     78a:	8f 73       	andi	r24, 0x3F	; 63
     78c:	90 70       	andi	r25, 0x00	; 0
     78e:	28 17       	cp	r18, r24
     790:	39 07       	cpc	r19, r25
     792:	81 f0       	breq	.+32     	; 0x7b4 <__vector_25+0x4e>
     794:	80 91 b4 03 	lds	r24, 0x03B4
     798:	90 e0       	ldi	r25, 0x00	; 0
     79a:	01 96       	adiw	r24, 0x01	; 1
     79c:	8f 73       	andi	r24, 0x3F	; 63
     79e:	90 70       	andi	r25, 0x00	; 0
     7a0:	80 93 b4 03 	sts	0x03B4, r24
     7a4:	e0 91 b4 03 	lds	r30, 0x03B4
     7a8:	80 91 c6 00 	lds	r24, 0x00C6
     7ac:	f0 e0       	ldi	r31, 0x00	; 0
     7ae:	ed 58       	subi	r30, 0x8D	; 141
     7b0:	fc 4f       	sbci	r31, 0xFC	; 252
     7b2:	80 83       	st	Z, r24
     7b4:	ff 91       	pop	r31
     7b6:	ef 91       	pop	r30
     7b8:	9f 91       	pop	r25
     7ba:	8f 91       	pop	r24
     7bc:	3f 91       	pop	r19
     7be:	2f 91       	pop	r18
     7c0:	0f 90       	pop	r0
     7c2:	0f be       	out	0x3f, r0	; 63
     7c4:	0f 90       	pop	r0
     7c6:	1f 90       	pop	r1
     7c8:	18 95       	reti

000007ca <UART0_AutoBaudRate>:
     7ca:	68 98       	cbi	0x0d, 0	; 13
     7cc:	70 9a       	sbi	0x0e, 0	; 14
     7ce:	16 bc       	out	0x26, r1	; 38
     7d0:	14 bc       	out	0x24, r1	; 36
     7d2:	15 bc       	out	0x25, r1	; 37
     7d4:	60 99       	sbic	0x0c, 0	; 12
     7d6:	fe cf       	rjmp	.-4      	; 0x7d4 <UART0_AutoBaudRate+0xa>
     7d8:	82 e0       	ldi	r24, 0x02	; 2
     7da:	85 bd       	out	0x25, r24	; 37
     7dc:	60 9b       	sbis	0x0c, 0	; 12
     7de:	fe cf       	rjmp	.-4      	; 0x7dc <UART0_AutoBaudRate+0x12>
     7e0:	15 bc       	out	0x25, r1	; 37
     7e2:	86 b5       	in	r24, 0x26	; 38
     7e4:	86 95       	lsr	r24
     7e6:	90 e0       	ldi	r25, 0x00	; 0
     7e8:	01 97       	sbiw	r24, 0x01	; 1
     7ea:	90 93 c5 00 	sts	0x00C5, r25
     7ee:	80 93 c4 00 	sts	0x00C4, r24
     7f2:	08 95       	ret

000007f4 <UART_putchar>:
     7f4:	48 2f       	mov	r20, r24
     7f6:	20 91 71 03 	lds	r18, 0x0371
     7fa:	80 91 72 03 	lds	r24, 0x0372
     7fe:	30 e0       	ldi	r19, 0x00	; 0
     800:	90 e0       	ldi	r25, 0x00	; 0
     802:	01 96       	adiw	r24, 0x01	; 1
     804:	8f 73       	andi	r24, 0x3F	; 63
     806:	90 70       	andi	r25, 0x00	; 0
     808:	28 17       	cp	r18, r24
     80a:	39 07       	cpc	r19, r25
     80c:	a1 f3       	breq	.-24     	; 0x7f6 <UART_putchar+0x2>
     80e:	43 30       	cpi	r20, 0x03	; 3
     810:	19 f4       	brne	.+6      	; 0x818 <UART_putchar+0x24>
     812:	a1 e3       	ldi	r26, 0x31	; 49
     814:	b1 e0       	ldi	r27, 0x01	; 1
     816:	09 c0       	rjmp	.+18     	; 0x82a <UART_putchar+0x36>
     818:	a4 2f       	mov	r26, r20
     81a:	b0 e0       	ldi	r27, 0x00	; 0
     81c:	83 e0       	ldi	r24, 0x03	; 3
     81e:	aa 0f       	add	r26, r26
     820:	bb 1f       	adc	r27, r27
     822:	8a 95       	dec	r24
     824:	e1 f7       	brne	.-8      	; 0x81e <UART_putchar+0x2a>
     826:	af 53       	subi	r26, 0x3F	; 63
     828:	bf 4f       	sbci	r27, 0xFF	; 255
     82a:	80 91 72 03 	lds	r24, 0x0372
     82e:	90 e0       	ldi	r25, 0x00	; 0
     830:	01 96       	adiw	r24, 0x01	; 1
     832:	8f 73       	andi	r24, 0x3F	; 63
     834:	90 70       	andi	r25, 0x00	; 0
     836:	80 93 72 03 	sts	0x0372, r24
     83a:	e0 91 72 03 	lds	r30, 0x0372
     83e:	f0 e0       	ldi	r31, 0x00	; 0
     840:	ef 5c       	subi	r30, 0xCF	; 207
     842:	fc 4f       	sbci	r31, 0xFC	; 252
     844:	60 83       	st	Z, r22
     846:	8c 91       	ld	r24, X
     848:	80 62       	ori	r24, 0x20	; 32
     84a:	8c 93       	st	X, r24
     84c:	08 95       	ret

0000084e <UART_puts>:
     84e:	1f 93       	push	r17
     850:	cf 93       	push	r28
     852:	df 93       	push	r29
     854:	18 2f       	mov	r17, r24
     856:	eb 01       	movw	r28, r22
     858:	04 c0       	rjmp	.+8      	; 0x862 <UART_puts+0x14>
     85a:	21 96       	adiw	r28, 0x01	; 1
     85c:	81 2f       	mov	r24, r17
     85e:	0e 94 fa 03 	call	0x7f4	; 0x7f4 <UART_putchar>
     862:	68 81       	ld	r22, Y
     864:	66 23       	and	r22, r22
     866:	c9 f7       	brne	.-14     	; 0x85a <UART_puts+0xc>
     868:	df 91       	pop	r29
     86a:	cf 91       	pop	r28
     86c:	1f 91       	pop	r17
     86e:	08 95       	ret

00000870 <UART_available>:
     870:	90 91 b3 03 	lds	r25, 0x03B3
     874:	80 91 b4 03 	lds	r24, 0x03B4
     878:	20 e0       	ldi	r18, 0x00	; 0
     87a:	30 e0       	ldi	r19, 0x00	; 0
     87c:	98 17       	cp	r25, r24
     87e:	11 f0       	breq	.+4      	; 0x884 <UART_available+0x14>
     880:	21 e0       	ldi	r18, 0x01	; 1
     882:	30 e0       	ldi	r19, 0x00	; 0
     884:	c9 01       	movw	r24, r18
     886:	08 95       	ret

00000888 <UART_getchar>:
     888:	1f 93       	push	r17
     88a:	28 2f       	mov	r18, r24
     88c:	90 91 b3 03 	lds	r25, 0x03B3
     890:	80 91 b4 03 	lds	r24, 0x03B4
     894:	98 17       	cp	r25, r24
     896:	d1 f3       	breq	.-12     	; 0x88c <UART_getchar+0x4>
     898:	80 91 b3 03 	lds	r24, 0x03B3
     89c:	90 e0       	ldi	r25, 0x00	; 0
     89e:	01 96       	adiw	r24, 0x01	; 1
     8a0:	8f 73       	andi	r24, 0x3F	; 63
     8a2:	90 70       	andi	r25, 0x00	; 0
     8a4:	80 93 b3 03 	sts	0x03B3, r24
     8a8:	e0 91 b3 03 	lds	r30, 0x03B3
     8ac:	f0 e0       	ldi	r31, 0x00	; 0
     8ae:	ed 58       	subi	r30, 0x8D	; 141
     8b0:	fc 4f       	sbci	r31, 0xFC	; 252
     8b2:	10 81       	ld	r17, Z
     8b4:	10 93 30 03 	sts	0x0330, r17
     8b8:	61 2f       	mov	r22, r17
     8ba:	82 2f       	mov	r24, r18
     8bc:	0e 94 fa 03 	call	0x7f4	; 0x7f4 <UART_putchar>
     8c0:	81 2f       	mov	r24, r17
     8c2:	90 e0       	ldi	r25, 0x00	; 0
     8c4:	1f 91       	pop	r17
     8c6:	08 95       	ret

000008c8 <UART_gets>:
     8c8:	cf 92       	push	r12
     8ca:	df 92       	push	r13
     8cc:	ef 92       	push	r14
     8ce:	ff 92       	push	r15
     8d0:	1f 93       	push	r17
     8d2:	cf 93       	push	r28
     8d4:	df 93       	push	r29
     8d6:	18 2f       	mov	r17, r24
     8d8:	7b 01       	movw	r14, r22
     8da:	0e 94 44 04 	call	0x888	; 0x888 <UART_getchar>
     8de:	e7 01       	movw	r28, r14
     8e0:	93 e1       	ldi	r25, 0x13	; 19
     8e2:	c9 2e       	mov	r12, r25
     8e4:	d1 2c       	mov	r13, r1
     8e6:	ce 0c       	add	r12, r14
     8e8:	df 1c       	adc	r13, r15
     8ea:	25 c0       	rjmp	.+74     	; 0x936 <UART_gets+0x6e>
     8ec:	88 30       	cpi	r24, 0x08	; 8
     8ee:	79 f0       	breq	.+30     	; 0x90e <UART_gets+0x46>
     8f0:	cc 15       	cp	r28, r12
     8f2:	dd 05       	cpc	r29, r13
     8f4:	10 f4       	brcc	.+4      	; 0x8fa <UART_gets+0x32>
     8f6:	89 93       	st	Y+, r24
     8f8:	1b c0       	rjmp	.+54     	; 0x930 <UART_gets+0x68>
     8fa:	68 e0       	ldi	r22, 0x08	; 8
     8fc:	81 2f       	mov	r24, r17
     8fe:	0e 94 fa 03 	call	0x7f4	; 0x7f4 <UART_putchar>
     902:	60 e2       	ldi	r22, 0x20	; 32
     904:	81 2f       	mov	r24, r17
     906:	0e 94 fa 03 	call	0x7f4	; 0x7f4 <UART_putchar>
     90a:	68 e0       	ldi	r22, 0x08	; 8
     90c:	04 c0       	rjmp	.+8      	; 0x916 <UART_gets+0x4e>
     90e:	ce 15       	cp	r28, r14
     910:	df 05       	cpc	r29, r15
     912:	29 f4       	brne	.+10     	; 0x91e <UART_gets+0x56>
     914:	60 e2       	ldi	r22, 0x20	; 32
     916:	81 2f       	mov	r24, r17
     918:	0e 94 fa 03 	call	0x7f4	; 0x7f4 <UART_putchar>
     91c:	09 c0       	rjmp	.+18     	; 0x930 <UART_gets+0x68>
     91e:	60 e2       	ldi	r22, 0x20	; 32
     920:	81 2f       	mov	r24, r17
     922:	0e 94 fa 03 	call	0x7f4	; 0x7f4 <UART_putchar>
     926:	68 e0       	ldi	r22, 0x08	; 8
     928:	81 2f       	mov	r24, r17
     92a:	0e 94 fa 03 	call	0x7f4	; 0x7f4 <UART_putchar>
     92e:	21 97       	sbiw	r28, 0x01	; 1
     930:	81 2f       	mov	r24, r17
     932:	0e 94 44 04 	call	0x888	; 0x888 <UART_getchar>
     936:	8d 30       	cpi	r24, 0x0D	; 13
     938:	c9 f6       	brne	.-78     	; 0x8ec <UART_gets+0x24>
     93a:	80 93 2f 03 	sts	0x032F, r24
     93e:	6a e0       	ldi	r22, 0x0A	; 10
     940:	81 2f       	mov	r24, r17
     942:	0e 94 fa 03 	call	0x7f4	; 0x7f4 <UART_putchar>
     946:	18 82       	st	Y, r1
     948:	df 91       	pop	r29
     94a:	cf 91       	pop	r28
     94c:	1f 91       	pop	r17
     94e:	ff 90       	pop	r15
     950:	ef 90       	pop	r14
     952:	df 90       	pop	r13
     954:	cf 90       	pop	r12
     956:	08 95       	ret

00000958 <UART_gotoxy>:
     958:	38 2f       	mov	r19, r24
     95a:	26 2f       	mov	r18, r22
     95c:	84 2f       	mov	r24, r20
     95e:	6a e0       	ldi	r22, 0x0A	; 10
     960:	0e 94 19 13 	call	0x2632	; 0x2632 <__udivmodqi4>
     964:	90 5d       	subi	r25, 0xD0	; 208
     966:	90 93 1c 02 	sts	0x021C, r25
     96a:	84 2f       	mov	r24, r20
     96c:	0e 94 19 13 	call	0x2632	; 0x2632 <__udivmodqi4>
     970:	0e 94 19 13 	call	0x2632	; 0x2632 <__udivmodqi4>
     974:	90 5d       	subi	r25, 0xD0	; 208
     976:	90 93 1b 02 	sts	0x021B, r25
     97a:	82 2f       	mov	r24, r18
     97c:	0e 94 19 13 	call	0x2632	; 0x2632 <__udivmodqi4>
     980:	90 5d       	subi	r25, 0xD0	; 208
     982:	90 93 1f 02 	sts	0x021F, r25
     986:	82 2f       	mov	r24, r18
     988:	0e 94 19 13 	call	0x2632	; 0x2632 <__udivmodqi4>
     98c:	0e 94 19 13 	call	0x2632	; 0x2632 <__udivmodqi4>
     990:	90 5d       	subi	r25, 0xD0	; 208
     992:	90 93 1e 02 	sts	0x021E, r25
     996:	69 e1       	ldi	r22, 0x19	; 25
     998:	72 e0       	ldi	r23, 0x02	; 2
     99a:	83 2f       	mov	r24, r19
     99c:	0e 94 27 04 	call	0x84e	; 0x84e <UART_puts>
     9a0:	08 95       	ret

000009a2 <UART_setColor>:
     9a2:	98 2f       	mov	r25, r24
     9a4:	61 32       	cpi	r22, 0x21	; 33
     9a6:	c1 f0       	breq	.+48     	; 0x9d8 <UART_setColor+0x36>
     9a8:	62 32       	cpi	r22, 0x22	; 34
     9aa:	38 f4       	brcc	.+14     	; 0x9ba <UART_setColor+0x18>
     9ac:	6f 31       	cpi	r22, 0x1F	; 31
     9ae:	81 f0       	breq	.+32     	; 0x9d0 <UART_setColor+0x2e>
     9b0:	60 32       	cpi	r22, 0x20	; 32
     9b2:	80 f4       	brcc	.+32     	; 0x9d4 <UART_setColor+0x32>
     9b4:	6e 31       	cpi	r22, 0x1E	; 30
     9b6:	d9 f4       	brne	.+54     	; 0x9ee <UART_setColor+0x4c>
     9b8:	09 c0       	rjmp	.+18     	; 0x9cc <UART_setColor+0x2a>
     9ba:	63 32       	cpi	r22, 0x23	; 35
     9bc:	89 f0       	breq	.+34     	; 0x9e0 <UART_setColor+0x3e>
     9be:	63 32       	cpi	r22, 0x23	; 35
     9c0:	68 f0       	brcs	.+26     	; 0x9dc <UART_setColor+0x3a>
     9c2:	64 32       	cpi	r22, 0x24	; 36
     9c4:	79 f0       	breq	.+30     	; 0x9e4 <UART_setColor+0x42>
     9c6:	65 32       	cpi	r22, 0x25	; 37
     9c8:	91 f4       	brne	.+36     	; 0x9ee <UART_setColor+0x4c>
     9ca:	0e c0       	rjmp	.+28     	; 0x9e8 <UART_setColor+0x46>
     9cc:	80 e3       	ldi	r24, 0x30	; 48
     9ce:	0d c0       	rjmp	.+26     	; 0x9ea <UART_setColor+0x48>
     9d0:	81 e3       	ldi	r24, 0x31	; 49
     9d2:	0b c0       	rjmp	.+22     	; 0x9ea <UART_setColor+0x48>
     9d4:	82 e3       	ldi	r24, 0x32	; 50
     9d6:	09 c0       	rjmp	.+18     	; 0x9ea <UART_setColor+0x48>
     9d8:	83 e3       	ldi	r24, 0x33	; 51
     9da:	07 c0       	rjmp	.+14     	; 0x9ea <UART_setColor+0x48>
     9dc:	84 e3       	ldi	r24, 0x34	; 52
     9de:	05 c0       	rjmp	.+10     	; 0x9ea <UART_setColor+0x48>
     9e0:	85 e3       	ldi	r24, 0x35	; 53
     9e2:	03 c0       	rjmp	.+6      	; 0x9ea <UART_setColor+0x48>
     9e4:	86 e3       	ldi	r24, 0x36	; 54
     9e6:	01 c0       	rjmp	.+2      	; 0x9ea <UART_setColor+0x48>
     9e8:	87 e3       	ldi	r24, 0x37	; 55
     9ea:	80 93 16 02 	sts	0x0216, r24
     9ee:	63 e1       	ldi	r22, 0x13	; 19
     9f0:	72 e0       	ldi	r23, 0x02	; 2
     9f2:	89 2f       	mov	r24, r25
     9f4:	0e 94 27 04 	call	0x84e	; 0x84e <UART_puts>
     9f8:	08 95       	ret

000009fa <UART_clrscr>:
     9fa:	1f 93       	push	r17
     9fc:	18 2f       	mov	r17, r24
     9fe:	6a e0       	ldi	r22, 0x0A	; 10
     a00:	72 e0       	ldi	r23, 0x02	; 2
     a02:	0e 94 27 04 	call	0x84e	; 0x84e <UART_puts>
     a06:	6f e0       	ldi	r22, 0x0F	; 15
     a08:	72 e0       	ldi	r23, 0x02	; 2
     a0a:	81 2f       	mov	r24, r17
     a0c:	0e 94 27 04 	call	0x84e	; 0x84e <UART_puts>
     a10:	1f 91       	pop	r17
     a12:	08 95       	ret

00000a14 <UART_init>:
     a14:	cf 92       	push	r12
     a16:	df 92       	push	r13
     a18:	ef 92       	push	r14
     a1a:	ff 92       	push	r15
     a1c:	0f 93       	push	r16
     a1e:	1f 93       	push	r17
     a20:	cf 93       	push	r28
     a22:	df 93       	push	r29
     a24:	f4 2e       	mov	r15, r20
     a26:	e2 2e       	mov	r14, r18
     a28:	83 30       	cpi	r24, 0x03	; 3
     a2a:	19 f4       	brne	.+6      	; 0xa32 <UART_init+0x1e>
     a2c:	c0 e3       	ldi	r28, 0x30	; 48
     a2e:	d1 e0       	ldi	r29, 0x01	; 1
     a30:	09 c0       	rjmp	.+18     	; 0xa44 <UART_init+0x30>
     a32:	c8 2f       	mov	r28, r24
     a34:	d0 e0       	ldi	r29, 0x00	; 0
     a36:	23 e0       	ldi	r18, 0x03	; 3
     a38:	cc 0f       	add	r28, r28
     a3a:	dd 1f       	adc	r29, r29
     a3c:	2a 95       	dec	r18
     a3e:	e1 f7       	brne	.-8      	; 0xa38 <UART_init+0x24>
     a40:	c0 54       	subi	r28, 0x40	; 64
     a42:	df 4f       	sbci	r29, 0xFF	; 255
     a44:	6e 01       	movw	r12, r28
     a46:	08 94       	sec
     a48:	c1 1c       	adc	r12, r1
     a4a:	d1 1c       	adc	r13, r1
     a4c:	19 81       	ldd	r17, Y+1	; 0x01
     a4e:	18 61       	ori	r17, 0x18	; 24
     a50:	1d 82       	std	Y+5, r1	; 0x05
     a52:	9b 01       	movw	r18, r22
     a54:	40 e0       	ldi	r20, 0x00	; 0
     a56:	50 e0       	ldi	r21, 0x00	; 0
     a58:	60 e4       	ldi	r22, 0x40	; 64
     a5a:	72 e4       	ldi	r23, 0x42	; 66
     a5c:	8f e0       	ldi	r24, 0x0F	; 15
     a5e:	90 e0       	ldi	r25, 0x00	; 0
     a60:	0e 94 39 13 	call	0x2672	; 0x2672 <__divmodsi4>
     a64:	21 50       	subi	r18, 0x01	; 1
     a66:	30 40       	sbci	r19, 0x00	; 0
     a68:	2c 83       	std	Y+4, r18	; 0x04
     a6a:	1b 7f       	andi	r17, 0xFB	; 251
     a6c:	19 83       	std	Y+1, r17	; 0x01
     a6e:	fe 01       	movw	r30, r28
     a70:	32 96       	adiw	r30, 0x02	; 2
     a72:	8a 81       	ldd	r24, Y+2	; 0x02
     a74:	89 7f       	andi	r24, 0xF9	; 249
     a76:	8a 83       	std	Y+2, r24	; 0x02
     a78:	97 e0       	ldi	r25, 0x07	; 7
     a7a:	f9 16       	cp	r15, r25
     a7c:	41 f0       	breq	.+16     	; 0xa8e <UART_init+0x7a>
     a7e:	98 e0       	ldi	r25, 0x08	; 8
     a80:	f9 16       	cp	r15, r25
     a82:	39 f0       	breq	.+14     	; 0xa92 <UART_init+0x7e>
     a84:	96 e0       	ldi	r25, 0x06	; 6
     a86:	f9 16       	cp	r15, r25
     a88:	31 f4       	brne	.+12     	; 0xa96 <UART_init+0x82>
     a8a:	82 60       	ori	r24, 0x02	; 2
     a8c:	03 c0       	rjmp	.+6      	; 0xa94 <UART_init+0x80>
     a8e:	84 60       	ori	r24, 0x04	; 4
     a90:	01 c0       	rjmp	.+2      	; 0xa94 <UART_init+0x80>
     a92:	86 60       	ori	r24, 0x06	; 6
     a94:	8a 83       	std	Y+2, r24	; 0x02
     a96:	80 81       	ld	r24, Z
     a98:	8f 7c       	andi	r24, 0xCF	; 207
     a9a:	80 83       	st	Z, r24
     a9c:	91 e0       	ldi	r25, 0x01	; 1
     a9e:	e9 16       	cp	r14, r25
     aa0:	21 f0       	breq	.+8      	; 0xaaa <UART_init+0x96>
     aa2:	92 e0       	ldi	r25, 0x02	; 2
     aa4:	e9 16       	cp	r14, r25
     aa6:	29 f4       	brne	.+10     	; 0xab2 <UART_init+0x9e>
     aa8:	02 c0       	rjmp	.+4      	; 0xaae <UART_init+0x9a>
     aaa:	80 63       	ori	r24, 0x30	; 48
     aac:	01 c0       	rjmp	.+2      	; 0xab0 <UART_init+0x9c>
     aae:	80 62       	ori	r24, 0x20	; 32
     ab0:	80 83       	st	Z, r24
     ab2:	02 30       	cpi	r16, 0x02	; 2
     ab4:	19 f4       	brne	.+6      	; 0xabc <UART_init+0xa8>
     ab6:	80 81       	ld	r24, Z
     ab8:	88 60       	ori	r24, 0x08	; 8
     aba:	80 83       	st	Z, r24
     abc:	f6 01       	movw	r30, r12
     abe:	80 81       	ld	r24, Z
     ac0:	80 6a       	ori	r24, 0xA0	; 160
     ac2:	80 83       	st	Z, r24
     ac4:	10 92 b3 03 	sts	0x03B3, r1
     ac8:	10 92 b4 03 	sts	0x03B4, r1
     acc:	10 92 71 03 	sts	0x0371, r1
     ad0:	10 92 72 03 	sts	0x0372, r1
     ad4:	df 91       	pop	r29
     ad6:	cf 91       	pop	r28
     ad8:	1f 91       	pop	r17
     ada:	0f 91       	pop	r16
     adc:	ff 90       	pop	r15
     ade:	ef 90       	pop	r14
     ae0:	df 90       	pop	r13
     ae2:	cf 90       	pop	r12
     ae4:	08 95       	ret

00000ae6 <atoi>:
     ae6:	fc 01       	movw	r30, r24
     ae8:	20 e0       	ldi	r18, 0x00	; 0
     aea:	30 e0       	ldi	r19, 0x00	; 0
     aec:	16 c0       	rjmp	.+44     	; 0xb1a <atoi+0x34>
     aee:	90 e0       	ldi	r25, 0x00	; 0
     af0:	c0 97       	sbiw	r24, 0x30	; 48
     af2:	8a 30       	cpi	r24, 0x0A	; 10
     af4:	91 05       	cpc	r25, r1
     af6:	a0 f4       	brcc	.+40     	; 0xb20 <atoi+0x3a>
     af8:	28 0f       	add	r18, r24
     afa:	39 1f       	adc	r19, r25
     afc:	31 96       	adiw	r30, 0x01	; 1
     afe:	80 81       	ld	r24, Z
     b00:	80 53       	subi	r24, 0x30	; 48
     b02:	8a 30       	cpi	r24, 0x0A	; 10
     b04:	50 f4       	brcc	.+20     	; 0xb1a <atoi+0x34>
     b06:	c9 01       	movw	r24, r18
     b08:	88 0f       	add	r24, r24
     b0a:	99 1f       	adc	r25, r25
     b0c:	43 e0       	ldi	r20, 0x03	; 3
     b0e:	22 0f       	add	r18, r18
     b10:	33 1f       	adc	r19, r19
     b12:	4a 95       	dec	r20
     b14:	e1 f7       	brne	.-8      	; 0xb0e <atoi+0x28>
     b16:	28 0f       	add	r18, r24
     b18:	39 1f       	adc	r19, r25
     b1a:	80 81       	ld	r24, Z
     b1c:	88 23       	and	r24, r24
     b1e:	39 f7       	brne	.-50     	; 0xaee <atoi+0x8>
     b20:	c9 01       	movw	r24, r18
     b22:	08 95       	ret

00000b24 <itoa>:
     b24:	2f 92       	push	r2
     b26:	3f 92       	push	r3
     b28:	4f 92       	push	r4
     b2a:	5f 92       	push	r5
     b2c:	6f 92       	push	r6
     b2e:	7f 92       	push	r7
     b30:	8f 92       	push	r8
     b32:	9f 92       	push	r9
     b34:	af 92       	push	r10
     b36:	bf 92       	push	r11
     b38:	cf 92       	push	r12
     b3a:	df 92       	push	r13
     b3c:	ef 92       	push	r14
     b3e:	ff 92       	push	r15
     b40:	0f 93       	push	r16
     b42:	1f 93       	push	r17
     b44:	cf 93       	push	r28
     b46:	df 93       	push	r29
     b48:	cd b7       	in	r28, 0x3d	; 61
     b4a:	de b7       	in	r29, 0x3e	; 62
     b4c:	2c 97       	sbiw	r28, 0x0c	; 12
     b4e:	0f b6       	in	r0, 0x3f	; 63
     b50:	f8 94       	cli
     b52:	de bf       	out	0x3e, r29	; 62
     b54:	0f be       	out	0x3f, r0	; 63
     b56:	cd bf       	out	0x3d, r28	; 61
     b58:	9a 83       	std	Y+2, r25	; 0x02
     b5a:	89 83       	std	Y+1, r24	; 0x01
     b5c:	20 2e       	mov	r2, r16
     b5e:	31 2e       	mov	r3, r17
     b60:	42 2e       	mov	r4, r18
     b62:	53 2e       	mov	r5, r19
     b64:	64 2e       	mov	r6, r20
     b66:	75 2e       	mov	r7, r21
     b68:	86 2e       	mov	r8, r22
     b6a:	97 2e       	mov	r9, r23
     b6c:	9c 87       	std	Y+12, r25	; 0x0c
     b6e:	8b 87       	std	Y+11, r24	; 0x0b
     b70:	30 e0       	ldi	r19, 0x00	; 0
     b72:	40 e0       	ldi	r20, 0x00	; 0
     b74:	50 e0       	ldi	r21, 0x00	; 0
     b76:	60 e0       	ldi	r22, 0x00	; 0
     b78:	70 e0       	ldi	r23, 0x00	; 0
     b7a:	80 e0       	ldi	r24, 0x00	; 0
     b7c:	90 e0       	ldi	r25, 0x00	; 0
     b7e:	eb 82       	std	Y+3, r14	; 0x03
     b80:	3c 83       	std	Y+4, r19	; 0x04
     b82:	4d 83       	std	Y+5, r20	; 0x05
     b84:	5e 83       	std	Y+6, r21	; 0x06
     b86:	6f 83       	std	Y+7, r22	; 0x07
     b88:	78 87       	std	Y+8, r23	; 0x08
     b8a:	89 87       	std	Y+9, r24	; 0x09
     b8c:	9a 87       	std	Y+10, r25	; 0x0a
     b8e:	ab 80       	ldd	r10, Y+3	; 0x03
     b90:	bb 24       	eor	r11, r11
     b92:	cc 24       	eor	r12, r12
     b94:	dd 24       	eor	r13, r13
     b96:	ee 24       	eor	r14, r14
     b98:	ff 24       	eor	r15, r15
     b9a:	00 e0       	ldi	r16, 0x00	; 0
     b9c:	10 e0       	ldi	r17, 0x00	; 0
     b9e:	22 2d       	mov	r18, r2
     ba0:	33 2d       	mov	r19, r3
     ba2:	44 2d       	mov	r20, r4
     ba4:	55 2d       	mov	r21, r5
     ba6:	66 2d       	mov	r22, r6
     ba8:	77 2d       	mov	r23, r7
     baa:	88 2d       	mov	r24, r8
     bac:	99 2d       	mov	r25, r9
     bae:	0e 94 c7 0c 	call	0x198e	; 0x198e <__umoddi3>
     bb2:	82 2f       	mov	r24, r18
     bb4:	80 5d       	subi	r24, 0xD0	; 208
     bb6:	8a 33       	cpi	r24, 0x3A	; 58
     bb8:	08 f0       	brcs	.+2      	; 0xbbc <itoa+0x98>
     bba:	89 5f       	subi	r24, 0xF9	; 249
     bbc:	eb 85       	ldd	r30, Y+11	; 0x0b
     bbe:	fc 85       	ldd	r31, Y+12	; 0x0c
     bc0:	81 93       	st	Z+, r24
     bc2:	fc 87       	std	Y+12, r31	; 0x0c
     bc4:	eb 87       	std	Y+11, r30	; 0x0b
     bc6:	ab 80       	ldd	r10, Y+3	; 0x03
     bc8:	bb 24       	eor	r11, r11
     bca:	cc 24       	eor	r12, r12
     bcc:	dd 24       	eor	r13, r13
     bce:	ee 24       	eor	r14, r14
     bd0:	ff 24       	eor	r15, r15
     bd2:	00 e0       	ldi	r16, 0x00	; 0
     bd4:	10 e0       	ldi	r17, 0x00	; 0
     bd6:	22 2d       	mov	r18, r2
     bd8:	33 2d       	mov	r19, r3
     bda:	44 2d       	mov	r20, r4
     bdc:	55 2d       	mov	r21, r5
     bde:	66 2d       	mov	r22, r6
     be0:	77 2d       	mov	r23, r7
     be2:	88 2d       	mov	r24, r8
     be4:	99 2d       	mov	r25, r9
     be6:	0e 94 3a 06 	call	0xc74	; 0xc74 <__udivdi3>
     bea:	b3 2e       	mov	r11, r19
     bec:	c4 2e       	mov	r12, r20
     bee:	d5 2e       	mov	r13, r21
     bf0:	e6 2e       	mov	r14, r22
     bf2:	f7 2e       	mov	r15, r23
     bf4:	08 2f       	mov	r16, r24
     bf6:	19 2f       	mov	r17, r25
     bf8:	22 2e       	mov	r2, r18
     bfa:	33 2e       	mov	r3, r19
     bfc:	44 2e       	mov	r4, r20
     bfe:	55 2e       	mov	r5, r21
     c00:	66 2e       	mov	r6, r22
     c02:	77 2e       	mov	r7, r23
     c04:	88 2e       	mov	r8, r24
     c06:	99 2e       	mov	r9, r25
     c08:	82 2f       	mov	r24, r18
     c0a:	8b 29       	or	r24, r11
     c0c:	8c 29       	or	r24, r12
     c0e:	8d 29       	or	r24, r13
     c10:	8e 29       	or	r24, r14
     c12:	8f 29       	or	r24, r15
     c14:	80 2b       	or	r24, r16
     c16:	81 2b       	or	r24, r17
     c18:	09 f0       	breq	.+2      	; 0xc1c <itoa+0xf8>
     c1a:	b9 cf       	rjmp	.-142    	; 0xb8e <itoa+0x6a>
     c1c:	eb 85       	ldd	r30, Y+11	; 0x0b
     c1e:	fc 85       	ldd	r31, Y+12	; 0x0c
     c20:	10 82       	st	Z, r1
     c22:	9f 01       	movw	r18, r30
     c24:	21 50       	subi	r18, 0x01	; 1
     c26:	30 40       	sbci	r19, 0x00	; 0
     c28:	a9 81       	ldd	r26, Y+1	; 0x01
     c2a:	ba 81       	ldd	r27, Y+2	; 0x02
     c2c:	07 c0       	rjmp	.+14     	; 0xc3c <itoa+0x118>
     c2e:	9c 91       	ld	r25, X
     c30:	f9 01       	movw	r30, r18
     c32:	80 81       	ld	r24, Z
     c34:	8d 93       	st	X+, r24
     c36:	90 83       	st	Z, r25
     c38:	21 50       	subi	r18, 0x01	; 1
     c3a:	30 40       	sbci	r19, 0x00	; 0
     c3c:	a2 17       	cp	r26, r18
     c3e:	b3 07       	cpc	r27, r19
     c40:	b0 f3       	brcs	.-20     	; 0xc2e <itoa+0x10a>
     c42:	2c 96       	adiw	r28, 0x0c	; 12
     c44:	0f b6       	in	r0, 0x3f	; 63
     c46:	f8 94       	cli
     c48:	de bf       	out	0x3e, r29	; 62
     c4a:	0f be       	out	0x3f, r0	; 63
     c4c:	cd bf       	out	0x3d, r28	; 61
     c4e:	df 91       	pop	r29
     c50:	cf 91       	pop	r28
     c52:	1f 91       	pop	r17
     c54:	0f 91       	pop	r16
     c56:	ff 90       	pop	r15
     c58:	ef 90       	pop	r14
     c5a:	df 90       	pop	r13
     c5c:	cf 90       	pop	r12
     c5e:	bf 90       	pop	r11
     c60:	af 90       	pop	r10
     c62:	9f 90       	pop	r9
     c64:	8f 90       	pop	r8
     c66:	7f 90       	pop	r7
     c68:	6f 90       	pop	r6
     c6a:	5f 90       	pop	r5
     c6c:	4f 90       	pop	r4
     c6e:	3f 90       	pop	r3
     c70:	2f 90       	pop	r2
     c72:	08 95       	ret

00000c74 <__udivdi3>:
     c74:	ac e6       	ldi	r26, 0x6C	; 108
     c76:	b0 e0       	ldi	r27, 0x00	; 0
     c78:	e0 e4       	ldi	r30, 0x40	; 64
     c7a:	f6 e0       	ldi	r31, 0x06	; 6
     c7c:	0c 94 95 13 	jmp	0x272a	; 0x272a <__prologue_saves__>
     c80:	22 2e       	mov	r2, r18
     c82:	33 2e       	mov	r3, r19
     c84:	44 2e       	mov	r4, r20
     c86:	55 2e       	mov	r5, r21
     c88:	66 2e       	mov	r6, r22
     c8a:	77 2e       	mov	r7, r23
     c8c:	88 2e       	mov	r8, r24
     c8e:	99 2e       	mov	r9, r25
     c90:	6e 2d       	mov	r22, r14
     c92:	a8 e0       	ldi	r26, 0x08	; 8
     c94:	fe 01       	movw	r30, r28
     c96:	31 96       	adiw	r30, 0x01	; 1
     c98:	ea 2e       	mov	r14, r26
     c9a:	11 92       	st	Z+, r1
     c9c:	ea 94       	dec	r14
     c9e:	e9 f7       	brne	.-6      	; 0xc9a <__udivdi3+0x26>
     ca0:	29 82       	std	Y+1, r2	; 0x01
     ca2:	3a 82       	std	Y+2, r3	; 0x02
     ca4:	4b 82       	std	Y+3, r4	; 0x03
     ca6:	5c 82       	std	Y+4, r5	; 0x04
     ca8:	6d 82       	std	Y+5, r6	; 0x05
     caa:	7e 82       	std	Y+6, r7	; 0x06
     cac:	8f 82       	std	Y+7, r8	; 0x07
     cae:	98 86       	std	Y+8, r9	; 0x08
     cb0:	fe 01       	movw	r30, r28
     cb2:	39 96       	adiw	r30, 0x09	; 9
     cb4:	11 92       	st	Z+, r1
     cb6:	aa 95       	dec	r26
     cb8:	e9 f7       	brne	.-6      	; 0xcb4 <__udivdi3+0x40>
     cba:	a9 86       	std	Y+9, r10	; 0x09
     cbc:	ba 86       	std	Y+10, r11	; 0x0a
     cbe:	cb 86       	std	Y+11, r12	; 0x0b
     cc0:	dc 86       	std	Y+12, r13	; 0x0c
     cc2:	6d 87       	std	Y+13, r22	; 0x0d
     cc4:	fe 86       	std	Y+14, r15	; 0x0e
     cc6:	0f 87       	std	Y+15, r16	; 0x0f
     cc8:	18 8b       	std	Y+16, r17	; 0x10
     cca:	a9 84       	ldd	r10, Y+9	; 0x09
     ccc:	ba 84       	ldd	r11, Y+10	; 0x0a
     cce:	cb 84       	ldd	r12, Y+11	; 0x0b
     cd0:	dc 84       	ldd	r13, Y+12	; 0x0c
     cd2:	6d 84       	ldd	r6, Y+13	; 0x0d
     cd4:	7e 84       	ldd	r7, Y+14	; 0x0e
     cd6:	8f 84       	ldd	r8, Y+15	; 0x0f
     cd8:	98 88       	ldd	r9, Y+16	; 0x10
     cda:	09 81       	ldd	r16, Y+1	; 0x01
     cdc:	1a 81       	ldd	r17, Y+2	; 0x02
     cde:	2b 81       	ldd	r18, Y+3	; 0x03
     ce0:	3c 81       	ldd	r19, Y+4	; 0x04
     ce2:	09 ab       	std	Y+49, r16	; 0x31
     ce4:	1a ab       	std	Y+50, r17	; 0x32
     ce6:	2b ab       	std	Y+51, r18	; 0x33
     ce8:	3c ab       	std	Y+52, r19	; 0x34
     cea:	2d 80       	ldd	r2, Y+5	; 0x05
     cec:	3e 80       	ldd	r3, Y+6	; 0x06
     cee:	4f 80       	ldd	r4, Y+7	; 0x07
     cf0:	58 84       	ldd	r5, Y+8	; 0x08
     cf2:	61 14       	cp	r6, r1
     cf4:	71 04       	cpc	r7, r1
     cf6:	81 04       	cpc	r8, r1
     cf8:	91 04       	cpc	r9, r1
     cfa:	09 f0       	breq	.+2      	; 0xcfe <__udivdi3+0x8a>
     cfc:	b8 c3       	rjmp	.+1904   	; 0x146e <__udivdi3+0x7fa>
     cfe:	2a 14       	cp	r2, r10
     d00:	3b 04       	cpc	r3, r11
     d02:	4c 04       	cpc	r4, r12
     d04:	5d 04       	cpc	r5, r13
     d06:	08 f0       	brcs	.+2      	; 0xd0a <__udivdi3+0x96>
     d08:	61 c1       	rjmp	.+706    	; 0xfcc <__udivdi3+0x358>
     d0a:	10 e0       	ldi	r17, 0x00	; 0
     d0c:	a1 16       	cp	r10, r17
     d0e:	10 e0       	ldi	r17, 0x00	; 0
     d10:	b1 06       	cpc	r11, r17
     d12:	11 e0       	ldi	r17, 0x01	; 1
     d14:	c1 06       	cpc	r12, r17
     d16:	10 e0       	ldi	r17, 0x00	; 0
     d18:	d1 06       	cpc	r13, r17
     d1a:	88 f4       	brcc	.+34     	; 0xd3e <__udivdi3+0xca>
     d1c:	2f ef       	ldi	r18, 0xFF	; 255
     d1e:	a2 16       	cp	r10, r18
     d20:	b1 04       	cpc	r11, r1
     d22:	c1 04       	cpc	r12, r1
     d24:	d1 04       	cpc	r13, r1
     d26:	09 f0       	breq	.+2      	; 0xd2a <__udivdi3+0xb6>
     d28:	28 f4       	brcc	.+10     	; 0xd34 <__udivdi3+0xc0>
     d2a:	20 e0       	ldi	r18, 0x00	; 0
     d2c:	30 e0       	ldi	r19, 0x00	; 0
     d2e:	40 e0       	ldi	r20, 0x00	; 0
     d30:	50 e0       	ldi	r21, 0x00	; 0
     d32:	17 c0       	rjmp	.+46     	; 0xd62 <__udivdi3+0xee>
     d34:	28 e0       	ldi	r18, 0x08	; 8
     d36:	30 e0       	ldi	r19, 0x00	; 0
     d38:	40 e0       	ldi	r20, 0x00	; 0
     d3a:	50 e0       	ldi	r21, 0x00	; 0
     d3c:	12 c0       	rjmp	.+36     	; 0xd62 <__udivdi3+0xee>
     d3e:	30 e0       	ldi	r19, 0x00	; 0
     d40:	a3 16       	cp	r10, r19
     d42:	30 e0       	ldi	r19, 0x00	; 0
     d44:	b3 06       	cpc	r11, r19
     d46:	30 e0       	ldi	r19, 0x00	; 0
     d48:	c3 06       	cpc	r12, r19
     d4a:	31 e0       	ldi	r19, 0x01	; 1
     d4c:	d3 06       	cpc	r13, r19
     d4e:	28 f4       	brcc	.+10     	; 0xd5a <__udivdi3+0xe6>
     d50:	20 e1       	ldi	r18, 0x10	; 16
     d52:	30 e0       	ldi	r19, 0x00	; 0
     d54:	40 e0       	ldi	r20, 0x00	; 0
     d56:	50 e0       	ldi	r21, 0x00	; 0
     d58:	04 c0       	rjmp	.+8      	; 0xd62 <__udivdi3+0xee>
     d5a:	28 e1       	ldi	r18, 0x18	; 24
     d5c:	30 e0       	ldi	r19, 0x00	; 0
     d5e:	40 e0       	ldi	r20, 0x00	; 0
     d60:	50 e0       	ldi	r21, 0x00	; 0
     d62:	80 e2       	ldi	r24, 0x20	; 32
     d64:	90 e0       	ldi	r25, 0x00	; 0
     d66:	a0 e0       	ldi	r26, 0x00	; 0
     d68:	b0 e0       	ldi	r27, 0x00	; 0
     d6a:	82 1b       	sub	r24, r18
     d6c:	93 0b       	sbc	r25, r19
     d6e:	a4 0b       	sbc	r26, r20
     d70:	b5 0b       	sbc	r27, r21
     d72:	35 01       	movw	r6, r10
     d74:	46 01       	movw	r8, r12
     d76:	04 c0       	rjmp	.+8      	; 0xd80 <__udivdi3+0x10c>
     d78:	96 94       	lsr	r9
     d7a:	87 94       	ror	r8
     d7c:	77 94       	ror	r7
     d7e:	67 94       	ror	r6
     d80:	2a 95       	dec	r18
     d82:	d2 f7       	brpl	.-12     	; 0xd78 <__udivdi3+0x104>
     d84:	a4 01       	movw	r20, r8
     d86:	93 01       	movw	r18, r6
     d88:	2e 5d       	subi	r18, 0xDE	; 222
     d8a:	3d 4f       	sbci	r19, 0xFD	; 253
     d8c:	f9 01       	movw	r30, r18
     d8e:	20 81       	ld	r18, Z
     d90:	ac 01       	movw	r20, r24
     d92:	bd 01       	movw	r22, r26
     d94:	42 1b       	sub	r20, r18
     d96:	51 09       	sbc	r21, r1
     d98:	61 09       	sbc	r22, r1
     d9a:	71 09       	sbc	r23, r1
     d9c:	41 15       	cp	r20, r1
     d9e:	51 05       	cpc	r21, r1
     da0:	61 05       	cpc	r22, r1
     da2:	71 05       	cpc	r23, r1
     da4:	b9 f1       	breq	.+110    	; 0xe14 <__udivdi3+0x1a0>
     da6:	ca 01       	movw	r24, r20
     da8:	04 2e       	mov	r0, r20
     daa:	04 c0       	rjmp	.+8      	; 0xdb4 <__udivdi3+0x140>
     dac:	aa 0c       	add	r10, r10
     dae:	bb 1c       	adc	r11, r11
     db0:	cc 1c       	adc	r12, r12
     db2:	dd 1c       	adc	r13, r13
     db4:	0a 94       	dec	r0
     db6:	d2 f7       	brpl	.-12     	; 0xdac <__udivdi3+0x138>
     db8:	20 e2       	ldi	r18, 0x20	; 32
     dba:	30 e0       	ldi	r19, 0x00	; 0
     dbc:	24 1b       	sub	r18, r20
     dbe:	35 0b       	sbc	r19, r21
     dc0:	69 a8       	ldd	r6, Y+49	; 0x31
     dc2:	7a a8       	ldd	r7, Y+50	; 0x32
     dc4:	8b a8       	ldd	r8, Y+51	; 0x33
     dc6:	9c a8       	ldd	r9, Y+52	; 0x34
     dc8:	04 c0       	rjmp	.+8      	; 0xdd2 <__udivdi3+0x15e>
     dca:	96 94       	lsr	r9
     dcc:	87 94       	ror	r8
     dce:	77 94       	ror	r7
     dd0:	67 94       	ror	r6
     dd2:	2a 95       	dec	r18
     dd4:	d2 f7       	brpl	.-12     	; 0xdca <__udivdi3+0x156>
     dd6:	82 01       	movw	r16, r4
     dd8:	71 01       	movw	r14, r2
     dda:	08 2e       	mov	r0, r24
     ddc:	04 c0       	rjmp	.+8      	; 0xde6 <__udivdi3+0x172>
     dde:	ee 0c       	add	r14, r14
     de0:	ff 1c       	adc	r15, r15
     de2:	00 1f       	adc	r16, r16
     de4:	11 1f       	adc	r17, r17
     de6:	0a 94       	dec	r0
     de8:	d2 f7       	brpl	.-12     	; 0xdde <__udivdi3+0x16a>
     dea:	13 01       	movw	r2, r6
     dec:	24 01       	movw	r4, r8
     dee:	2e 28       	or	r2, r14
     df0:	3f 28       	or	r3, r15
     df2:	40 2a       	or	r4, r16
     df4:	51 2a       	or	r5, r17
     df6:	e9 a8       	ldd	r14, Y+49	; 0x31
     df8:	fa a8       	ldd	r15, Y+50	; 0x32
     dfa:	0b a9       	ldd	r16, Y+51	; 0x33
     dfc:	1c a9       	ldd	r17, Y+52	; 0x34
     dfe:	04 c0       	rjmp	.+8      	; 0xe08 <__udivdi3+0x194>
     e00:	ee 0c       	add	r14, r14
     e02:	ff 1c       	adc	r15, r15
     e04:	00 1f       	adc	r16, r16
     e06:	11 1f       	adc	r17, r17
     e08:	8a 95       	dec	r24
     e0a:	d2 f7       	brpl	.-12     	; 0xe00 <__udivdi3+0x18c>
     e0c:	e9 aa       	std	Y+49, r14	; 0x31
     e0e:	fa aa       	std	Y+50, r15	; 0x32
     e10:	0b ab       	std	Y+51, r16	; 0x33
     e12:	1c ab       	std	Y+52, r17	; 0x34
     e14:	86 01       	movw	r16, r12
     e16:	22 27       	eor	r18, r18
     e18:	33 27       	eor	r19, r19
     e1a:	21 96       	adiw	r28, 0x01	; 1
     e1c:	0c af       	std	Y+60, r16	; 0x3c
     e1e:	1d af       	std	Y+61, r17	; 0x3d
     e20:	2e af       	std	Y+62, r18	; 0x3e
     e22:	3f af       	std	Y+63, r19	; 0x3f
     e24:	21 97       	sbiw	r28, 0x01	; 1
     e26:	a6 01       	movw	r20, r12
     e28:	95 01       	movw	r18, r10
     e2a:	40 70       	andi	r20, 0x00	; 0
     e2c:	50 70       	andi	r21, 0x00	; 0
     e2e:	25 96       	adiw	r28, 0x05	; 5
     e30:	2c af       	std	Y+60, r18	; 0x3c
     e32:	3d af       	std	Y+61, r19	; 0x3d
     e34:	4e af       	std	Y+62, r20	; 0x3e
     e36:	5f af       	std	Y+63, r21	; 0x3f
     e38:	25 97       	sbiw	r28, 0x05	; 5
     e3a:	c2 01       	movw	r24, r4
     e3c:	b1 01       	movw	r22, r2
     e3e:	21 96       	adiw	r28, 0x01	; 1
     e40:	2c ad       	ldd	r18, Y+60	; 0x3c
     e42:	3d ad       	ldd	r19, Y+61	; 0x3d
     e44:	4e ad       	ldd	r20, Y+62	; 0x3e
     e46:	5f ad       	ldd	r21, Y+63	; 0x3f
     e48:	21 97       	sbiw	r28, 0x01	; 1
     e4a:	0e 94 73 13 	call	0x26e6	; 0x26e6 <__udivmodsi4>
     e4e:	29 96       	adiw	r28, 0x09	; 9
     e50:	2c af       	std	Y+60, r18	; 0x3c
     e52:	3d af       	std	Y+61, r19	; 0x3d
     e54:	4e af       	std	Y+62, r20	; 0x3e
     e56:	5f af       	std	Y+63, r21	; 0x3f
     e58:	29 97       	sbiw	r28, 0x09	; 9
     e5a:	ca 01       	movw	r24, r20
     e5c:	b9 01       	movw	r22, r18
     e5e:	25 96       	adiw	r28, 0x05	; 5
     e60:	2c ad       	ldd	r18, Y+60	; 0x3c
     e62:	3d ad       	ldd	r19, Y+61	; 0x3d
     e64:	4e ad       	ldd	r20, Y+62	; 0x3e
     e66:	5f ad       	ldd	r21, Y+63	; 0x3f
     e68:	25 97       	sbiw	r28, 0x05	; 5
     e6a:	0e 94 54 13 	call	0x26a8	; 0x26a8 <__mulsi3>
     e6e:	3b 01       	movw	r6, r22
     e70:	4c 01       	movw	r8, r24
     e72:	c2 01       	movw	r24, r4
     e74:	b1 01       	movw	r22, r2
     e76:	21 96       	adiw	r28, 0x01	; 1
     e78:	2c ad       	ldd	r18, Y+60	; 0x3c
     e7a:	3d ad       	ldd	r19, Y+61	; 0x3d
     e7c:	4e ad       	ldd	r20, Y+62	; 0x3e
     e7e:	5f ad       	ldd	r21, Y+63	; 0x3f
     e80:	21 97       	sbiw	r28, 0x01	; 1
     e82:	0e 94 73 13 	call	0x26e6	; 0x26e6 <__udivmodsi4>
     e86:	cb 01       	movw	r24, r22
     e88:	77 27       	eor	r23, r23
     e8a:	66 27       	eor	r22, r22
     e8c:	e9 a8       	ldd	r14, Y+49	; 0x31
     e8e:	fa a8       	ldd	r15, Y+50	; 0x32
     e90:	0b a9       	ldd	r16, Y+51	; 0x33
     e92:	1c a9       	ldd	r17, Y+52	; 0x34
     e94:	98 01       	movw	r18, r16
     e96:	44 27       	eor	r20, r20
     e98:	55 27       	eor	r21, r21
     e9a:	7b 01       	movw	r14, r22
     e9c:	8c 01       	movw	r16, r24
     e9e:	e2 2a       	or	r14, r18
     ea0:	f3 2a       	or	r15, r19
     ea2:	04 2b       	or	r16, r20
     ea4:	15 2b       	or	r17, r21
     ea6:	e6 14       	cp	r14, r6
     ea8:	f7 04       	cpc	r15, r7
     eaa:	08 05       	cpc	r16, r8
     eac:	19 05       	cpc	r17, r9
     eae:	60 f5       	brcc	.+88     	; 0xf08 <__udivdi3+0x294>
     eb0:	29 96       	adiw	r28, 0x09	; 9
     eb2:	2c ad       	ldd	r18, Y+60	; 0x3c
     eb4:	3d ad       	ldd	r19, Y+61	; 0x3d
     eb6:	4e ad       	ldd	r20, Y+62	; 0x3e
     eb8:	5f ad       	ldd	r21, Y+63	; 0x3f
     eba:	29 97       	sbiw	r28, 0x09	; 9
     ebc:	21 50       	subi	r18, 0x01	; 1
     ebe:	30 40       	sbci	r19, 0x00	; 0
     ec0:	40 40       	sbci	r20, 0x00	; 0
     ec2:	50 40       	sbci	r21, 0x00	; 0
     ec4:	29 96       	adiw	r28, 0x09	; 9
     ec6:	2c af       	std	Y+60, r18	; 0x3c
     ec8:	3d af       	std	Y+61, r19	; 0x3d
     eca:	4e af       	std	Y+62, r20	; 0x3e
     ecc:	5f af       	std	Y+63, r21	; 0x3f
     ece:	29 97       	sbiw	r28, 0x09	; 9
     ed0:	ea 0c       	add	r14, r10
     ed2:	fb 1c       	adc	r15, r11
     ed4:	0c 1d       	adc	r16, r12
     ed6:	1d 1d       	adc	r17, r13
     ed8:	ea 14       	cp	r14, r10
     eda:	fb 04       	cpc	r15, r11
     edc:	0c 05       	cpc	r16, r12
     ede:	1d 05       	cpc	r17, r13
     ee0:	98 f0       	brcs	.+38     	; 0xf08 <__udivdi3+0x294>
     ee2:	e6 14       	cp	r14, r6
     ee4:	f7 04       	cpc	r15, r7
     ee6:	08 05       	cpc	r16, r8
     ee8:	19 05       	cpc	r17, r9
     eea:	70 f4       	brcc	.+28     	; 0xf08 <__udivdi3+0x294>
     eec:	21 50       	subi	r18, 0x01	; 1
     eee:	30 40       	sbci	r19, 0x00	; 0
     ef0:	40 40       	sbci	r20, 0x00	; 0
     ef2:	50 40       	sbci	r21, 0x00	; 0
     ef4:	29 96       	adiw	r28, 0x09	; 9
     ef6:	2c af       	std	Y+60, r18	; 0x3c
     ef8:	3d af       	std	Y+61, r19	; 0x3d
     efa:	4e af       	std	Y+62, r20	; 0x3e
     efc:	5f af       	std	Y+63, r21	; 0x3f
     efe:	29 97       	sbiw	r28, 0x09	; 9
     f00:	ea 0c       	add	r14, r10
     f02:	fb 1c       	adc	r15, r11
     f04:	0c 1d       	adc	r16, r12
     f06:	1d 1d       	adc	r17, r13
     f08:	e6 18       	sub	r14, r6
     f0a:	f7 08       	sbc	r15, r7
     f0c:	08 09       	sbc	r16, r8
     f0e:	19 09       	sbc	r17, r9
     f10:	c8 01       	movw	r24, r16
     f12:	b7 01       	movw	r22, r14
     f14:	21 96       	adiw	r28, 0x01	; 1
     f16:	2c ad       	ldd	r18, Y+60	; 0x3c
     f18:	3d ad       	ldd	r19, Y+61	; 0x3d
     f1a:	4e ad       	ldd	r20, Y+62	; 0x3e
     f1c:	5f ad       	ldd	r21, Y+63	; 0x3f
     f1e:	21 97       	sbiw	r28, 0x01	; 1
     f20:	0e 94 73 13 	call	0x26e6	; 0x26e6 <__udivmodsi4>
     f24:	39 01       	movw	r6, r18
     f26:	4a 01       	movw	r8, r20
     f28:	ca 01       	movw	r24, r20
     f2a:	b9 01       	movw	r22, r18
     f2c:	25 96       	adiw	r28, 0x05	; 5
     f2e:	2c ad       	ldd	r18, Y+60	; 0x3c
     f30:	3d ad       	ldd	r19, Y+61	; 0x3d
     f32:	4e ad       	ldd	r20, Y+62	; 0x3e
     f34:	5f ad       	ldd	r21, Y+63	; 0x3f
     f36:	25 97       	sbiw	r28, 0x05	; 5
     f38:	0e 94 54 13 	call	0x26a8	; 0x26a8 <__mulsi3>
     f3c:	1b 01       	movw	r2, r22
     f3e:	2c 01       	movw	r4, r24
     f40:	c8 01       	movw	r24, r16
     f42:	b7 01       	movw	r22, r14
     f44:	21 96       	adiw	r28, 0x01	; 1
     f46:	2c ad       	ldd	r18, Y+60	; 0x3c
     f48:	3d ad       	ldd	r19, Y+61	; 0x3d
     f4a:	4e ad       	ldd	r20, Y+62	; 0x3e
     f4c:	5f ad       	ldd	r21, Y+63	; 0x3f
     f4e:	21 97       	sbiw	r28, 0x01	; 1
     f50:	0e 94 73 13 	call	0x26e6	; 0x26e6 <__udivmodsi4>
     f54:	cb 01       	movw	r24, r22
     f56:	77 27       	eor	r23, r23
     f58:	66 27       	eor	r22, r22
     f5a:	29 a9       	ldd	r18, Y+49	; 0x31
     f5c:	3a a9       	ldd	r19, Y+50	; 0x32
     f5e:	4b a9       	ldd	r20, Y+51	; 0x33
     f60:	5c a9       	ldd	r21, Y+52	; 0x34
     f62:	40 70       	andi	r20, 0x00	; 0
     f64:	50 70       	andi	r21, 0x00	; 0
     f66:	26 2b       	or	r18, r22
     f68:	37 2b       	or	r19, r23
     f6a:	48 2b       	or	r20, r24
     f6c:	59 2b       	or	r21, r25
     f6e:	22 15       	cp	r18, r2
     f70:	33 05       	cpc	r19, r3
     f72:	44 05       	cpc	r20, r4
     f74:	55 05       	cpc	r21, r5
     f76:	c0 f4       	brcc	.+48     	; 0xfa8 <__udivdi3+0x334>
     f78:	08 94       	sec
     f7a:	61 08       	sbc	r6, r1
     f7c:	71 08       	sbc	r7, r1
     f7e:	81 08       	sbc	r8, r1
     f80:	91 08       	sbc	r9, r1
     f82:	2a 0d       	add	r18, r10
     f84:	3b 1d       	adc	r19, r11
     f86:	4c 1d       	adc	r20, r12
     f88:	5d 1d       	adc	r21, r13
     f8a:	2a 15       	cp	r18, r10
     f8c:	3b 05       	cpc	r19, r11
     f8e:	4c 05       	cpc	r20, r12
     f90:	5d 05       	cpc	r21, r13
     f92:	50 f0       	brcs	.+20     	; 0xfa8 <__udivdi3+0x334>
     f94:	22 15       	cp	r18, r2
     f96:	33 05       	cpc	r19, r3
     f98:	44 05       	cpc	r20, r4
     f9a:	55 05       	cpc	r21, r5
     f9c:	28 f4       	brcc	.+10     	; 0xfa8 <__udivdi3+0x334>
     f9e:	08 94       	sec
     fa0:	61 08       	sbc	r6, r1
     fa2:	71 08       	sbc	r7, r1
     fa4:	81 08       	sbc	r8, r1
     fa6:	91 08       	sbc	r9, r1
     fa8:	29 96       	adiw	r28, 0x09	; 9
     faa:	ec ac       	ldd	r14, Y+60	; 0x3c
     fac:	fd ac       	ldd	r15, Y+61	; 0x3d
     fae:	0e ad       	ldd	r16, Y+62	; 0x3e
     fb0:	1f ad       	ldd	r17, Y+63	; 0x3f
     fb2:	29 97       	sbiw	r28, 0x09	; 9
     fb4:	d7 01       	movw	r26, r14
     fb6:	99 27       	eor	r25, r25
     fb8:	88 27       	eor	r24, r24
     fba:	68 2a       	or	r6, r24
     fbc:	79 2a       	or	r7, r25
     fbe:	8a 2a       	or	r8, r26
     fc0:	9b 2a       	or	r9, r27
     fc2:	6d aa       	std	Y+53, r6	; 0x35
     fc4:	7e aa       	std	Y+54, r7	; 0x36
     fc6:	8f aa       	std	Y+55, r8	; 0x37
     fc8:	98 ae       	std	Y+56, r9	; 0x38
     fca:	b2 c4       	rjmp	.+2404   	; 0x1930 <__udivdi3+0xcbc>
     fcc:	a1 14       	cp	r10, r1
     fce:	b1 04       	cpc	r11, r1
     fd0:	c1 04       	cpc	r12, r1
     fd2:	d1 04       	cpc	r13, r1
     fd4:	61 f4       	brne	.+24     	; 0xfee <__udivdi3+0x37a>
     fd6:	61 e0       	ldi	r22, 0x01	; 1
     fd8:	70 e0       	ldi	r23, 0x00	; 0
     fda:	80 e0       	ldi	r24, 0x00	; 0
     fdc:	90 e0       	ldi	r25, 0x00	; 0
     fde:	20 e0       	ldi	r18, 0x00	; 0
     fe0:	30 e0       	ldi	r19, 0x00	; 0
     fe2:	40 e0       	ldi	r20, 0x00	; 0
     fe4:	50 e0       	ldi	r21, 0x00	; 0
     fe6:	0e 94 73 13 	call	0x26e6	; 0x26e6 <__udivmodsi4>
     fea:	59 01       	movw	r10, r18
     fec:	6a 01       	movw	r12, r20
     fee:	00 e0       	ldi	r16, 0x00	; 0
     ff0:	a0 16       	cp	r10, r16
     ff2:	00 e0       	ldi	r16, 0x00	; 0
     ff4:	b0 06       	cpc	r11, r16
     ff6:	01 e0       	ldi	r16, 0x01	; 1
     ff8:	c0 06       	cpc	r12, r16
     ffa:	00 e0       	ldi	r16, 0x00	; 0
     ffc:	d0 06       	cpc	r13, r16
     ffe:	88 f4       	brcc	.+34     	; 0x1022 <__udivdi3+0x3ae>
    1000:	1f ef       	ldi	r17, 0xFF	; 255
    1002:	a1 16       	cp	r10, r17
    1004:	b1 04       	cpc	r11, r1
    1006:	c1 04       	cpc	r12, r1
    1008:	d1 04       	cpc	r13, r1
    100a:	09 f0       	breq	.+2      	; 0x100e <__udivdi3+0x39a>
    100c:	28 f4       	brcc	.+10     	; 0x1018 <__udivdi3+0x3a4>
    100e:	20 e0       	ldi	r18, 0x00	; 0
    1010:	30 e0       	ldi	r19, 0x00	; 0
    1012:	40 e0       	ldi	r20, 0x00	; 0
    1014:	50 e0       	ldi	r21, 0x00	; 0
    1016:	17 c0       	rjmp	.+46     	; 0x1046 <__udivdi3+0x3d2>
    1018:	28 e0       	ldi	r18, 0x08	; 8
    101a:	30 e0       	ldi	r19, 0x00	; 0
    101c:	40 e0       	ldi	r20, 0x00	; 0
    101e:	50 e0       	ldi	r21, 0x00	; 0
    1020:	12 c0       	rjmp	.+36     	; 0x1046 <__udivdi3+0x3d2>
    1022:	20 e0       	ldi	r18, 0x00	; 0
    1024:	a2 16       	cp	r10, r18
    1026:	20 e0       	ldi	r18, 0x00	; 0
    1028:	b2 06       	cpc	r11, r18
    102a:	20 e0       	ldi	r18, 0x00	; 0
    102c:	c2 06       	cpc	r12, r18
    102e:	21 e0       	ldi	r18, 0x01	; 1
    1030:	d2 06       	cpc	r13, r18
    1032:	28 f4       	brcc	.+10     	; 0x103e <__udivdi3+0x3ca>
    1034:	20 e1       	ldi	r18, 0x10	; 16
    1036:	30 e0       	ldi	r19, 0x00	; 0
    1038:	40 e0       	ldi	r20, 0x00	; 0
    103a:	50 e0       	ldi	r21, 0x00	; 0
    103c:	04 c0       	rjmp	.+8      	; 0x1046 <__udivdi3+0x3d2>
    103e:	28 e1       	ldi	r18, 0x18	; 24
    1040:	30 e0       	ldi	r19, 0x00	; 0
    1042:	40 e0       	ldi	r20, 0x00	; 0
    1044:	50 e0       	ldi	r21, 0x00	; 0
    1046:	f0 e2       	ldi	r31, 0x20	; 32
    1048:	ef 2e       	mov	r14, r31
    104a:	f1 2c       	mov	r15, r1
    104c:	01 2d       	mov	r16, r1
    104e:	11 2d       	mov	r17, r1
    1050:	d8 01       	movw	r26, r16
    1052:	c7 01       	movw	r24, r14
    1054:	82 1b       	sub	r24, r18
    1056:	93 0b       	sbc	r25, r19
    1058:	a4 0b       	sbc	r26, r20
    105a:	b5 0b       	sbc	r27, r21
    105c:	35 01       	movw	r6, r10
    105e:	46 01       	movw	r8, r12
    1060:	04 c0       	rjmp	.+8      	; 0x106a <__udivdi3+0x3f6>
    1062:	96 94       	lsr	r9
    1064:	87 94       	ror	r8
    1066:	77 94       	ror	r7
    1068:	67 94       	ror	r6
    106a:	2a 95       	dec	r18
    106c:	d2 f7       	brpl	.-12     	; 0x1062 <__udivdi3+0x3ee>
    106e:	a4 01       	movw	r20, r8
    1070:	93 01       	movw	r18, r6
    1072:	2e 5d       	subi	r18, 0xDE	; 222
    1074:	3d 4f       	sbci	r19, 0xFD	; 253
    1076:	f9 01       	movw	r30, r18
    1078:	20 81       	ld	r18, Z
    107a:	82 1b       	sub	r24, r18
    107c:	91 09       	sbc	r25, r1
    107e:	a1 09       	sbc	r26, r1
    1080:	b1 09       	sbc	r27, r1
    1082:	00 97       	sbiw	r24, 0x00	; 0
    1084:	a1 05       	cpc	r26, r1
    1086:	b1 05       	cpc	r27, r1
    1088:	61 f4       	brne	.+24     	; 0x10a2 <__udivdi3+0x42e>
    108a:	82 01       	movw	r16, r4
    108c:	71 01       	movw	r14, r2
    108e:	ea 18       	sub	r14, r10
    1090:	fb 08       	sbc	r15, r11
    1092:	0c 09       	sbc	r16, r12
    1094:	1d 09       	sbc	r17, r13
    1096:	e1 e0       	ldi	r30, 0x01	; 1
    1098:	6e 2e       	mov	r6, r30
    109a:	71 2c       	mov	r7, r1
    109c:	81 2c       	mov	r8, r1
    109e:	91 2c       	mov	r9, r1
    10a0:	1a c1       	rjmp	.+564    	; 0x12d6 <__udivdi3+0x662>
    10a2:	98 a3       	std	Y+32, r25	; 0x20
    10a4:	8f 8f       	std	Y+31, r24	; 0x1f
    10a6:	0f 8c       	ldd	r0, Y+31	; 0x1f
    10a8:	04 c0       	rjmp	.+8      	; 0x10b2 <__udivdi3+0x43e>
    10aa:	aa 0c       	add	r10, r10
    10ac:	bb 1c       	adc	r11, r11
    10ae:	cc 1c       	adc	r12, r12
    10b0:	dd 1c       	adc	r13, r13
    10b2:	0a 94       	dec	r0
    10b4:	d2 f7       	brpl	.-12     	; 0x10aa <__udivdi3+0x436>
    10b6:	e8 1a       	sub	r14, r24
    10b8:	f9 0a       	sbc	r15, r25
    10ba:	0a 0b       	sbc	r16, r26
    10bc:	1b 0b       	sbc	r17, r27
    10be:	d8 01       	movw	r26, r16
    10c0:	c7 01       	movw	r24, r14
    10c2:	82 01       	movw	r16, r4
    10c4:	71 01       	movw	r14, r2
    10c6:	08 2e       	mov	r0, r24
    10c8:	04 c0       	rjmp	.+8      	; 0x10d2 <__udivdi3+0x45e>
    10ca:	16 95       	lsr	r17
    10cc:	07 95       	ror	r16
    10ce:	f7 94       	ror	r15
    10d0:	e7 94       	ror	r14
    10d2:	0a 94       	dec	r0
    10d4:	d2 f7       	brpl	.-12     	; 0x10ca <__udivdi3+0x456>
    10d6:	29 a9       	ldd	r18, Y+49	; 0x31
    10d8:	3a a9       	ldd	r19, Y+50	; 0x32
    10da:	4b a9       	ldd	r20, Y+51	; 0x33
    10dc:	5c a9       	ldd	r21, Y+52	; 0x34
    10de:	04 c0       	rjmp	.+8      	; 0x10e8 <__udivdi3+0x474>
    10e0:	56 95       	lsr	r21
    10e2:	47 95       	ror	r20
    10e4:	37 95       	ror	r19
    10e6:	27 95       	ror	r18
    10e8:	8a 95       	dec	r24
    10ea:	d2 f7       	brpl	.-12     	; 0x10e0 <__udivdi3+0x46c>
    10ec:	d2 01       	movw	r26, r4
    10ee:	c1 01       	movw	r24, r2
    10f0:	0f 8c       	ldd	r0, Y+31	; 0x1f
    10f2:	04 c0       	rjmp	.+8      	; 0x10fc <__udivdi3+0x488>
    10f4:	88 0f       	add	r24, r24
    10f6:	99 1f       	adc	r25, r25
    10f8:	aa 1f       	adc	r26, r26
    10fa:	bb 1f       	adc	r27, r27
    10fc:	0a 94       	dec	r0
    10fe:	d2 f7       	brpl	.-12     	; 0x10f4 <__udivdi3+0x480>
    1100:	28 2b       	or	r18, r24
    1102:	39 2b       	or	r19, r25
    1104:	4a 2b       	or	r20, r26
    1106:	5b 2b       	or	r21, r27
    1108:	2d a7       	std	Y+45, r18	; 0x2d
    110a:	3e a7       	std	Y+46, r19	; 0x2e
    110c:	4f a7       	std	Y+47, r20	; 0x2f
    110e:	58 ab       	std	Y+48, r21	; 0x30
    1110:	96 01       	movw	r18, r12
    1112:	44 27       	eor	r20, r20
    1114:	55 27       	eor	r21, r21
    1116:	2d 96       	adiw	r28, 0x0d	; 13
    1118:	2c af       	std	Y+60, r18	; 0x3c
    111a:	3d af       	std	Y+61, r19	; 0x3d
    111c:	4e af       	std	Y+62, r20	; 0x3e
    111e:	5f af       	std	Y+63, r21	; 0x3f
    1120:	2d 97       	sbiw	r28, 0x0d	; 13
    1122:	6f ef       	ldi	r22, 0xFF	; 255
    1124:	26 2e       	mov	r2, r22
    1126:	6f ef       	ldi	r22, 0xFF	; 255
    1128:	36 2e       	mov	r3, r22
    112a:	41 2c       	mov	r4, r1
    112c:	51 2c       	mov	r5, r1
    112e:	2a 20       	and	r2, r10
    1130:	3b 20       	and	r3, r11
    1132:	4c 20       	and	r4, r12
    1134:	5d 20       	and	r5, r13
    1136:	c8 01       	movw	r24, r16
    1138:	b7 01       	movw	r22, r14
    113a:	0e 94 73 13 	call	0x26e6	; 0x26e6 <__udivmodsi4>
    113e:	61 96       	adiw	r28, 0x11	; 17
    1140:	2c af       	std	Y+60, r18	; 0x3c
    1142:	3d af       	std	Y+61, r19	; 0x3d
    1144:	4e af       	std	Y+62, r20	; 0x3e
    1146:	5f af       	std	Y+63, r21	; 0x3f
    1148:	61 97       	sbiw	r28, 0x11	; 17
    114a:	ca 01       	movw	r24, r20
    114c:	b9 01       	movw	r22, r18
    114e:	a2 01       	movw	r20, r4
    1150:	91 01       	movw	r18, r2
    1152:	0e 94 54 13 	call	0x26a8	; 0x26a8 <__mulsi3>
    1156:	3b 01       	movw	r6, r22
    1158:	4c 01       	movw	r8, r24
    115a:	c8 01       	movw	r24, r16
    115c:	b7 01       	movw	r22, r14
    115e:	2d 96       	adiw	r28, 0x0d	; 13
    1160:	2c ad       	ldd	r18, Y+60	; 0x3c
    1162:	3d ad       	ldd	r19, Y+61	; 0x3d
    1164:	4e ad       	ldd	r20, Y+62	; 0x3e
    1166:	5f ad       	ldd	r21, Y+63	; 0x3f
    1168:	2d 97       	sbiw	r28, 0x0d	; 13
    116a:	0e 94 73 13 	call	0x26e6	; 0x26e6 <__udivmodsi4>
    116e:	cb 01       	movw	r24, r22
    1170:	77 27       	eor	r23, r23
    1172:	66 27       	eor	r22, r22
    1174:	ed a4       	ldd	r14, Y+45	; 0x2d
    1176:	fe a4       	ldd	r15, Y+46	; 0x2e
    1178:	0f a5       	ldd	r16, Y+47	; 0x2f
    117a:	18 a9       	ldd	r17, Y+48	; 0x30
    117c:	98 01       	movw	r18, r16
    117e:	44 27       	eor	r20, r20
    1180:	55 27       	eor	r21, r21
    1182:	79 01       	movw	r14, r18
    1184:	8a 01       	movw	r16, r20
    1186:	e6 2a       	or	r14, r22
    1188:	f7 2a       	or	r15, r23
    118a:	08 2b       	or	r16, r24
    118c:	19 2b       	or	r17, r25
    118e:	e6 14       	cp	r14, r6
    1190:	f7 04       	cpc	r15, r7
    1192:	08 05       	cpc	r16, r8
    1194:	19 05       	cpc	r17, r9
    1196:	60 f5       	brcc	.+88     	; 0x11f0 <__udivdi3+0x57c>
    1198:	61 96       	adiw	r28, 0x11	; 17
    119a:	2c ad       	ldd	r18, Y+60	; 0x3c
    119c:	3d ad       	ldd	r19, Y+61	; 0x3d
    119e:	4e ad       	ldd	r20, Y+62	; 0x3e
    11a0:	5f ad       	ldd	r21, Y+63	; 0x3f
    11a2:	61 97       	sbiw	r28, 0x11	; 17
    11a4:	21 50       	subi	r18, 0x01	; 1
    11a6:	30 40       	sbci	r19, 0x00	; 0
    11a8:	40 40       	sbci	r20, 0x00	; 0
    11aa:	50 40       	sbci	r21, 0x00	; 0
    11ac:	61 96       	adiw	r28, 0x11	; 17
    11ae:	2c af       	std	Y+60, r18	; 0x3c
    11b0:	3d af       	std	Y+61, r19	; 0x3d
    11b2:	4e af       	std	Y+62, r20	; 0x3e
    11b4:	5f af       	std	Y+63, r21	; 0x3f
    11b6:	61 97       	sbiw	r28, 0x11	; 17
    11b8:	ea 0c       	add	r14, r10
    11ba:	fb 1c       	adc	r15, r11
    11bc:	0c 1d       	adc	r16, r12
    11be:	1d 1d       	adc	r17, r13
    11c0:	ea 14       	cp	r14, r10
    11c2:	fb 04       	cpc	r15, r11
    11c4:	0c 05       	cpc	r16, r12
    11c6:	1d 05       	cpc	r17, r13
    11c8:	98 f0       	brcs	.+38     	; 0x11f0 <__udivdi3+0x57c>
    11ca:	e6 14       	cp	r14, r6
    11cc:	f7 04       	cpc	r15, r7
    11ce:	08 05       	cpc	r16, r8
    11d0:	19 05       	cpc	r17, r9
    11d2:	70 f4       	brcc	.+28     	; 0x11f0 <__udivdi3+0x57c>
    11d4:	21 50       	subi	r18, 0x01	; 1
    11d6:	30 40       	sbci	r19, 0x00	; 0
    11d8:	40 40       	sbci	r20, 0x00	; 0
    11da:	50 40       	sbci	r21, 0x00	; 0
    11dc:	61 96       	adiw	r28, 0x11	; 17
    11de:	2c af       	std	Y+60, r18	; 0x3c
    11e0:	3d af       	std	Y+61, r19	; 0x3d
    11e2:	4e af       	std	Y+62, r20	; 0x3e
    11e4:	5f af       	std	Y+63, r21	; 0x3f
    11e6:	61 97       	sbiw	r28, 0x11	; 17
    11e8:	ea 0c       	add	r14, r10
    11ea:	fb 1c       	adc	r15, r11
    11ec:	0c 1d       	adc	r16, r12
    11ee:	1d 1d       	adc	r17, r13
    11f0:	e6 18       	sub	r14, r6
    11f2:	f7 08       	sbc	r15, r7
    11f4:	08 09       	sbc	r16, r8
    11f6:	19 09       	sbc	r17, r9
    11f8:	c8 01       	movw	r24, r16
    11fa:	b7 01       	movw	r22, r14
    11fc:	2d 96       	adiw	r28, 0x0d	; 13
    11fe:	2c ad       	ldd	r18, Y+60	; 0x3c
    1200:	3d ad       	ldd	r19, Y+61	; 0x3d
    1202:	4e ad       	ldd	r20, Y+62	; 0x3e
    1204:	5f ad       	ldd	r21, Y+63	; 0x3f
    1206:	2d 97       	sbiw	r28, 0x0d	; 13
    1208:	0e 94 73 13 	call	0x26e6	; 0x26e6 <__udivmodsi4>
    120c:	39 01       	movw	r6, r18
    120e:	4a 01       	movw	r8, r20
    1210:	ca 01       	movw	r24, r20
    1212:	b9 01       	movw	r22, r18
    1214:	a2 01       	movw	r20, r4
    1216:	91 01       	movw	r18, r2
    1218:	0e 94 54 13 	call	0x26a8	; 0x26a8 <__mulsi3>
    121c:	1b 01       	movw	r2, r22
    121e:	2c 01       	movw	r4, r24
    1220:	c8 01       	movw	r24, r16
    1222:	b7 01       	movw	r22, r14
    1224:	2d 96       	adiw	r28, 0x0d	; 13
    1226:	2c ad       	ldd	r18, Y+60	; 0x3c
    1228:	3d ad       	ldd	r19, Y+61	; 0x3d
    122a:	4e ad       	ldd	r20, Y+62	; 0x3e
    122c:	5f ad       	ldd	r21, Y+63	; 0x3f
    122e:	2d 97       	sbiw	r28, 0x0d	; 13
    1230:	0e 94 73 13 	call	0x26e6	; 0x26e6 <__udivmodsi4>
    1234:	cb 01       	movw	r24, r22
    1236:	77 27       	eor	r23, r23
    1238:	66 27       	eor	r22, r22
    123a:	2d a5       	ldd	r18, Y+45	; 0x2d
    123c:	3e a5       	ldd	r19, Y+46	; 0x2e
    123e:	4f a5       	ldd	r20, Y+47	; 0x2f
    1240:	58 a9       	ldd	r21, Y+48	; 0x30
    1242:	40 70       	andi	r20, 0x00	; 0
    1244:	50 70       	andi	r21, 0x00	; 0
    1246:	7b 01       	movw	r14, r22
    1248:	8c 01       	movw	r16, r24
    124a:	e2 2a       	or	r14, r18
    124c:	f3 2a       	or	r15, r19
    124e:	04 2b       	or	r16, r20
    1250:	15 2b       	or	r17, r21
    1252:	e2 14       	cp	r14, r2
    1254:	f3 04       	cpc	r15, r3
    1256:	04 05       	cpc	r16, r4
    1258:	15 05       	cpc	r17, r5
    125a:	e0 f4       	brcc	.+56     	; 0x1294 <__udivdi3+0x620>
    125c:	08 94       	sec
    125e:	61 08       	sbc	r6, r1
    1260:	71 08       	sbc	r7, r1
    1262:	81 08       	sbc	r8, r1
    1264:	91 08       	sbc	r9, r1
    1266:	ea 0c       	add	r14, r10
    1268:	fb 1c       	adc	r15, r11
    126a:	0c 1d       	adc	r16, r12
    126c:	1d 1d       	adc	r17, r13
    126e:	ea 14       	cp	r14, r10
    1270:	fb 04       	cpc	r15, r11
    1272:	0c 05       	cpc	r16, r12
    1274:	1d 05       	cpc	r17, r13
    1276:	70 f0       	brcs	.+28     	; 0x1294 <__udivdi3+0x620>
    1278:	e2 14       	cp	r14, r2
    127a:	f3 04       	cpc	r15, r3
    127c:	04 05       	cpc	r16, r4
    127e:	15 05       	cpc	r17, r5
    1280:	48 f4       	brcc	.+18     	; 0x1294 <__udivdi3+0x620>
    1282:	08 94       	sec
    1284:	61 08       	sbc	r6, r1
    1286:	71 08       	sbc	r7, r1
    1288:	81 08       	sbc	r8, r1
    128a:	91 08       	sbc	r9, r1
    128c:	ea 0c       	add	r14, r10
    128e:	fb 1c       	adc	r15, r11
    1290:	0c 1d       	adc	r16, r12
    1292:	1d 1d       	adc	r17, r13
    1294:	89 a9       	ldd	r24, Y+49	; 0x31
    1296:	9a a9       	ldd	r25, Y+50	; 0x32
    1298:	ab a9       	ldd	r26, Y+51	; 0x33
    129a:	bc a9       	ldd	r27, Y+52	; 0x34
    129c:	0f 8c       	ldd	r0, Y+31	; 0x1f
    129e:	04 c0       	rjmp	.+8      	; 0x12a8 <__udivdi3+0x634>
    12a0:	88 0f       	add	r24, r24
    12a2:	99 1f       	adc	r25, r25
    12a4:	aa 1f       	adc	r26, r26
    12a6:	bb 1f       	adc	r27, r27
    12a8:	0a 94       	dec	r0
    12aa:	d2 f7       	brpl	.-12     	; 0x12a0 <__udivdi3+0x62c>
    12ac:	89 ab       	std	Y+49, r24	; 0x31
    12ae:	9a ab       	std	Y+50, r25	; 0x32
    12b0:	ab ab       	std	Y+51, r26	; 0x33
    12b2:	bc ab       	std	Y+52, r27	; 0x34
    12b4:	e2 18       	sub	r14, r2
    12b6:	f3 08       	sbc	r15, r3
    12b8:	04 09       	sbc	r16, r4
    12ba:	15 09       	sbc	r17, r5
    12bc:	61 96       	adiw	r28, 0x11	; 17
    12be:	2c ad       	ldd	r18, Y+60	; 0x3c
    12c0:	3d ad       	ldd	r19, Y+61	; 0x3d
    12c2:	4e ad       	ldd	r20, Y+62	; 0x3e
    12c4:	5f ad       	ldd	r21, Y+63	; 0x3f
    12c6:	61 97       	sbiw	r28, 0x11	; 17
    12c8:	d9 01       	movw	r26, r18
    12ca:	99 27       	eor	r25, r25
    12cc:	88 27       	eor	r24, r24
    12ce:	68 2a       	or	r6, r24
    12d0:	79 2a       	or	r7, r25
    12d2:	8a 2a       	or	r8, r26
    12d4:	9b 2a       	or	r9, r27
    12d6:	69 ae       	std	Y+57, r6	; 0x39
    12d8:	7a ae       	std	Y+58, r7	; 0x3a
    12da:	8b ae       	std	Y+59, r8	; 0x3b
    12dc:	9c ae       	std	Y+60, r9	; 0x3c
    12de:	c6 01       	movw	r24, r12
    12e0:	aa 27       	eor	r26, r26
    12e2:	bb 27       	eor	r27, r27
    12e4:	65 96       	adiw	r28, 0x15	; 21
    12e6:	8c af       	std	Y+60, r24	; 0x3c
    12e8:	9d af       	std	Y+61, r25	; 0x3d
    12ea:	ae af       	std	Y+62, r26	; 0x3e
    12ec:	bf af       	std	Y+63, r27	; 0x3f
    12ee:	65 97       	sbiw	r28, 0x15	; 21
    12f0:	a6 01       	movw	r20, r12
    12f2:	95 01       	movw	r18, r10
    12f4:	40 70       	andi	r20, 0x00	; 0
    12f6:	50 70       	andi	r21, 0x00	; 0
    12f8:	69 96       	adiw	r28, 0x19	; 25
    12fa:	2c af       	std	Y+60, r18	; 0x3c
    12fc:	3d af       	std	Y+61, r19	; 0x3d
    12fe:	4e af       	std	Y+62, r20	; 0x3e
    1300:	5f af       	std	Y+63, r21	; 0x3f
    1302:	69 97       	sbiw	r28, 0x19	; 25
    1304:	c8 01       	movw	r24, r16
    1306:	b7 01       	movw	r22, r14
    1308:	65 96       	adiw	r28, 0x15	; 21
    130a:	2c ad       	ldd	r18, Y+60	; 0x3c
    130c:	3d ad       	ldd	r19, Y+61	; 0x3d
    130e:	4e ad       	ldd	r20, Y+62	; 0x3e
    1310:	5f ad       	ldd	r21, Y+63	; 0x3f
    1312:	65 97       	sbiw	r28, 0x15	; 21
    1314:	0e 94 73 13 	call	0x26e6	; 0x26e6 <__udivmodsi4>
    1318:	19 01       	movw	r2, r18
    131a:	2a 01       	movw	r4, r20
    131c:	ca 01       	movw	r24, r20
    131e:	b9 01       	movw	r22, r18
    1320:	69 96       	adiw	r28, 0x19	; 25
    1322:	2c ad       	ldd	r18, Y+60	; 0x3c
    1324:	3d ad       	ldd	r19, Y+61	; 0x3d
    1326:	4e ad       	ldd	r20, Y+62	; 0x3e
    1328:	5f ad       	ldd	r21, Y+63	; 0x3f
    132a:	69 97       	sbiw	r28, 0x19	; 25
    132c:	0e 94 54 13 	call	0x26a8	; 0x26a8 <__mulsi3>
    1330:	3b 01       	movw	r6, r22
    1332:	4c 01       	movw	r8, r24
    1334:	c8 01       	movw	r24, r16
    1336:	b7 01       	movw	r22, r14
    1338:	65 96       	adiw	r28, 0x15	; 21
    133a:	2c ad       	ldd	r18, Y+60	; 0x3c
    133c:	3d ad       	ldd	r19, Y+61	; 0x3d
    133e:	4e ad       	ldd	r20, Y+62	; 0x3e
    1340:	5f ad       	ldd	r21, Y+63	; 0x3f
    1342:	65 97       	sbiw	r28, 0x15	; 21
    1344:	0e 94 73 13 	call	0x26e6	; 0x26e6 <__udivmodsi4>
    1348:	cb 01       	movw	r24, r22
    134a:	77 27       	eor	r23, r23
    134c:	66 27       	eor	r22, r22
    134e:	e9 a8       	ldd	r14, Y+49	; 0x31
    1350:	fa a8       	ldd	r15, Y+50	; 0x32
    1352:	0b a9       	ldd	r16, Y+51	; 0x33
    1354:	1c a9       	ldd	r17, Y+52	; 0x34
    1356:	98 01       	movw	r18, r16
    1358:	44 27       	eor	r20, r20
    135a:	55 27       	eor	r21, r21
    135c:	7b 01       	movw	r14, r22
    135e:	8c 01       	movw	r16, r24
    1360:	e2 2a       	or	r14, r18
    1362:	f3 2a       	or	r15, r19
    1364:	04 2b       	or	r16, r20
    1366:	15 2b       	or	r17, r21
    1368:	e6 14       	cp	r14, r6
    136a:	f7 04       	cpc	r15, r7
    136c:	08 05       	cpc	r16, r8
    136e:	19 05       	cpc	r17, r9
    1370:	e0 f4       	brcc	.+56     	; 0x13aa <__udivdi3+0x736>
    1372:	08 94       	sec
    1374:	21 08       	sbc	r2, r1
    1376:	31 08       	sbc	r3, r1
    1378:	41 08       	sbc	r4, r1
    137a:	51 08       	sbc	r5, r1
    137c:	ea 0c       	add	r14, r10
    137e:	fb 1c       	adc	r15, r11
    1380:	0c 1d       	adc	r16, r12
    1382:	1d 1d       	adc	r17, r13
    1384:	ea 14       	cp	r14, r10
    1386:	fb 04       	cpc	r15, r11
    1388:	0c 05       	cpc	r16, r12
    138a:	1d 05       	cpc	r17, r13
    138c:	70 f0       	brcs	.+28     	; 0x13aa <__udivdi3+0x736>
    138e:	e6 14       	cp	r14, r6
    1390:	f7 04       	cpc	r15, r7
    1392:	08 05       	cpc	r16, r8
    1394:	19 05       	cpc	r17, r9
    1396:	48 f4       	brcc	.+18     	; 0x13aa <__udivdi3+0x736>
    1398:	08 94       	sec
    139a:	21 08       	sbc	r2, r1
    139c:	31 08       	sbc	r3, r1
    139e:	41 08       	sbc	r4, r1
    13a0:	51 08       	sbc	r5, r1
    13a2:	ea 0c       	add	r14, r10
    13a4:	fb 1c       	adc	r15, r11
    13a6:	0c 1d       	adc	r16, r12
    13a8:	1d 1d       	adc	r17, r13
    13aa:	e6 18       	sub	r14, r6
    13ac:	f7 08       	sbc	r15, r7
    13ae:	08 09       	sbc	r16, r8
    13b0:	19 09       	sbc	r17, r9
    13b2:	c8 01       	movw	r24, r16
    13b4:	b7 01       	movw	r22, r14
    13b6:	65 96       	adiw	r28, 0x15	; 21
    13b8:	2c ad       	ldd	r18, Y+60	; 0x3c
    13ba:	3d ad       	ldd	r19, Y+61	; 0x3d
    13bc:	4e ad       	ldd	r20, Y+62	; 0x3e
    13be:	5f ad       	ldd	r21, Y+63	; 0x3f
    13c0:	65 97       	sbiw	r28, 0x15	; 21
    13c2:	0e 94 73 13 	call	0x26e6	; 0x26e6 <__udivmodsi4>
    13c6:	39 01       	movw	r6, r18
    13c8:	4a 01       	movw	r8, r20
    13ca:	ca 01       	movw	r24, r20
    13cc:	b9 01       	movw	r22, r18
    13ce:	69 96       	adiw	r28, 0x19	; 25
    13d0:	2c ad       	ldd	r18, Y+60	; 0x3c
    13d2:	3d ad       	ldd	r19, Y+61	; 0x3d
    13d4:	4e ad       	ldd	r20, Y+62	; 0x3e
    13d6:	5f ad       	ldd	r21, Y+63	; 0x3f
    13d8:	69 97       	sbiw	r28, 0x19	; 25
    13da:	0e 94 54 13 	call	0x26a8	; 0x26a8 <__mulsi3>
    13de:	69 8f       	std	Y+25, r22	; 0x19
    13e0:	7a 8f       	std	Y+26, r23	; 0x1a
    13e2:	8b 8f       	std	Y+27, r24	; 0x1b
    13e4:	9c 8f       	std	Y+28, r25	; 0x1c
    13e6:	c8 01       	movw	r24, r16
    13e8:	b7 01       	movw	r22, r14
    13ea:	65 96       	adiw	r28, 0x15	; 21
    13ec:	2c ad       	ldd	r18, Y+60	; 0x3c
    13ee:	3d ad       	ldd	r19, Y+61	; 0x3d
    13f0:	4e ad       	ldd	r20, Y+62	; 0x3e
    13f2:	5f ad       	ldd	r21, Y+63	; 0x3f
    13f4:	65 97       	sbiw	r28, 0x15	; 21
    13f6:	0e 94 73 13 	call	0x26e6	; 0x26e6 <__udivmodsi4>
    13fa:	cb 01       	movw	r24, r22
    13fc:	77 27       	eor	r23, r23
    13fe:	66 27       	eor	r22, r22
    1400:	29 a9       	ldd	r18, Y+49	; 0x31
    1402:	3a a9       	ldd	r19, Y+50	; 0x32
    1404:	4b a9       	ldd	r20, Y+51	; 0x33
    1406:	5c a9       	ldd	r21, Y+52	; 0x34
    1408:	40 70       	andi	r20, 0x00	; 0
    140a:	50 70       	andi	r21, 0x00	; 0
    140c:	26 2b       	or	r18, r22
    140e:	37 2b       	or	r19, r23
    1410:	48 2b       	or	r20, r24
    1412:	59 2b       	or	r21, r25
    1414:	89 8d       	ldd	r24, Y+25	; 0x19
    1416:	9a 8d       	ldd	r25, Y+26	; 0x1a
    1418:	ab 8d       	ldd	r26, Y+27	; 0x1b
    141a:	bc 8d       	ldd	r27, Y+28	; 0x1c
    141c:	28 17       	cp	r18, r24
    141e:	39 07       	cpc	r19, r25
    1420:	4a 07       	cpc	r20, r26
    1422:	5b 07       	cpc	r21, r27
    1424:	c0 f4       	brcc	.+48     	; 0x1456 <__udivdi3+0x7e2>
    1426:	08 94       	sec
    1428:	61 08       	sbc	r6, r1
    142a:	71 08       	sbc	r7, r1
    142c:	81 08       	sbc	r8, r1
    142e:	91 08       	sbc	r9, r1
    1430:	2a 0d       	add	r18, r10
    1432:	3b 1d       	adc	r19, r11
    1434:	4c 1d       	adc	r20, r12
    1436:	5d 1d       	adc	r21, r13
    1438:	2a 15       	cp	r18, r10
    143a:	3b 05       	cpc	r19, r11
    143c:	4c 05       	cpc	r20, r12
    143e:	5d 05       	cpc	r21, r13
    1440:	50 f0       	brcs	.+20     	; 0x1456 <__udivdi3+0x7e2>
    1442:	28 17       	cp	r18, r24
    1444:	39 07       	cpc	r19, r25
    1446:	4a 07       	cpc	r20, r26
    1448:	5b 07       	cpc	r21, r27
    144a:	28 f4       	brcc	.+10     	; 0x1456 <__udivdi3+0x7e2>
    144c:	08 94       	sec
    144e:	61 08       	sbc	r6, r1
    1450:	71 08       	sbc	r7, r1
    1452:	81 08       	sbc	r8, r1
    1454:	91 08       	sbc	r9, r1
    1456:	d1 01       	movw	r26, r2
    1458:	99 27       	eor	r25, r25
    145a:	88 27       	eor	r24, r24
    145c:	68 2a       	or	r6, r24
    145e:	79 2a       	or	r7, r25
    1460:	8a 2a       	or	r8, r26
    1462:	9b 2a       	or	r9, r27
    1464:	6d aa       	std	Y+53, r6	; 0x35
    1466:	7e aa       	std	Y+54, r7	; 0x36
    1468:	8f aa       	std	Y+55, r8	; 0x37
    146a:	98 ae       	std	Y+56, r9	; 0x38
    146c:	65 c2       	rjmp	.+1226   	; 0x1938 <__udivdi3+0xcc4>
    146e:	26 14       	cp	r2, r6
    1470:	37 04       	cpc	r3, r7
    1472:	48 04       	cpc	r4, r8
    1474:	59 04       	cpc	r5, r9
    1476:	08 f4       	brcc	.+2      	; 0x147a <__udivdi3+0x806>
    1478:	4e c2       	rjmp	.+1180   	; 0x1916 <__udivdi3+0xca2>
    147a:	90 e0       	ldi	r25, 0x00	; 0
    147c:	69 16       	cp	r6, r25
    147e:	90 e0       	ldi	r25, 0x00	; 0
    1480:	79 06       	cpc	r7, r25
    1482:	91 e0       	ldi	r25, 0x01	; 1
    1484:	89 06       	cpc	r8, r25
    1486:	90 e0       	ldi	r25, 0x00	; 0
    1488:	99 06       	cpc	r9, r25
    148a:	88 f4       	brcc	.+34     	; 0x14ae <__udivdi3+0x83a>
    148c:	af ef       	ldi	r26, 0xFF	; 255
    148e:	6a 16       	cp	r6, r26
    1490:	71 04       	cpc	r7, r1
    1492:	81 04       	cpc	r8, r1
    1494:	91 04       	cpc	r9, r1
    1496:	09 f0       	breq	.+2      	; 0x149a <__udivdi3+0x826>
    1498:	28 f4       	brcc	.+10     	; 0x14a4 <__udivdi3+0x830>
    149a:	20 e0       	ldi	r18, 0x00	; 0
    149c:	30 e0       	ldi	r19, 0x00	; 0
    149e:	40 e0       	ldi	r20, 0x00	; 0
    14a0:	50 e0       	ldi	r21, 0x00	; 0
    14a2:	17 c0       	rjmp	.+46     	; 0x14d2 <__udivdi3+0x85e>
    14a4:	28 e0       	ldi	r18, 0x08	; 8
    14a6:	30 e0       	ldi	r19, 0x00	; 0
    14a8:	40 e0       	ldi	r20, 0x00	; 0
    14aa:	50 e0       	ldi	r21, 0x00	; 0
    14ac:	12 c0       	rjmp	.+36     	; 0x14d2 <__udivdi3+0x85e>
    14ae:	b0 e0       	ldi	r27, 0x00	; 0
    14b0:	6b 16       	cp	r6, r27
    14b2:	b0 e0       	ldi	r27, 0x00	; 0
    14b4:	7b 06       	cpc	r7, r27
    14b6:	b0 e0       	ldi	r27, 0x00	; 0
    14b8:	8b 06       	cpc	r8, r27
    14ba:	b1 e0       	ldi	r27, 0x01	; 1
    14bc:	9b 06       	cpc	r9, r27
    14be:	28 f4       	brcc	.+10     	; 0x14ca <__udivdi3+0x856>
    14c0:	20 e1       	ldi	r18, 0x10	; 16
    14c2:	30 e0       	ldi	r19, 0x00	; 0
    14c4:	40 e0       	ldi	r20, 0x00	; 0
    14c6:	50 e0       	ldi	r21, 0x00	; 0
    14c8:	04 c0       	rjmp	.+8      	; 0x14d2 <__udivdi3+0x85e>
    14ca:	28 e1       	ldi	r18, 0x18	; 24
    14cc:	30 e0       	ldi	r19, 0x00	; 0
    14ce:	40 e0       	ldi	r20, 0x00	; 0
    14d0:	50 e0       	ldi	r21, 0x00	; 0
    14d2:	e0 e2       	ldi	r30, 0x20	; 32
    14d4:	ee 2e       	mov	r14, r30
    14d6:	f1 2c       	mov	r15, r1
    14d8:	01 2d       	mov	r16, r1
    14da:	11 2d       	mov	r17, r1
    14dc:	d8 01       	movw	r26, r16
    14de:	c7 01       	movw	r24, r14
    14e0:	82 1b       	sub	r24, r18
    14e2:	93 0b       	sbc	r25, r19
    14e4:	a4 0b       	sbc	r26, r20
    14e6:	b5 0b       	sbc	r27, r21
    14e8:	ad 96       	adiw	r28, 0x2d	; 45
    14ea:	8c af       	std	Y+60, r24	; 0x3c
    14ec:	9d af       	std	Y+61, r25	; 0x3d
    14ee:	ae af       	std	Y+62, r26	; 0x3e
    14f0:	bf af       	std	Y+63, r27	; 0x3f
    14f2:	ad 97       	sbiw	r28, 0x2d	; 45
    14f4:	d4 01       	movw	r26, r8
    14f6:	c3 01       	movw	r24, r6
    14f8:	04 c0       	rjmp	.+8      	; 0x1502 <__udivdi3+0x88e>
    14fa:	b6 95       	lsr	r27
    14fc:	a7 95       	ror	r26
    14fe:	97 95       	ror	r25
    1500:	87 95       	ror	r24
    1502:	2a 95       	dec	r18
    1504:	d2 f7       	brpl	.-12     	; 0x14fa <__udivdi3+0x886>
    1506:	9c 01       	movw	r18, r24
    1508:	ad 01       	movw	r20, r26
    150a:	2e 5d       	subi	r18, 0xDE	; 222
    150c:	3d 4f       	sbci	r19, 0xFD	; 253
    150e:	d9 01       	movw	r26, r18
    1510:	2c 91       	ld	r18, X
    1512:	ad 96       	adiw	r28, 0x2d	; 45
    1514:	8c ad       	ldd	r24, Y+60	; 0x3c
    1516:	9d ad       	ldd	r25, Y+61	; 0x3d
    1518:	ae ad       	ldd	r26, Y+62	; 0x3e
    151a:	bf ad       	ldd	r27, Y+63	; 0x3f
    151c:	ad 97       	sbiw	r28, 0x2d	; 45
    151e:	82 1b       	sub	r24, r18
    1520:	91 09       	sbc	r25, r1
    1522:	a1 09       	sbc	r26, r1
    1524:	b1 09       	sbc	r27, r1
    1526:	00 97       	sbiw	r24, 0x00	; 0
    1528:	a1 05       	cpc	r26, r1
    152a:	b1 05       	cpc	r27, r1
    152c:	89 f4       	brne	.+34     	; 0x1550 <__udivdi3+0x8dc>
    152e:	62 14       	cp	r6, r2
    1530:	73 04       	cpc	r7, r3
    1532:	84 04       	cpc	r8, r4
    1534:	95 04       	cpc	r9, r5
    1536:	08 f4       	brcc	.+2      	; 0x153a <__udivdi3+0x8c6>
    1538:	f3 c1       	rjmp	.+998    	; 0x1920 <__udivdi3+0xcac>
    153a:	69 a8       	ldd	r6, Y+49	; 0x31
    153c:	7a a8       	ldd	r7, Y+50	; 0x32
    153e:	8b a8       	ldd	r8, Y+51	; 0x33
    1540:	9c a8       	ldd	r9, Y+52	; 0x34
    1542:	6a 14       	cp	r6, r10
    1544:	7b 04       	cpc	r7, r11
    1546:	8c 04       	cpc	r8, r12
    1548:	9d 04       	cpc	r9, r13
    154a:	08 f0       	brcs	.+2      	; 0x154e <__udivdi3+0x8da>
    154c:	e9 c1       	rjmp	.+978    	; 0x1920 <__udivdi3+0xcac>
    154e:	e3 c1       	rjmp	.+966    	; 0x1916 <__udivdi3+0xca2>
    1550:	9e 8f       	std	Y+30, r25	; 0x1e
    1552:	8d 8f       	std	Y+29, r24	; 0x1d
    1554:	e8 1a       	sub	r14, r24
    1556:	f9 0a       	sbc	r15, r25
    1558:	0a 0b       	sbc	r16, r26
    155a:	1b 0b       	sbc	r17, r27
    155c:	a8 01       	movw	r20, r16
    155e:	97 01       	movw	r18, r14
    1560:	86 01       	movw	r16, r12
    1562:	75 01       	movw	r14, r10
    1564:	02 2e       	mov	r0, r18
    1566:	04 c0       	rjmp	.+8      	; 0x1570 <__udivdi3+0x8fc>
    1568:	16 95       	lsr	r17
    156a:	07 95       	ror	r16
    156c:	f7 94       	ror	r15
    156e:	e7 94       	ror	r14
    1570:	0a 94       	dec	r0
    1572:	d2 f7       	brpl	.-12     	; 0x1568 <__udivdi3+0x8f4>
    1574:	d4 01       	movw	r26, r8
    1576:	c3 01       	movw	r24, r6
    1578:	0d 8c       	ldd	r0, Y+29	; 0x1d
    157a:	04 c0       	rjmp	.+8      	; 0x1584 <__udivdi3+0x910>
    157c:	88 0f       	add	r24, r24
    157e:	99 1f       	adc	r25, r25
    1580:	aa 1f       	adc	r26, r26
    1582:	bb 1f       	adc	r27, r27
    1584:	0a 94       	dec	r0
    1586:	d2 f7       	brpl	.-12     	; 0x157c <__udivdi3+0x908>
    1588:	37 01       	movw	r6, r14
    158a:	48 01       	movw	r8, r16
    158c:	68 2a       	or	r6, r24
    158e:	79 2a       	or	r7, r25
    1590:	8a 2a       	or	r8, r26
    1592:	9b 2a       	or	r9, r27
    1594:	0d 8c       	ldd	r0, Y+29	; 0x1d
    1596:	04 c0       	rjmp	.+8      	; 0x15a0 <__udivdi3+0x92c>
    1598:	aa 0c       	add	r10, r10
    159a:	bb 1c       	adc	r11, r11
    159c:	cc 1c       	adc	r12, r12
    159e:	dd 1c       	adc	r13, r13
    15a0:	0a 94       	dec	r0
    15a2:	d2 f7       	brpl	.-12     	; 0x1598 <__udivdi3+0x924>
    15a4:	a9 a2       	std	Y+33, r10	; 0x21
    15a6:	ba a2       	std	Y+34, r11	; 0x22
    15a8:	cb a2       	std	Y+35, r12	; 0x23
    15aa:	dc a2       	std	Y+36, r13	; 0x24
    15ac:	82 01       	movw	r16, r4
    15ae:	71 01       	movw	r14, r2
    15b0:	02 2e       	mov	r0, r18
    15b2:	04 c0       	rjmp	.+8      	; 0x15bc <__udivdi3+0x948>
    15b4:	16 95       	lsr	r17
    15b6:	07 95       	ror	r16
    15b8:	f7 94       	ror	r15
    15ba:	e7 94       	ror	r14
    15bc:	0a 94       	dec	r0
    15be:	d2 f7       	brpl	.-12     	; 0x15b4 <__udivdi3+0x940>
    15c0:	89 a9       	ldd	r24, Y+49	; 0x31
    15c2:	9a a9       	ldd	r25, Y+50	; 0x32
    15c4:	ab a9       	ldd	r26, Y+51	; 0x33
    15c6:	bc a9       	ldd	r27, Y+52	; 0x34
    15c8:	04 c0       	rjmp	.+8      	; 0x15d2 <__udivdi3+0x95e>
    15ca:	b6 95       	lsr	r27
    15cc:	a7 95       	ror	r26
    15ce:	97 95       	ror	r25
    15d0:	87 95       	ror	r24
    15d2:	2a 95       	dec	r18
    15d4:	d2 f7       	brpl	.-12     	; 0x15ca <__udivdi3+0x956>
    15d6:	9c 01       	movw	r18, r24
    15d8:	ad 01       	movw	r20, r26
    15da:	d2 01       	movw	r26, r4
    15dc:	c1 01       	movw	r24, r2
    15de:	0d 8c       	ldd	r0, Y+29	; 0x1d
    15e0:	04 c0       	rjmp	.+8      	; 0x15ea <__udivdi3+0x976>
    15e2:	88 0f       	add	r24, r24
    15e4:	99 1f       	adc	r25, r25
    15e6:	aa 1f       	adc	r26, r26
    15e8:	bb 1f       	adc	r27, r27
    15ea:	0a 94       	dec	r0
    15ec:	d2 f7       	brpl	.-12     	; 0x15e2 <__udivdi3+0x96e>
    15ee:	28 2b       	or	r18, r24
    15f0:	39 2b       	or	r19, r25
    15f2:	4a 2b       	or	r20, r26
    15f4:	5b 2b       	or	r21, r27
    15f6:	29 a7       	std	Y+41, r18	; 0x29
    15f8:	3a a7       	std	Y+42, r19	; 0x2a
    15fa:	4b a7       	std	Y+43, r20	; 0x2b
    15fc:	5c a7       	std	Y+44, r21	; 0x2c
    15fe:	94 01       	movw	r18, r8
    1600:	44 27       	eor	r20, r20
    1602:	55 27       	eor	r21, r21
    1604:	6d 96       	adiw	r28, 0x1d	; 29
    1606:	2c af       	std	Y+60, r18	; 0x3c
    1608:	3d af       	std	Y+61, r19	; 0x3d
    160a:	4e af       	std	Y+62, r20	; 0x3e
    160c:	5f af       	std	Y+63, r21	; 0x3f
    160e:	6d 97       	sbiw	r28, 0x1d	; 29
    1610:	6f ef       	ldi	r22, 0xFF	; 255
    1612:	26 2e       	mov	r2, r22
    1614:	6f ef       	ldi	r22, 0xFF	; 255
    1616:	36 2e       	mov	r3, r22
    1618:	41 2c       	mov	r4, r1
    161a:	51 2c       	mov	r5, r1
    161c:	26 20       	and	r2, r6
    161e:	37 20       	and	r3, r7
    1620:	48 20       	and	r4, r8
    1622:	59 20       	and	r5, r9
    1624:	c8 01       	movw	r24, r16
    1626:	b7 01       	movw	r22, r14
    1628:	0e 94 73 13 	call	0x26e6	; 0x26e6 <__udivmodsi4>
    162c:	a1 96       	adiw	r28, 0x21	; 33
    162e:	2c af       	std	Y+60, r18	; 0x3c
    1630:	3d af       	std	Y+61, r19	; 0x3d
    1632:	4e af       	std	Y+62, r20	; 0x3e
    1634:	5f af       	std	Y+63, r21	; 0x3f
    1636:	a1 97       	sbiw	r28, 0x21	; 33
    1638:	ca 01       	movw	r24, r20
    163a:	b9 01       	movw	r22, r18
    163c:	a2 01       	movw	r20, r4
    163e:	91 01       	movw	r18, r2
    1640:	0e 94 54 13 	call	0x26a8	; 0x26a8 <__mulsi3>
    1644:	5b 01       	movw	r10, r22
    1646:	6c 01       	movw	r12, r24
    1648:	c8 01       	movw	r24, r16
    164a:	b7 01       	movw	r22, r14
    164c:	6d 96       	adiw	r28, 0x1d	; 29
    164e:	2c ad       	ldd	r18, Y+60	; 0x3c
    1650:	3d ad       	ldd	r19, Y+61	; 0x3d
    1652:	4e ad       	ldd	r20, Y+62	; 0x3e
    1654:	5f ad       	ldd	r21, Y+63	; 0x3f
    1656:	6d 97       	sbiw	r28, 0x1d	; 29
    1658:	0e 94 73 13 	call	0x26e6	; 0x26e6 <__udivmodsi4>
    165c:	cb 01       	movw	r24, r22
    165e:	77 27       	eor	r23, r23
    1660:	66 27       	eor	r22, r22
    1662:	e9 a4       	ldd	r14, Y+41	; 0x29
    1664:	fa a4       	ldd	r15, Y+42	; 0x2a
    1666:	0b a5       	ldd	r16, Y+43	; 0x2b
    1668:	1c a5       	ldd	r17, Y+44	; 0x2c
    166a:	98 01       	movw	r18, r16
    166c:	44 27       	eor	r20, r20
    166e:	55 27       	eor	r21, r21
    1670:	7b 01       	movw	r14, r22
    1672:	8c 01       	movw	r16, r24
    1674:	e2 2a       	or	r14, r18
    1676:	f3 2a       	or	r15, r19
    1678:	04 2b       	or	r16, r20
    167a:	15 2b       	or	r17, r21
    167c:	ea 14       	cp	r14, r10
    167e:	fb 04       	cpc	r15, r11
    1680:	0c 05       	cpc	r16, r12
    1682:	1d 05       	cpc	r17, r13
    1684:	60 f5       	brcc	.+88     	; 0x16de <__udivdi3+0xa6a>
    1686:	a1 96       	adiw	r28, 0x21	; 33
    1688:	2c ad       	ldd	r18, Y+60	; 0x3c
    168a:	3d ad       	ldd	r19, Y+61	; 0x3d
    168c:	4e ad       	ldd	r20, Y+62	; 0x3e
    168e:	5f ad       	ldd	r21, Y+63	; 0x3f
    1690:	a1 97       	sbiw	r28, 0x21	; 33
    1692:	21 50       	subi	r18, 0x01	; 1
    1694:	30 40       	sbci	r19, 0x00	; 0
    1696:	40 40       	sbci	r20, 0x00	; 0
    1698:	50 40       	sbci	r21, 0x00	; 0
    169a:	a1 96       	adiw	r28, 0x21	; 33
    169c:	2c af       	std	Y+60, r18	; 0x3c
    169e:	3d af       	std	Y+61, r19	; 0x3d
    16a0:	4e af       	std	Y+62, r20	; 0x3e
    16a2:	5f af       	std	Y+63, r21	; 0x3f
    16a4:	a1 97       	sbiw	r28, 0x21	; 33
    16a6:	e6 0c       	add	r14, r6
    16a8:	f7 1c       	adc	r15, r7
    16aa:	08 1d       	adc	r16, r8
    16ac:	19 1d       	adc	r17, r9
    16ae:	e6 14       	cp	r14, r6
    16b0:	f7 04       	cpc	r15, r7
    16b2:	08 05       	cpc	r16, r8
    16b4:	19 05       	cpc	r17, r9
    16b6:	98 f0       	brcs	.+38     	; 0x16de <__udivdi3+0xa6a>
    16b8:	ea 14       	cp	r14, r10
    16ba:	fb 04       	cpc	r15, r11
    16bc:	0c 05       	cpc	r16, r12
    16be:	1d 05       	cpc	r17, r13
    16c0:	70 f4       	brcc	.+28     	; 0x16de <__udivdi3+0xa6a>
    16c2:	21 50       	subi	r18, 0x01	; 1
    16c4:	30 40       	sbci	r19, 0x00	; 0
    16c6:	40 40       	sbci	r20, 0x00	; 0
    16c8:	50 40       	sbci	r21, 0x00	; 0
    16ca:	a1 96       	adiw	r28, 0x21	; 33
    16cc:	2c af       	std	Y+60, r18	; 0x3c
    16ce:	3d af       	std	Y+61, r19	; 0x3d
    16d0:	4e af       	std	Y+62, r20	; 0x3e
    16d2:	5f af       	std	Y+63, r21	; 0x3f
    16d4:	a1 97       	sbiw	r28, 0x21	; 33
    16d6:	e6 0c       	add	r14, r6
    16d8:	f7 1c       	adc	r15, r7
    16da:	08 1d       	adc	r16, r8
    16dc:	19 1d       	adc	r17, r9
    16de:	ea 18       	sub	r14, r10
    16e0:	fb 08       	sbc	r15, r11
    16e2:	0c 09       	sbc	r16, r12
    16e4:	1d 09       	sbc	r17, r13
    16e6:	c8 01       	movw	r24, r16
    16e8:	b7 01       	movw	r22, r14
    16ea:	6d 96       	adiw	r28, 0x1d	; 29
    16ec:	2c ad       	ldd	r18, Y+60	; 0x3c
    16ee:	3d ad       	ldd	r19, Y+61	; 0x3d
    16f0:	4e ad       	ldd	r20, Y+62	; 0x3e
    16f2:	5f ad       	ldd	r21, Y+63	; 0x3f
    16f4:	6d 97       	sbiw	r28, 0x1d	; 29
    16f6:	0e 94 73 13 	call	0x26e6	; 0x26e6 <__udivmodsi4>
    16fa:	59 01       	movw	r10, r18
    16fc:	6a 01       	movw	r12, r20
    16fe:	ca 01       	movw	r24, r20
    1700:	b9 01       	movw	r22, r18
    1702:	a2 01       	movw	r20, r4
    1704:	91 01       	movw	r18, r2
    1706:	0e 94 54 13 	call	0x26a8	; 0x26a8 <__mulsi3>
    170a:	1b 01       	movw	r2, r22
    170c:	2c 01       	movw	r4, r24
    170e:	c8 01       	movw	r24, r16
    1710:	b7 01       	movw	r22, r14
    1712:	6d 96       	adiw	r28, 0x1d	; 29
    1714:	2c ad       	ldd	r18, Y+60	; 0x3c
    1716:	3d ad       	ldd	r19, Y+61	; 0x3d
    1718:	4e ad       	ldd	r20, Y+62	; 0x3e
    171a:	5f ad       	ldd	r21, Y+63	; 0x3f
    171c:	6d 97       	sbiw	r28, 0x1d	; 29
    171e:	0e 94 73 13 	call	0x26e6	; 0x26e6 <__udivmodsi4>
    1722:	cb 01       	movw	r24, r22
    1724:	77 27       	eor	r23, r23
    1726:	66 27       	eor	r22, r22
    1728:	29 a5       	ldd	r18, Y+41	; 0x29
    172a:	3a a5       	ldd	r19, Y+42	; 0x2a
    172c:	4b a5       	ldd	r20, Y+43	; 0x2b
    172e:	5c a5       	ldd	r21, Y+44	; 0x2c
    1730:	40 70       	andi	r20, 0x00	; 0
    1732:	50 70       	andi	r21, 0x00	; 0
    1734:	7b 01       	movw	r14, r22
    1736:	8c 01       	movw	r16, r24
    1738:	e2 2a       	or	r14, r18
    173a:	f3 2a       	or	r15, r19
    173c:	04 2b       	or	r16, r20
    173e:	15 2b       	or	r17, r21
    1740:	e2 14       	cp	r14, r2
    1742:	f3 04       	cpc	r15, r3
    1744:	04 05       	cpc	r16, r4
    1746:	15 05       	cpc	r17, r5
    1748:	e0 f4       	brcc	.+56     	; 0x1782 <__udivdi3+0xb0e>
    174a:	08 94       	sec
    174c:	a1 08       	sbc	r10, r1
    174e:	b1 08       	sbc	r11, r1
    1750:	c1 08       	sbc	r12, r1
    1752:	d1 08       	sbc	r13, r1
    1754:	e6 0c       	add	r14, r6
    1756:	f7 1c       	adc	r15, r7
    1758:	08 1d       	adc	r16, r8
    175a:	19 1d       	adc	r17, r9
    175c:	e6 14       	cp	r14, r6
    175e:	f7 04       	cpc	r15, r7
    1760:	08 05       	cpc	r16, r8
    1762:	19 05       	cpc	r17, r9
    1764:	70 f0       	brcs	.+28     	; 0x1782 <__udivdi3+0xb0e>
    1766:	e2 14       	cp	r14, r2
    1768:	f3 04       	cpc	r15, r3
    176a:	04 05       	cpc	r16, r4
    176c:	15 05       	cpc	r17, r5
    176e:	48 f4       	brcc	.+18     	; 0x1782 <__udivdi3+0xb0e>
    1770:	08 94       	sec
    1772:	a1 08       	sbc	r10, r1
    1774:	b1 08       	sbc	r11, r1
    1776:	c1 08       	sbc	r12, r1
    1778:	d1 08       	sbc	r13, r1
    177a:	e6 0c       	add	r14, r6
    177c:	f7 1c       	adc	r15, r7
    177e:	08 1d       	adc	r16, r8
    1780:	19 1d       	adc	r17, r9
    1782:	e2 18       	sub	r14, r2
    1784:	f3 08       	sbc	r15, r3
    1786:	04 09       	sbc	r16, r4
    1788:	15 09       	sbc	r17, r5
    178a:	ed a2       	std	Y+37, r14	; 0x25
    178c:	fe a2       	std	Y+38, r15	; 0x26
    178e:	0f a3       	std	Y+39, r16	; 0x27
    1790:	18 a7       	std	Y+40, r17	; 0x28
    1792:	a1 96       	adiw	r28, 0x21	; 33
    1794:	6c ac       	ldd	r6, Y+60	; 0x3c
    1796:	7d ac       	ldd	r7, Y+61	; 0x3d
    1798:	8e ac       	ldd	r8, Y+62	; 0x3e
    179a:	9f ac       	ldd	r9, Y+63	; 0x3f
    179c:	a1 97       	sbiw	r28, 0x21	; 33
    179e:	d3 01       	movw	r26, r6
    17a0:	99 27       	eor	r25, r25
    17a2:	88 27       	eor	r24, r24
    17a4:	a8 2a       	or	r10, r24
    17a6:	b9 2a       	or	r11, r25
    17a8:	ca 2a       	or	r12, r26
    17aa:	db 2a       	or	r13, r27
    17ac:	ad aa       	std	Y+53, r10	; 0x35
    17ae:	be aa       	std	Y+54, r11	; 0x36
    17b0:	cf aa       	std	Y+55, r12	; 0x37
    17b2:	d8 ae       	std	Y+56, r13	; 0x38
    17b4:	86 01       	movw	r16, r12
    17b6:	75 01       	movw	r14, r10
    17b8:	2f ef       	ldi	r18, 0xFF	; 255
    17ba:	3f ef       	ldi	r19, 0xFF	; 255
    17bc:	40 e0       	ldi	r20, 0x00	; 0
    17be:	50 e0       	ldi	r21, 0x00	; 0
    17c0:	e2 22       	and	r14, r18
    17c2:	f3 22       	and	r15, r19
    17c4:	04 23       	and	r16, r20
    17c6:	15 23       	and	r17, r21
    17c8:	c6 01       	movw	r24, r12
    17ca:	aa 27       	eor	r26, r26
    17cc:	bb 27       	eor	r27, r27
    17ce:	a9 96       	adiw	r28, 0x29	; 41
    17d0:	8c af       	std	Y+60, r24	; 0x3c
    17d2:	9d af       	std	Y+61, r25	; 0x3d
    17d4:	ae af       	std	Y+62, r26	; 0x3e
    17d6:	bf af       	std	Y+63, r27	; 0x3f
    17d8:	a9 97       	sbiw	r28, 0x29	; 41
    17da:	a9 a0       	ldd	r10, Y+33	; 0x21
    17dc:	ba a0       	ldd	r11, Y+34	; 0x22
    17de:	cb a0       	ldd	r12, Y+35	; 0x23
    17e0:	dc a0       	ldd	r13, Y+36	; 0x24
    17e2:	a2 22       	and	r10, r18
    17e4:	b3 22       	and	r11, r19
    17e6:	c4 22       	and	r12, r20
    17e8:	d5 22       	and	r13, r21
    17ea:	69 a0       	ldd	r6, Y+33	; 0x21
    17ec:	7a a0       	ldd	r7, Y+34	; 0x22
    17ee:	8b a0       	ldd	r8, Y+35	; 0x23
    17f0:	9c a0       	ldd	r9, Y+36	; 0x24
    17f2:	14 01       	movw	r2, r8
    17f4:	44 24       	eor	r4, r4
    17f6:	55 24       	eor	r5, r5
    17f8:	c8 01       	movw	r24, r16
    17fa:	b7 01       	movw	r22, r14
    17fc:	a6 01       	movw	r20, r12
    17fe:	95 01       	movw	r18, r10
    1800:	0e 94 54 13 	call	0x26a8	; 0x26a8 <__mulsi3>
    1804:	a5 96       	adiw	r28, 0x25	; 37
    1806:	6c af       	std	Y+60, r22	; 0x3c
    1808:	7d af       	std	Y+61, r23	; 0x3d
    180a:	8e af       	std	Y+62, r24	; 0x3e
    180c:	9f af       	std	Y+63, r25	; 0x3f
    180e:	a5 97       	sbiw	r28, 0x25	; 37
    1810:	c8 01       	movw	r24, r16
    1812:	b7 01       	movw	r22, r14
    1814:	a2 01       	movw	r20, r4
    1816:	91 01       	movw	r18, r2
    1818:	0e 94 54 13 	call	0x26a8	; 0x26a8 <__mulsi3>
    181c:	3b 01       	movw	r6, r22
    181e:	4c 01       	movw	r8, r24
    1820:	a9 96       	adiw	r28, 0x29	; 41
    1822:	6c ad       	ldd	r22, Y+60	; 0x3c
    1824:	7d ad       	ldd	r23, Y+61	; 0x3d
    1826:	8e ad       	ldd	r24, Y+62	; 0x3e
    1828:	9f ad       	ldd	r25, Y+63	; 0x3f
    182a:	a9 97       	sbiw	r28, 0x29	; 41
    182c:	a6 01       	movw	r20, r12
    182e:	95 01       	movw	r18, r10
    1830:	0e 94 54 13 	call	0x26a8	; 0x26a8 <__mulsi3>
    1834:	7b 01       	movw	r14, r22
    1836:	8c 01       	movw	r16, r24
    1838:	a9 96       	adiw	r28, 0x29	; 41
    183a:	6c ad       	ldd	r22, Y+60	; 0x3c
    183c:	7d ad       	ldd	r23, Y+61	; 0x3d
    183e:	8e ad       	ldd	r24, Y+62	; 0x3e
    1840:	9f ad       	ldd	r25, Y+63	; 0x3f
    1842:	a9 97       	sbiw	r28, 0x29	; 41
    1844:	a2 01       	movw	r20, r4
    1846:	91 01       	movw	r18, r2
    1848:	0e 94 54 13 	call	0x26a8	; 0x26a8 <__mulsi3>
    184c:	5b 01       	movw	r10, r22
    184e:	6c 01       	movw	r12, r24
    1850:	a8 01       	movw	r20, r16
    1852:	97 01       	movw	r18, r14
    1854:	26 0d       	add	r18, r6
    1856:	37 1d       	adc	r19, r7
    1858:	48 1d       	adc	r20, r8
    185a:	59 1d       	adc	r21, r9
    185c:	a5 96       	adiw	r28, 0x25	; 37
    185e:	6c ac       	ldd	r6, Y+60	; 0x3c
    1860:	7d ac       	ldd	r7, Y+61	; 0x3d
    1862:	8e ac       	ldd	r8, Y+62	; 0x3e
    1864:	9f ac       	ldd	r9, Y+63	; 0x3f
    1866:	a5 97       	sbiw	r28, 0x25	; 37
    1868:	c4 01       	movw	r24, r8
    186a:	aa 27       	eor	r26, r26
    186c:	bb 27       	eor	r27, r27
    186e:	28 0f       	add	r18, r24
    1870:	39 1f       	adc	r19, r25
    1872:	4a 1f       	adc	r20, r26
    1874:	5b 1f       	adc	r21, r27
    1876:	2e 15       	cp	r18, r14
    1878:	3f 05       	cpc	r19, r15
    187a:	40 07       	cpc	r20, r16
    187c:	51 07       	cpc	r21, r17
    187e:	48 f4       	brcc	.+18     	; 0x1892 <__udivdi3+0xc1e>
    1880:	e1 2c       	mov	r14, r1
    1882:	f1 2c       	mov	r15, r1
    1884:	61 e0       	ldi	r22, 0x01	; 1
    1886:	06 2f       	mov	r16, r22
    1888:	11 2d       	mov	r17, r1
    188a:	ae 0c       	add	r10, r14
    188c:	bf 1c       	adc	r11, r15
    188e:	c0 1e       	adc	r12, r16
    1890:	d1 1e       	adc	r13, r17
    1892:	ca 01       	movw	r24, r20
    1894:	aa 27       	eor	r26, r26
    1896:	bb 27       	eor	r27, r27
    1898:	a8 0e       	add	r10, r24
    189a:	b9 1e       	adc	r11, r25
    189c:	ca 1e       	adc	r12, r26
    189e:	db 1e       	adc	r13, r27
    18a0:	6d a0       	ldd	r6, Y+37	; 0x25
    18a2:	7e a0       	ldd	r7, Y+38	; 0x26
    18a4:	8f a0       	ldd	r8, Y+39	; 0x27
    18a6:	98 a4       	ldd	r9, Y+40	; 0x28
    18a8:	6a 14       	cp	r6, r10
    18aa:	7b 04       	cpc	r7, r11
    18ac:	8c 04       	cpc	r8, r12
    18ae:	9d 04       	cpc	r9, r13
    18b0:	28 f1       	brcs	.+74     	; 0x18fc <__udivdi3+0xc88>
    18b2:	a6 14       	cp	r10, r6
    18b4:	b7 04       	cpc	r11, r7
    18b6:	c8 04       	cpc	r12, r8
    18b8:	d9 04       	cpc	r13, r9
    18ba:	d1 f5       	brne	.+116    	; 0x1930 <__udivdi3+0xcbc>
    18bc:	d9 01       	movw	r26, r18
    18be:	99 27       	eor	r25, r25
    18c0:	88 27       	eor	r24, r24
    18c2:	a5 96       	adiw	r28, 0x25	; 37
    18c4:	2c ad       	ldd	r18, Y+60	; 0x3c
    18c6:	3d ad       	ldd	r19, Y+61	; 0x3d
    18c8:	4e ad       	ldd	r20, Y+62	; 0x3e
    18ca:	5f ad       	ldd	r21, Y+63	; 0x3f
    18cc:	a5 97       	sbiw	r28, 0x25	; 37
    18ce:	40 70       	andi	r20, 0x00	; 0
    18d0:	50 70       	andi	r21, 0x00	; 0
    18d2:	82 0f       	add	r24, r18
    18d4:	93 1f       	adc	r25, r19
    18d6:	a4 1f       	adc	r26, r20
    18d8:	b5 1f       	adc	r27, r21
    18da:	29 a9       	ldd	r18, Y+49	; 0x31
    18dc:	3a a9       	ldd	r19, Y+50	; 0x32
    18de:	4b a9       	ldd	r20, Y+51	; 0x33
    18e0:	5c a9       	ldd	r21, Y+52	; 0x34
    18e2:	0d 8c       	ldd	r0, Y+29	; 0x1d
    18e4:	04 c0       	rjmp	.+8      	; 0x18ee <__udivdi3+0xc7a>
    18e6:	22 0f       	add	r18, r18
    18e8:	33 1f       	adc	r19, r19
    18ea:	44 1f       	adc	r20, r20
    18ec:	55 1f       	adc	r21, r21
    18ee:	0a 94       	dec	r0
    18f0:	d2 f7       	brpl	.-12     	; 0x18e6 <__udivdi3+0xc72>
    18f2:	28 17       	cp	r18, r24
    18f4:	39 07       	cpc	r19, r25
    18f6:	4a 07       	cpc	r20, r26
    18f8:	5b 07       	cpc	r21, r27
    18fa:	d0 f4       	brcc	.+52     	; 0x1930 <__udivdi3+0xcbc>
    18fc:	0d a9       	ldd	r16, Y+53	; 0x35
    18fe:	1e a9       	ldd	r17, Y+54	; 0x36
    1900:	2f a9       	ldd	r18, Y+55	; 0x37
    1902:	38 ad       	ldd	r19, Y+56	; 0x38
    1904:	01 50       	subi	r16, 0x01	; 1
    1906:	10 40       	sbci	r17, 0x00	; 0
    1908:	20 40       	sbci	r18, 0x00	; 0
    190a:	30 40       	sbci	r19, 0x00	; 0
    190c:	0d ab       	std	Y+53, r16	; 0x35
    190e:	1e ab       	std	Y+54, r17	; 0x36
    1910:	2f ab       	std	Y+55, r18	; 0x37
    1912:	38 af       	std	Y+56, r19	; 0x38
    1914:	0d c0       	rjmp	.+26     	; 0x1930 <__udivdi3+0xcbc>
    1916:	1d aa       	std	Y+53, r1	; 0x35
    1918:	1e aa       	std	Y+54, r1	; 0x36
    191a:	1f aa       	std	Y+55, r1	; 0x37
    191c:	18 ae       	std	Y+56, r1	; 0x38
    191e:	08 c0       	rjmp	.+16     	; 0x1930 <__udivdi3+0xcbc>
    1920:	21 e0       	ldi	r18, 0x01	; 1
    1922:	30 e0       	ldi	r19, 0x00	; 0
    1924:	40 e0       	ldi	r20, 0x00	; 0
    1926:	50 e0       	ldi	r21, 0x00	; 0
    1928:	2d ab       	std	Y+53, r18	; 0x35
    192a:	3e ab       	std	Y+54, r19	; 0x36
    192c:	4f ab       	std	Y+55, r20	; 0x37
    192e:	58 af       	std	Y+56, r21	; 0x38
    1930:	19 ae       	std	Y+57, r1	; 0x39
    1932:	1a ae       	std	Y+58, r1	; 0x3a
    1934:	1b ae       	std	Y+59, r1	; 0x3b
    1936:	1c ae       	std	Y+60, r1	; 0x3c
    1938:	88 e0       	ldi	r24, 0x08	; 8
    193a:	fe 01       	movw	r30, r28
    193c:	71 96       	adiw	r30, 0x11	; 17
    193e:	11 92       	st	Z+, r1
    1940:	8a 95       	dec	r24
    1942:	e9 f7       	brne	.-6      	; 0x193e <__udivdi3+0xcca>
    1944:	8d a9       	ldd	r24, Y+53	; 0x35
    1946:	9e a9       	ldd	r25, Y+54	; 0x36
    1948:	af a9       	ldd	r26, Y+55	; 0x37
    194a:	b8 ad       	ldd	r27, Y+56	; 0x38
    194c:	89 8b       	std	Y+17, r24	; 0x11
    194e:	9a 8b       	std	Y+18, r25	; 0x12
    1950:	ab 8b       	std	Y+19, r26	; 0x13
    1952:	bc 8b       	std	Y+20, r27	; 0x14
    1954:	69 ac       	ldd	r6, Y+57	; 0x39
    1956:	7a ac       	ldd	r7, Y+58	; 0x3a
    1958:	8b ac       	ldd	r8, Y+59	; 0x3b
    195a:	9c ac       	ldd	r9, Y+60	; 0x3c
    195c:	6d 8a       	std	Y+21, r6	; 0x15
    195e:	7e 8a       	std	Y+22, r7	; 0x16
    1960:	8f 8a       	std	Y+23, r8	; 0x17
    1962:	98 8e       	std	Y+24, r9	; 0x18
    1964:	29 88       	ldd	r2, Y+17	; 0x11
    1966:	3a 88       	ldd	r3, Y+18	; 0x12
    1968:	4b 88       	ldd	r4, Y+19	; 0x13
    196a:	5c 88       	ldd	r5, Y+20	; 0x14
    196c:	6d 88       	ldd	r6, Y+21	; 0x15
    196e:	7e 88       	ldd	r7, Y+22	; 0x16
    1970:	8f 88       	ldd	r8, Y+23	; 0x17
    1972:	98 8c       	ldd	r9, Y+24	; 0x18
    1974:	22 2d       	mov	r18, r2
    1976:	33 2d       	mov	r19, r3
    1978:	44 2d       	mov	r20, r4
    197a:	55 2d       	mov	r21, r5
    197c:	66 2d       	mov	r22, r6
    197e:	77 2d       	mov	r23, r7
    1980:	88 2d       	mov	r24, r8
    1982:	99 2d       	mov	r25, r9
    1984:	e2 e1       	ldi	r30, 0x12	; 18
    1986:	c4 59       	subi	r28, 0x94	; 148
    1988:	df 4f       	sbci	r29, 0xFF	; 255
    198a:	0c 94 b1 13 	jmp	0x2762	; 0x2762 <__epilogue_restores__>

0000198e <__umoddi3>:
    198e:	ae e5       	ldi	r26, 0x5E	; 94
    1990:	b0 e0       	ldi	r27, 0x00	; 0
    1992:	ed ec       	ldi	r30, 0xCD	; 205
    1994:	fc e0       	ldi	r31, 0x0C	; 12
    1996:	0c 94 95 13 	jmp	0x272a	; 0x272a <__prologue_saves__>
    199a:	22 2e       	mov	r2, r18
    199c:	33 2e       	mov	r3, r19
    199e:	44 2e       	mov	r4, r20
    19a0:	55 2e       	mov	r5, r21
    19a2:	66 2e       	mov	r6, r22
    19a4:	77 2e       	mov	r7, r23
    19a6:	88 2e       	mov	r8, r24
    19a8:	99 2e       	mov	r9, r25
    19aa:	2a 2d       	mov	r18, r10
    19ac:	a8 e0       	ldi	r26, 0x08	; 8
    19ae:	fe 01       	movw	r30, r28
    19b0:	31 96       	adiw	r30, 0x01	; 1
    19b2:	aa 2e       	mov	r10, r26
    19b4:	11 92       	st	Z+, r1
    19b6:	aa 94       	dec	r10
    19b8:	e9 f7       	brne	.-6      	; 0x19b4 <__umoddi3+0x26>
    19ba:	29 82       	std	Y+1, r2	; 0x01
    19bc:	3a 82       	std	Y+2, r3	; 0x02
    19be:	4b 82       	std	Y+3, r4	; 0x03
    19c0:	5c 82       	std	Y+4, r5	; 0x04
    19c2:	6d 82       	std	Y+5, r6	; 0x05
    19c4:	7e 82       	std	Y+6, r7	; 0x06
    19c6:	8f 82       	std	Y+7, r8	; 0x07
    19c8:	98 86       	std	Y+8, r9	; 0x08
    19ca:	fe 01       	movw	r30, r28
    19cc:	39 96       	adiw	r30, 0x09	; 9
    19ce:	11 92       	st	Z+, r1
    19d0:	aa 95       	dec	r26
    19d2:	e9 f7       	brne	.-6      	; 0x19ce <__umoddi3+0x40>
    19d4:	29 87       	std	Y+9, r18	; 0x09
    19d6:	ba 86       	std	Y+10, r11	; 0x0a
    19d8:	cb 86       	std	Y+11, r12	; 0x0b
    19da:	dc 86       	std	Y+12, r13	; 0x0c
    19dc:	ed 86       	std	Y+13, r14	; 0x0d
    19de:	fe 86       	std	Y+14, r15	; 0x0e
    19e0:	0f 87       	std	Y+15, r16	; 0x0f
    19e2:	18 8b       	std	Y+16, r17	; 0x10
    19e4:	a9 84       	ldd	r10, Y+9	; 0x09
    19e6:	ba 84       	ldd	r11, Y+10	; 0x0a
    19e8:	cb 84       	ldd	r12, Y+11	; 0x0b
    19ea:	dc 84       	ldd	r13, Y+12	; 0x0c
    19ec:	ed 84       	ldd	r14, Y+13	; 0x0d
    19ee:	fe 84       	ldd	r15, Y+14	; 0x0e
    19f0:	0f 85       	ldd	r16, Y+15	; 0x0f
    19f2:	18 89       	ldd	r17, Y+16	; 0x10
    19f4:	29 81       	ldd	r18, Y+1	; 0x01
    19f6:	3a 81       	ldd	r19, Y+2	; 0x02
    19f8:	4b 81       	ldd	r20, Y+3	; 0x03
    19fa:	5c 81       	ldd	r21, Y+4	; 0x04
    19fc:	2f a3       	std	Y+39, r18	; 0x27
    19fe:	38 a7       	std	Y+40, r19	; 0x28
    1a00:	49 a7       	std	Y+41, r20	; 0x29
    1a02:	5a a7       	std	Y+42, r21	; 0x2a
    1a04:	6d 80       	ldd	r6, Y+5	; 0x05
    1a06:	7e 80       	ldd	r7, Y+6	; 0x06
    1a08:	8f 80       	ldd	r8, Y+7	; 0x07
    1a0a:	98 84       	ldd	r9, Y+8	; 0x08
    1a0c:	e1 14       	cp	r14, r1
    1a0e:	f1 04       	cpc	r15, r1
    1a10:	01 05       	cpc	r16, r1
    1a12:	11 05       	cpc	r17, r1
    1a14:	09 f0       	breq	.+2      	; 0x1a18 <__umoddi3+0x8a>
    1a16:	f2 c2       	rjmp	.+1508   	; 0x1ffc <__umoddi3+0x66e>
    1a18:	6a 14       	cp	r6, r10
    1a1a:	7b 04       	cpc	r7, r11
    1a1c:	8c 04       	cpc	r8, r12
    1a1e:	9d 04       	cpc	r9, r13
    1a20:	08 f0       	brcs	.+2      	; 0x1a24 <__umoddi3+0x96>
    1a22:	00 c1       	rjmp	.+512    	; 0x1c24 <__umoddi3+0x296>
    1a24:	30 e0       	ldi	r19, 0x00	; 0
    1a26:	a3 16       	cp	r10, r19
    1a28:	30 e0       	ldi	r19, 0x00	; 0
    1a2a:	b3 06       	cpc	r11, r19
    1a2c:	31 e0       	ldi	r19, 0x01	; 1
    1a2e:	c3 06       	cpc	r12, r19
    1a30:	30 e0       	ldi	r19, 0x00	; 0
    1a32:	d3 06       	cpc	r13, r19
    1a34:	88 f4       	brcc	.+34     	; 0x1a58 <__umoddi3+0xca>
    1a36:	4f ef       	ldi	r20, 0xFF	; 255
    1a38:	a4 16       	cp	r10, r20
    1a3a:	b1 04       	cpc	r11, r1
    1a3c:	c1 04       	cpc	r12, r1
    1a3e:	d1 04       	cpc	r13, r1
    1a40:	09 f0       	breq	.+2      	; 0x1a44 <__umoddi3+0xb6>
    1a42:	28 f4       	brcc	.+10     	; 0x1a4e <__umoddi3+0xc0>
    1a44:	20 e0       	ldi	r18, 0x00	; 0
    1a46:	30 e0       	ldi	r19, 0x00	; 0
    1a48:	40 e0       	ldi	r20, 0x00	; 0
    1a4a:	50 e0       	ldi	r21, 0x00	; 0
    1a4c:	17 c0       	rjmp	.+46     	; 0x1a7c <__umoddi3+0xee>
    1a4e:	28 e0       	ldi	r18, 0x08	; 8
    1a50:	30 e0       	ldi	r19, 0x00	; 0
    1a52:	40 e0       	ldi	r20, 0x00	; 0
    1a54:	50 e0       	ldi	r21, 0x00	; 0
    1a56:	12 c0       	rjmp	.+36     	; 0x1a7c <__umoddi3+0xee>
    1a58:	50 e0       	ldi	r21, 0x00	; 0
    1a5a:	a5 16       	cp	r10, r21
    1a5c:	50 e0       	ldi	r21, 0x00	; 0
    1a5e:	b5 06       	cpc	r11, r21
    1a60:	50 e0       	ldi	r21, 0x00	; 0
    1a62:	c5 06       	cpc	r12, r21
    1a64:	51 e0       	ldi	r21, 0x01	; 1
    1a66:	d5 06       	cpc	r13, r21
    1a68:	28 f4       	brcc	.+10     	; 0x1a74 <__umoddi3+0xe6>
    1a6a:	20 e1       	ldi	r18, 0x10	; 16
    1a6c:	30 e0       	ldi	r19, 0x00	; 0
    1a6e:	40 e0       	ldi	r20, 0x00	; 0
    1a70:	50 e0       	ldi	r21, 0x00	; 0
    1a72:	04 c0       	rjmp	.+8      	; 0x1a7c <__umoddi3+0xee>
    1a74:	28 e1       	ldi	r18, 0x18	; 24
    1a76:	30 e0       	ldi	r19, 0x00	; 0
    1a78:	40 e0       	ldi	r20, 0x00	; 0
    1a7a:	50 e0       	ldi	r21, 0x00	; 0
    1a7c:	80 e2       	ldi	r24, 0x20	; 32
    1a7e:	90 e0       	ldi	r25, 0x00	; 0
    1a80:	a0 e0       	ldi	r26, 0x00	; 0
    1a82:	b0 e0       	ldi	r27, 0x00	; 0
    1a84:	82 1b       	sub	r24, r18
    1a86:	93 0b       	sbc	r25, r19
    1a88:	a4 0b       	sbc	r26, r20
    1a8a:	b5 0b       	sbc	r27, r21
    1a8c:	15 01       	movw	r2, r10
    1a8e:	26 01       	movw	r4, r12
    1a90:	04 c0       	rjmp	.+8      	; 0x1a9a <__umoddi3+0x10c>
    1a92:	56 94       	lsr	r5
    1a94:	47 94       	ror	r4
    1a96:	37 94       	ror	r3
    1a98:	27 94       	ror	r2
    1a9a:	2a 95       	dec	r18
    1a9c:	d2 f7       	brpl	.-12     	; 0x1a92 <__umoddi3+0x104>
    1a9e:	a2 01       	movw	r20, r4
    1aa0:	91 01       	movw	r18, r2
    1aa2:	2e 5d       	subi	r18, 0xDE	; 222
    1aa4:	3d 4f       	sbci	r19, 0xFD	; 253
    1aa6:	f9 01       	movw	r30, r18
    1aa8:	20 81       	ld	r18, Z
    1aaa:	82 1b       	sub	r24, r18
    1aac:	91 09       	sbc	r25, r1
    1aae:	a1 09       	sbc	r26, r1
    1ab0:	b1 09       	sbc	r27, r1
    1ab2:	8b af       	std	Y+59, r24	; 0x3b
    1ab4:	9c af       	std	Y+60, r25	; 0x3c
    1ab6:	ad af       	std	Y+61, r26	; 0x3d
    1ab8:	be af       	std	Y+62, r27	; 0x3e
    1aba:	00 97       	sbiw	r24, 0x00	; 0
    1abc:	a1 05       	cpc	r26, r1
    1abe:	b1 05       	cpc	r27, r1
    1ac0:	d1 f1       	breq	.+116    	; 0x1b36 <__umoddi3+0x1a8>
    1ac2:	8b ad       	ldd	r24, Y+59	; 0x3b
    1ac4:	9c ad       	ldd	r25, Y+60	; 0x3c
    1ac6:	08 2e       	mov	r0, r24
    1ac8:	04 c0       	rjmp	.+8      	; 0x1ad2 <__umoddi3+0x144>
    1aca:	aa 0c       	add	r10, r10
    1acc:	bb 1c       	adc	r11, r11
    1ace:	cc 1c       	adc	r12, r12
    1ad0:	dd 1c       	adc	r13, r13
    1ad2:	0a 94       	dec	r0
    1ad4:	d2 f7       	brpl	.-12     	; 0x1aca <__umoddi3+0x13c>
    1ad6:	20 e2       	ldi	r18, 0x20	; 32
    1ad8:	30 e0       	ldi	r19, 0x00	; 0
    1ada:	28 1b       	sub	r18, r24
    1adc:	39 0b       	sbc	r19, r25
    1ade:	ef a0       	ldd	r14, Y+39	; 0x27
    1ae0:	f8 a4       	ldd	r15, Y+40	; 0x28
    1ae2:	09 a5       	ldd	r16, Y+41	; 0x29
    1ae4:	1a a5       	ldd	r17, Y+42	; 0x2a
    1ae6:	04 c0       	rjmp	.+8      	; 0x1af0 <__umoddi3+0x162>
    1ae8:	16 95       	lsr	r17
    1aea:	07 95       	ror	r16
    1aec:	f7 94       	ror	r15
    1aee:	e7 94       	ror	r14
    1af0:	2a 95       	dec	r18
    1af2:	d2 f7       	brpl	.-12     	; 0x1ae8 <__umoddi3+0x15a>
    1af4:	a8 01       	movw	r20, r16
    1af6:	97 01       	movw	r18, r14
    1af8:	84 01       	movw	r16, r8
    1afa:	73 01       	movw	r14, r6
    1afc:	08 2e       	mov	r0, r24
    1afe:	04 c0       	rjmp	.+8      	; 0x1b08 <__umoddi3+0x17a>
    1b00:	ee 0c       	add	r14, r14
    1b02:	ff 1c       	adc	r15, r15
    1b04:	00 1f       	adc	r16, r16
    1b06:	11 1f       	adc	r17, r17
    1b08:	0a 94       	dec	r0
    1b0a:	d2 f7       	brpl	.-12     	; 0x1b00 <__umoddi3+0x172>
    1b0c:	39 01       	movw	r6, r18
    1b0e:	4a 01       	movw	r8, r20
    1b10:	6e 28       	or	r6, r14
    1b12:	7f 28       	or	r7, r15
    1b14:	80 2a       	or	r8, r16
    1b16:	91 2a       	or	r9, r17
    1b18:	0f a1       	ldd	r16, Y+39	; 0x27
    1b1a:	18 a5       	ldd	r17, Y+40	; 0x28
    1b1c:	29 a5       	ldd	r18, Y+41	; 0x29
    1b1e:	3a a5       	ldd	r19, Y+42	; 0x2a
    1b20:	04 c0       	rjmp	.+8      	; 0x1b2a <__umoddi3+0x19c>
    1b22:	00 0f       	add	r16, r16
    1b24:	11 1f       	adc	r17, r17
    1b26:	22 1f       	adc	r18, r18
    1b28:	33 1f       	adc	r19, r19
    1b2a:	8a 95       	dec	r24
    1b2c:	d2 f7       	brpl	.-12     	; 0x1b22 <__umoddi3+0x194>
    1b2e:	0f a3       	std	Y+39, r16	; 0x27
    1b30:	18 a7       	std	Y+40, r17	; 0x28
    1b32:	29 a7       	std	Y+41, r18	; 0x29
    1b34:	3a a7       	std	Y+42, r19	; 0x2a
    1b36:	96 01       	movw	r18, r12
    1b38:	44 27       	eor	r20, r20
    1b3a:	55 27       	eor	r21, r21
    1b3c:	23 96       	adiw	r28, 0x03	; 3
    1b3e:	2c af       	std	Y+60, r18	; 0x3c
    1b40:	3d af       	std	Y+61, r19	; 0x3d
    1b42:	4e af       	std	Y+62, r20	; 0x3e
    1b44:	5f af       	std	Y+63, r21	; 0x3f
    1b46:	23 97       	sbiw	r28, 0x03	; 3
    1b48:	d6 01       	movw	r26, r12
    1b4a:	c5 01       	movw	r24, r10
    1b4c:	a0 70       	andi	r26, 0x00	; 0
    1b4e:	b0 70       	andi	r27, 0x00	; 0
    1b50:	27 96       	adiw	r28, 0x07	; 7
    1b52:	8c af       	std	Y+60, r24	; 0x3c
    1b54:	9d af       	std	Y+61, r25	; 0x3d
    1b56:	ae af       	std	Y+62, r26	; 0x3e
    1b58:	bf af       	std	Y+63, r27	; 0x3f
    1b5a:	27 97       	sbiw	r28, 0x07	; 7
    1b5c:	c4 01       	movw	r24, r8
    1b5e:	b3 01       	movw	r22, r6
    1b60:	0e 94 73 13 	call	0x26e6	; 0x26e6 <__udivmodsi4>
    1b64:	ca 01       	movw	r24, r20
    1b66:	b9 01       	movw	r22, r18
    1b68:	27 96       	adiw	r28, 0x07	; 7
    1b6a:	2c ad       	ldd	r18, Y+60	; 0x3c
    1b6c:	3d ad       	ldd	r19, Y+61	; 0x3d
    1b6e:	4e ad       	ldd	r20, Y+62	; 0x3e
    1b70:	5f ad       	ldd	r21, Y+63	; 0x3f
    1b72:	27 97       	sbiw	r28, 0x07	; 7
    1b74:	0e 94 54 13 	call	0x26a8	; 0x26a8 <__mulsi3>
    1b78:	1b 01       	movw	r2, r22
    1b7a:	2c 01       	movw	r4, r24
    1b7c:	c4 01       	movw	r24, r8
    1b7e:	b3 01       	movw	r22, r6
    1b80:	23 96       	adiw	r28, 0x03	; 3
    1b82:	2c ad       	ldd	r18, Y+60	; 0x3c
    1b84:	3d ad       	ldd	r19, Y+61	; 0x3d
    1b86:	4e ad       	ldd	r20, Y+62	; 0x3e
    1b88:	5f ad       	ldd	r21, Y+63	; 0x3f
    1b8a:	23 97       	sbiw	r28, 0x03	; 3
    1b8c:	0e 94 73 13 	call	0x26e6	; 0x26e6 <__udivmodsi4>
    1b90:	cb 01       	movw	r24, r22
    1b92:	77 27       	eor	r23, r23
    1b94:	66 27       	eor	r22, r22
    1b96:	6f a0       	ldd	r6, Y+39	; 0x27
    1b98:	78 a4       	ldd	r7, Y+40	; 0x28
    1b9a:	89 a4       	ldd	r8, Y+41	; 0x29
    1b9c:	9a a4       	ldd	r9, Y+42	; 0x2a
    1b9e:	94 01       	movw	r18, r8
    1ba0:	44 27       	eor	r20, r20
    1ba2:	55 27       	eor	r21, r21
    1ba4:	7b 01       	movw	r14, r22
    1ba6:	8c 01       	movw	r16, r24
    1ba8:	e2 2a       	or	r14, r18
    1baa:	f3 2a       	or	r15, r19
    1bac:	04 2b       	or	r16, r20
    1bae:	15 2b       	or	r17, r21
    1bb0:	e2 14       	cp	r14, r2
    1bb2:	f3 04       	cpc	r15, r3
    1bb4:	04 05       	cpc	r16, r4
    1bb6:	15 05       	cpc	r17, r5
    1bb8:	90 f4       	brcc	.+36     	; 0x1bde <__umoddi3+0x250>
    1bba:	ea 0c       	add	r14, r10
    1bbc:	fb 1c       	adc	r15, r11
    1bbe:	0c 1d       	adc	r16, r12
    1bc0:	1d 1d       	adc	r17, r13
    1bc2:	ea 14       	cp	r14, r10
    1bc4:	fb 04       	cpc	r15, r11
    1bc6:	0c 05       	cpc	r16, r12
    1bc8:	1d 05       	cpc	r17, r13
    1bca:	48 f0       	brcs	.+18     	; 0x1bde <__umoddi3+0x250>
    1bcc:	e2 14       	cp	r14, r2
    1bce:	f3 04       	cpc	r15, r3
    1bd0:	04 05       	cpc	r16, r4
    1bd2:	15 05       	cpc	r17, r5
    1bd4:	20 f4       	brcc	.+8      	; 0x1bde <__umoddi3+0x250>
    1bd6:	ea 0c       	add	r14, r10
    1bd8:	fb 1c       	adc	r15, r11
    1bda:	0c 1d       	adc	r16, r12
    1bdc:	1d 1d       	adc	r17, r13
    1bde:	e2 18       	sub	r14, r2
    1be0:	f3 08       	sbc	r15, r3
    1be2:	04 09       	sbc	r16, r4
    1be4:	15 09       	sbc	r17, r5
    1be6:	c8 01       	movw	r24, r16
    1be8:	b7 01       	movw	r22, r14
    1bea:	23 96       	adiw	r28, 0x03	; 3
    1bec:	2c ad       	ldd	r18, Y+60	; 0x3c
    1bee:	3d ad       	ldd	r19, Y+61	; 0x3d
    1bf0:	4e ad       	ldd	r20, Y+62	; 0x3e
    1bf2:	5f ad       	ldd	r21, Y+63	; 0x3f
    1bf4:	23 97       	sbiw	r28, 0x03	; 3
    1bf6:	0e 94 73 13 	call	0x26e6	; 0x26e6 <__udivmodsi4>
    1bfa:	ca 01       	movw	r24, r20
    1bfc:	b9 01       	movw	r22, r18
    1bfe:	27 96       	adiw	r28, 0x07	; 7
    1c00:	2c ad       	ldd	r18, Y+60	; 0x3c
    1c02:	3d ad       	ldd	r19, Y+61	; 0x3d
    1c04:	4e ad       	ldd	r20, Y+62	; 0x3e
    1c06:	5f ad       	ldd	r21, Y+63	; 0x3f
    1c08:	27 97       	sbiw	r28, 0x07	; 7
    1c0a:	0e 94 54 13 	call	0x26a8	; 0x26a8 <__mulsi3>
    1c0e:	3b 01       	movw	r6, r22
    1c10:	4c 01       	movw	r8, r24
    1c12:	c8 01       	movw	r24, r16
    1c14:	b7 01       	movw	r22, r14
    1c16:	23 96       	adiw	r28, 0x03	; 3
    1c18:	2c ad       	ldd	r18, Y+60	; 0x3c
    1c1a:	3d ad       	ldd	r19, Y+61	; 0x3d
    1c1c:	4e ad       	ldd	r20, Y+62	; 0x3e
    1c1e:	5f ad       	ldd	r21, Y+63	; 0x3f
    1c20:	23 97       	sbiw	r28, 0x03	; 3
    1c22:	af c1       	rjmp	.+862    	; 0x1f82 <__umoddi3+0x5f4>
    1c24:	a1 14       	cp	r10, r1
    1c26:	b1 04       	cpc	r11, r1
    1c28:	c1 04       	cpc	r12, r1
    1c2a:	d1 04       	cpc	r13, r1
    1c2c:	61 f4       	brne	.+24     	; 0x1c46 <__umoddi3+0x2b8>
    1c2e:	61 e0       	ldi	r22, 0x01	; 1
    1c30:	70 e0       	ldi	r23, 0x00	; 0
    1c32:	80 e0       	ldi	r24, 0x00	; 0
    1c34:	90 e0       	ldi	r25, 0x00	; 0
    1c36:	20 e0       	ldi	r18, 0x00	; 0
    1c38:	30 e0       	ldi	r19, 0x00	; 0
    1c3a:	40 e0       	ldi	r20, 0x00	; 0
    1c3c:	50 e0       	ldi	r21, 0x00	; 0
    1c3e:	0e 94 73 13 	call	0x26e6	; 0x26e6 <__udivmodsi4>
    1c42:	59 01       	movw	r10, r18
    1c44:	6a 01       	movw	r12, r20
    1c46:	00 e0       	ldi	r16, 0x00	; 0
    1c48:	a0 16       	cp	r10, r16
    1c4a:	00 e0       	ldi	r16, 0x00	; 0
    1c4c:	b0 06       	cpc	r11, r16
    1c4e:	01 e0       	ldi	r16, 0x01	; 1
    1c50:	c0 06       	cpc	r12, r16
    1c52:	00 e0       	ldi	r16, 0x00	; 0
    1c54:	d0 06       	cpc	r13, r16
    1c56:	88 f4       	brcc	.+34     	; 0x1c7a <__umoddi3+0x2ec>
    1c58:	1f ef       	ldi	r17, 0xFF	; 255
    1c5a:	a1 16       	cp	r10, r17
    1c5c:	b1 04       	cpc	r11, r1
    1c5e:	c1 04       	cpc	r12, r1
    1c60:	d1 04       	cpc	r13, r1
    1c62:	09 f0       	breq	.+2      	; 0x1c66 <__umoddi3+0x2d8>
    1c64:	28 f4       	brcc	.+10     	; 0x1c70 <__umoddi3+0x2e2>
    1c66:	20 e0       	ldi	r18, 0x00	; 0
    1c68:	30 e0       	ldi	r19, 0x00	; 0
    1c6a:	40 e0       	ldi	r20, 0x00	; 0
    1c6c:	50 e0       	ldi	r21, 0x00	; 0
    1c6e:	17 c0       	rjmp	.+46     	; 0x1c9e <__umoddi3+0x310>
    1c70:	28 e0       	ldi	r18, 0x08	; 8
    1c72:	30 e0       	ldi	r19, 0x00	; 0
    1c74:	40 e0       	ldi	r20, 0x00	; 0
    1c76:	50 e0       	ldi	r21, 0x00	; 0
    1c78:	12 c0       	rjmp	.+36     	; 0x1c9e <__umoddi3+0x310>
    1c7a:	20 e0       	ldi	r18, 0x00	; 0
    1c7c:	a2 16       	cp	r10, r18
    1c7e:	20 e0       	ldi	r18, 0x00	; 0
    1c80:	b2 06       	cpc	r11, r18
    1c82:	20 e0       	ldi	r18, 0x00	; 0
    1c84:	c2 06       	cpc	r12, r18
    1c86:	21 e0       	ldi	r18, 0x01	; 1
    1c88:	d2 06       	cpc	r13, r18
    1c8a:	28 f4       	brcc	.+10     	; 0x1c96 <__umoddi3+0x308>
    1c8c:	20 e1       	ldi	r18, 0x10	; 16
    1c8e:	30 e0       	ldi	r19, 0x00	; 0
    1c90:	40 e0       	ldi	r20, 0x00	; 0
    1c92:	50 e0       	ldi	r21, 0x00	; 0
    1c94:	04 c0       	rjmp	.+8      	; 0x1c9e <__umoddi3+0x310>
    1c96:	28 e1       	ldi	r18, 0x18	; 24
    1c98:	30 e0       	ldi	r19, 0x00	; 0
    1c9a:	40 e0       	ldi	r20, 0x00	; 0
    1c9c:	50 e0       	ldi	r21, 0x00	; 0
    1c9e:	60 e2       	ldi	r22, 0x20	; 32
    1ca0:	e6 2e       	mov	r14, r22
    1ca2:	f1 2c       	mov	r15, r1
    1ca4:	01 2d       	mov	r16, r1
    1ca6:	11 2d       	mov	r17, r1
    1ca8:	d8 01       	movw	r26, r16
    1caa:	c7 01       	movw	r24, r14
    1cac:	82 1b       	sub	r24, r18
    1cae:	93 0b       	sbc	r25, r19
    1cb0:	a4 0b       	sbc	r26, r20
    1cb2:	b5 0b       	sbc	r27, r21
    1cb4:	15 01       	movw	r2, r10
    1cb6:	26 01       	movw	r4, r12
    1cb8:	04 c0       	rjmp	.+8      	; 0x1cc2 <__umoddi3+0x334>
    1cba:	56 94       	lsr	r5
    1cbc:	47 94       	ror	r4
    1cbe:	37 94       	ror	r3
    1cc0:	27 94       	ror	r2
    1cc2:	2a 95       	dec	r18
    1cc4:	d2 f7       	brpl	.-12     	; 0x1cba <__umoddi3+0x32c>
    1cc6:	a2 01       	movw	r20, r4
    1cc8:	91 01       	movw	r18, r2
    1cca:	2e 5d       	subi	r18, 0xDE	; 222
    1ccc:	3d 4f       	sbci	r19, 0xFD	; 253
    1cce:	f9 01       	movw	r30, r18
    1cd0:	20 81       	ld	r18, Z
    1cd2:	82 1b       	sub	r24, r18
    1cd4:	91 09       	sbc	r25, r1
    1cd6:	a1 09       	sbc	r26, r1
    1cd8:	b1 09       	sbc	r27, r1
    1cda:	8b af       	std	Y+59, r24	; 0x3b
    1cdc:	9c af       	std	Y+60, r25	; 0x3c
    1cde:	ad af       	std	Y+61, r26	; 0x3d
    1ce0:	be af       	std	Y+62, r27	; 0x3e
    1ce2:	00 97       	sbiw	r24, 0x00	; 0
    1ce4:	a1 05       	cpc	r26, r1
    1ce6:	b1 05       	cpc	r27, r1
    1ce8:	39 f4       	brne	.+14     	; 0x1cf8 <__umoddi3+0x36a>
    1cea:	84 01       	movw	r16, r8
    1cec:	73 01       	movw	r14, r6
    1cee:	ea 18       	sub	r14, r10
    1cf0:	fb 08       	sbc	r15, r11
    1cf2:	0c 09       	sbc	r16, r12
    1cf4:	1d 09       	sbc	r17, r13
    1cf6:	df c0       	rjmp	.+446    	; 0x1eb6 <__umoddi3+0x528>
    1cf8:	2b ac       	ldd	r2, Y+59	; 0x3b
    1cfa:	3c ac       	ldd	r3, Y+60	; 0x3c
    1cfc:	3c 8e       	std	Y+28, r3	; 0x1c
    1cfe:	2b 8e       	std	Y+27, r2	; 0x1b
    1d00:	0b 8c       	ldd	r0, Y+27	; 0x1b
    1d02:	04 c0       	rjmp	.+8      	; 0x1d0c <__umoddi3+0x37e>
    1d04:	aa 0c       	add	r10, r10
    1d06:	bb 1c       	adc	r11, r11
    1d08:	cc 1c       	adc	r12, r12
    1d0a:	dd 1c       	adc	r13, r13
    1d0c:	0a 94       	dec	r0
    1d0e:	d2 f7       	brpl	.-12     	; 0x1d04 <__umoddi3+0x376>
    1d10:	d8 01       	movw	r26, r16
    1d12:	c7 01       	movw	r24, r14
    1d14:	2b ad       	ldd	r18, Y+59	; 0x3b
    1d16:	3c ad       	ldd	r19, Y+60	; 0x3c
    1d18:	4d ad       	ldd	r20, Y+61	; 0x3d
    1d1a:	5e ad       	ldd	r21, Y+62	; 0x3e
    1d1c:	82 1b       	sub	r24, r18
    1d1e:	93 0b       	sbc	r25, r19
    1d20:	a4 0b       	sbc	r26, r20
    1d22:	b5 0b       	sbc	r27, r21
    1d24:	84 01       	movw	r16, r8
    1d26:	73 01       	movw	r14, r6
    1d28:	08 2e       	mov	r0, r24
    1d2a:	04 c0       	rjmp	.+8      	; 0x1d34 <__umoddi3+0x3a6>
    1d2c:	16 95       	lsr	r17
    1d2e:	07 95       	ror	r16
    1d30:	f7 94       	ror	r15
    1d32:	e7 94       	ror	r14
    1d34:	0a 94       	dec	r0
    1d36:	d2 f7       	brpl	.-12     	; 0x1d2c <__umoddi3+0x39e>
    1d38:	2f a1       	ldd	r18, Y+39	; 0x27
    1d3a:	38 a5       	ldd	r19, Y+40	; 0x28
    1d3c:	49 a5       	ldd	r20, Y+41	; 0x29
    1d3e:	5a a5       	ldd	r21, Y+42	; 0x2a
    1d40:	04 c0       	rjmp	.+8      	; 0x1d4a <__umoddi3+0x3bc>
    1d42:	56 95       	lsr	r21
    1d44:	47 95       	ror	r20
    1d46:	37 95       	ror	r19
    1d48:	27 95       	ror	r18
    1d4a:	8a 95       	dec	r24
    1d4c:	d2 f7       	brpl	.-12     	; 0x1d42 <__umoddi3+0x3b4>
    1d4e:	d4 01       	movw	r26, r8
    1d50:	c3 01       	movw	r24, r6
    1d52:	0b 8c       	ldd	r0, Y+27	; 0x1b
    1d54:	04 c0       	rjmp	.+8      	; 0x1d5e <__umoddi3+0x3d0>
    1d56:	88 0f       	add	r24, r24
    1d58:	99 1f       	adc	r25, r25
    1d5a:	aa 1f       	adc	r26, r26
    1d5c:	bb 1f       	adc	r27, r27
    1d5e:	0a 94       	dec	r0
    1d60:	d2 f7       	brpl	.-12     	; 0x1d56 <__umoddi3+0x3c8>
    1d62:	28 2b       	or	r18, r24
    1d64:	39 2b       	or	r19, r25
    1d66:	4a 2b       	or	r20, r26
    1d68:	5b 2b       	or	r21, r27
    1d6a:	2b ab       	std	Y+51, r18	; 0x33
    1d6c:	3c ab       	std	Y+52, r19	; 0x34
    1d6e:	4d ab       	std	Y+53, r20	; 0x35
    1d70:	5e ab       	std	Y+54, r21	; 0x36
    1d72:	16 01       	movw	r2, r12
    1d74:	44 24       	eor	r4, r4
    1d76:	55 24       	eor	r5, r5
    1d78:	d6 01       	movw	r26, r12
    1d7a:	c5 01       	movw	r24, r10
    1d7c:	a0 70       	andi	r26, 0x00	; 0
    1d7e:	b0 70       	andi	r27, 0x00	; 0
    1d80:	2b 96       	adiw	r28, 0x0b	; 11
    1d82:	8c af       	std	Y+60, r24	; 0x3c
    1d84:	9d af       	std	Y+61, r25	; 0x3d
    1d86:	ae af       	std	Y+62, r26	; 0x3e
    1d88:	bf af       	std	Y+63, r27	; 0x3f
    1d8a:	2b 97       	sbiw	r28, 0x0b	; 11
    1d8c:	c8 01       	movw	r24, r16
    1d8e:	b7 01       	movw	r22, r14
    1d90:	a2 01       	movw	r20, r4
    1d92:	91 01       	movw	r18, r2
    1d94:	0e 94 73 13 	call	0x26e6	; 0x26e6 <__udivmodsi4>
    1d98:	ca 01       	movw	r24, r20
    1d9a:	b9 01       	movw	r22, r18
    1d9c:	2b 96       	adiw	r28, 0x0b	; 11
    1d9e:	2c ad       	ldd	r18, Y+60	; 0x3c
    1da0:	3d ad       	ldd	r19, Y+61	; 0x3d
    1da2:	4e ad       	ldd	r20, Y+62	; 0x3e
    1da4:	5f ad       	ldd	r21, Y+63	; 0x3f
    1da6:	2b 97       	sbiw	r28, 0x0b	; 11
    1da8:	0e 94 54 13 	call	0x26a8	; 0x26a8 <__mulsi3>
    1dac:	3b 01       	movw	r6, r22
    1dae:	4c 01       	movw	r8, r24
    1db0:	c8 01       	movw	r24, r16
    1db2:	b7 01       	movw	r22, r14
    1db4:	a2 01       	movw	r20, r4
    1db6:	91 01       	movw	r18, r2
    1db8:	0e 94 73 13 	call	0x26e6	; 0x26e6 <__udivmodsi4>
    1dbc:	cb 01       	movw	r24, r22
    1dbe:	77 27       	eor	r23, r23
    1dc0:	66 27       	eor	r22, r22
    1dc2:	eb a8       	ldd	r14, Y+51	; 0x33
    1dc4:	fc a8       	ldd	r15, Y+52	; 0x34
    1dc6:	0d a9       	ldd	r16, Y+53	; 0x35
    1dc8:	1e a9       	ldd	r17, Y+54	; 0x36
    1dca:	98 01       	movw	r18, r16
    1dcc:	44 27       	eor	r20, r20
    1dce:	55 27       	eor	r21, r21
    1dd0:	79 01       	movw	r14, r18
    1dd2:	8a 01       	movw	r16, r20
    1dd4:	e6 2a       	or	r14, r22
    1dd6:	f7 2a       	or	r15, r23
    1dd8:	08 2b       	or	r16, r24
    1dda:	19 2b       	or	r17, r25
    1ddc:	e6 14       	cp	r14, r6
    1dde:	f7 04       	cpc	r15, r7
    1de0:	08 05       	cpc	r16, r8
    1de2:	19 05       	cpc	r17, r9
    1de4:	90 f4       	brcc	.+36     	; 0x1e0a <__umoddi3+0x47c>
    1de6:	ea 0c       	add	r14, r10
    1de8:	fb 1c       	adc	r15, r11
    1dea:	0c 1d       	adc	r16, r12
    1dec:	1d 1d       	adc	r17, r13
    1dee:	ea 14       	cp	r14, r10
    1df0:	fb 04       	cpc	r15, r11
    1df2:	0c 05       	cpc	r16, r12
    1df4:	1d 05       	cpc	r17, r13
    1df6:	48 f0       	brcs	.+18     	; 0x1e0a <__umoddi3+0x47c>
    1df8:	e6 14       	cp	r14, r6
    1dfa:	f7 04       	cpc	r15, r7
    1dfc:	08 05       	cpc	r16, r8
    1dfe:	19 05       	cpc	r17, r9
    1e00:	20 f4       	brcc	.+8      	; 0x1e0a <__umoddi3+0x47c>
    1e02:	ea 0c       	add	r14, r10
    1e04:	fb 1c       	adc	r15, r11
    1e06:	0c 1d       	adc	r16, r12
    1e08:	1d 1d       	adc	r17, r13
    1e0a:	e6 18       	sub	r14, r6
    1e0c:	f7 08       	sbc	r15, r7
    1e0e:	08 09       	sbc	r16, r8
    1e10:	19 09       	sbc	r17, r9
    1e12:	c8 01       	movw	r24, r16
    1e14:	b7 01       	movw	r22, r14
    1e16:	a2 01       	movw	r20, r4
    1e18:	91 01       	movw	r18, r2
    1e1a:	0e 94 73 13 	call	0x26e6	; 0x26e6 <__udivmodsi4>
    1e1e:	ca 01       	movw	r24, r20
    1e20:	b9 01       	movw	r22, r18
    1e22:	2b 96       	adiw	r28, 0x0b	; 11
    1e24:	2c ad       	ldd	r18, Y+60	; 0x3c
    1e26:	3d ad       	ldd	r19, Y+61	; 0x3d
    1e28:	4e ad       	ldd	r20, Y+62	; 0x3e
    1e2a:	5f ad       	ldd	r21, Y+63	; 0x3f
    1e2c:	2b 97       	sbiw	r28, 0x0b	; 11
    1e2e:	0e 94 54 13 	call	0x26a8	; 0x26a8 <__mulsi3>
    1e32:	3b 01       	movw	r6, r22
    1e34:	4c 01       	movw	r8, r24
    1e36:	c8 01       	movw	r24, r16
    1e38:	b7 01       	movw	r22, r14
    1e3a:	a2 01       	movw	r20, r4
    1e3c:	91 01       	movw	r18, r2
    1e3e:	0e 94 73 13 	call	0x26e6	; 0x26e6 <__udivmodsi4>
    1e42:	cb 01       	movw	r24, r22
    1e44:	77 27       	eor	r23, r23
    1e46:	66 27       	eor	r22, r22
    1e48:	2b a9       	ldd	r18, Y+51	; 0x33
    1e4a:	3c a9       	ldd	r19, Y+52	; 0x34
    1e4c:	4d a9       	ldd	r20, Y+53	; 0x35
    1e4e:	5e a9       	ldd	r21, Y+54	; 0x36
    1e50:	40 70       	andi	r20, 0x00	; 0
    1e52:	50 70       	andi	r21, 0x00	; 0
    1e54:	7b 01       	movw	r14, r22
    1e56:	8c 01       	movw	r16, r24
    1e58:	e2 2a       	or	r14, r18
    1e5a:	f3 2a       	or	r15, r19
    1e5c:	04 2b       	or	r16, r20
    1e5e:	15 2b       	or	r17, r21
    1e60:	e6 14       	cp	r14, r6
    1e62:	f7 04       	cpc	r15, r7
    1e64:	08 05       	cpc	r16, r8
    1e66:	19 05       	cpc	r17, r9
    1e68:	90 f4       	brcc	.+36     	; 0x1e8e <__umoddi3+0x500>
    1e6a:	ea 0c       	add	r14, r10
    1e6c:	fb 1c       	adc	r15, r11
    1e6e:	0c 1d       	adc	r16, r12
    1e70:	1d 1d       	adc	r17, r13
    1e72:	ea 14       	cp	r14, r10
    1e74:	fb 04       	cpc	r15, r11
    1e76:	0c 05       	cpc	r16, r12
    1e78:	1d 05       	cpc	r17, r13
    1e7a:	48 f0       	brcs	.+18     	; 0x1e8e <__umoddi3+0x500>
    1e7c:	e6 14       	cp	r14, r6
    1e7e:	f7 04       	cpc	r15, r7
    1e80:	08 05       	cpc	r16, r8
    1e82:	19 05       	cpc	r17, r9
    1e84:	20 f4       	brcc	.+8      	; 0x1e8e <__umoddi3+0x500>
    1e86:	ea 0c       	add	r14, r10
    1e88:	fb 1c       	adc	r15, r11
    1e8a:	0c 1d       	adc	r16, r12
    1e8c:	1d 1d       	adc	r17, r13
    1e8e:	2f a1       	ldd	r18, Y+39	; 0x27
    1e90:	38 a5       	ldd	r19, Y+40	; 0x28
    1e92:	49 a5       	ldd	r20, Y+41	; 0x29
    1e94:	5a a5       	ldd	r21, Y+42	; 0x2a
    1e96:	0b 8c       	ldd	r0, Y+27	; 0x1b
    1e98:	04 c0       	rjmp	.+8      	; 0x1ea2 <__umoddi3+0x514>
    1e9a:	22 0f       	add	r18, r18
    1e9c:	33 1f       	adc	r19, r19
    1e9e:	44 1f       	adc	r20, r20
    1ea0:	55 1f       	adc	r21, r21
    1ea2:	0a 94       	dec	r0
    1ea4:	d2 f7       	brpl	.-12     	; 0x1e9a <__umoddi3+0x50c>
    1ea6:	2f a3       	std	Y+39, r18	; 0x27
    1ea8:	38 a7       	std	Y+40, r19	; 0x28
    1eaa:	49 a7       	std	Y+41, r20	; 0x29
    1eac:	5a a7       	std	Y+42, r21	; 0x2a
    1eae:	e6 18       	sub	r14, r6
    1eb0:	f7 08       	sbc	r15, r7
    1eb2:	08 09       	sbc	r16, r8
    1eb4:	19 09       	sbc	r17, r9
    1eb6:	16 01       	movw	r2, r12
    1eb8:	44 24       	eor	r4, r4
    1eba:	55 24       	eor	r5, r5
    1ebc:	d6 01       	movw	r26, r12
    1ebe:	c5 01       	movw	r24, r10
    1ec0:	a0 70       	andi	r26, 0x00	; 0
    1ec2:	b0 70       	andi	r27, 0x00	; 0
    1ec4:	2f 96       	adiw	r28, 0x0f	; 15
    1ec6:	8c af       	std	Y+60, r24	; 0x3c
    1ec8:	9d af       	std	Y+61, r25	; 0x3d
    1eca:	ae af       	std	Y+62, r26	; 0x3e
    1ecc:	bf af       	std	Y+63, r27	; 0x3f
    1ece:	2f 97       	sbiw	r28, 0x0f	; 15
    1ed0:	c8 01       	movw	r24, r16
    1ed2:	b7 01       	movw	r22, r14
    1ed4:	a2 01       	movw	r20, r4
    1ed6:	91 01       	movw	r18, r2
    1ed8:	0e 94 73 13 	call	0x26e6	; 0x26e6 <__udivmodsi4>
    1edc:	ca 01       	movw	r24, r20
    1ede:	b9 01       	movw	r22, r18
    1ee0:	2f 96       	adiw	r28, 0x0f	; 15
    1ee2:	2c ad       	ldd	r18, Y+60	; 0x3c
    1ee4:	3d ad       	ldd	r19, Y+61	; 0x3d
    1ee6:	4e ad       	ldd	r20, Y+62	; 0x3e
    1ee8:	5f ad       	ldd	r21, Y+63	; 0x3f
    1eea:	2f 97       	sbiw	r28, 0x0f	; 15
    1eec:	0e 94 54 13 	call	0x26a8	; 0x26a8 <__mulsi3>
    1ef0:	3b 01       	movw	r6, r22
    1ef2:	4c 01       	movw	r8, r24
    1ef4:	c8 01       	movw	r24, r16
    1ef6:	b7 01       	movw	r22, r14
    1ef8:	a2 01       	movw	r20, r4
    1efa:	91 01       	movw	r18, r2
    1efc:	0e 94 73 13 	call	0x26e6	; 0x26e6 <__udivmodsi4>
    1f00:	cb 01       	movw	r24, r22
    1f02:	77 27       	eor	r23, r23
    1f04:	66 27       	eor	r22, r22
    1f06:	ef a0       	ldd	r14, Y+39	; 0x27
    1f08:	f8 a4       	ldd	r15, Y+40	; 0x28
    1f0a:	09 a5       	ldd	r16, Y+41	; 0x29
    1f0c:	1a a5       	ldd	r17, Y+42	; 0x2a
    1f0e:	98 01       	movw	r18, r16
    1f10:	44 27       	eor	r20, r20
    1f12:	55 27       	eor	r21, r21
    1f14:	7b 01       	movw	r14, r22
    1f16:	8c 01       	movw	r16, r24
    1f18:	e2 2a       	or	r14, r18
    1f1a:	f3 2a       	or	r15, r19
    1f1c:	04 2b       	or	r16, r20
    1f1e:	15 2b       	or	r17, r21
    1f20:	e6 14       	cp	r14, r6
    1f22:	f7 04       	cpc	r15, r7
    1f24:	08 05       	cpc	r16, r8
    1f26:	19 05       	cpc	r17, r9
    1f28:	90 f4       	brcc	.+36     	; 0x1f4e <__umoddi3+0x5c0>
    1f2a:	ea 0c       	add	r14, r10
    1f2c:	fb 1c       	adc	r15, r11
    1f2e:	0c 1d       	adc	r16, r12
    1f30:	1d 1d       	adc	r17, r13
    1f32:	ea 14       	cp	r14, r10
    1f34:	fb 04       	cpc	r15, r11
    1f36:	0c 05       	cpc	r16, r12
    1f38:	1d 05       	cpc	r17, r13
    1f3a:	48 f0       	brcs	.+18     	; 0x1f4e <__umoddi3+0x5c0>
    1f3c:	e6 14       	cp	r14, r6
    1f3e:	f7 04       	cpc	r15, r7
    1f40:	08 05       	cpc	r16, r8
    1f42:	19 05       	cpc	r17, r9
    1f44:	20 f4       	brcc	.+8      	; 0x1f4e <__umoddi3+0x5c0>
    1f46:	ea 0c       	add	r14, r10
    1f48:	fb 1c       	adc	r15, r11
    1f4a:	0c 1d       	adc	r16, r12
    1f4c:	1d 1d       	adc	r17, r13
    1f4e:	e6 18       	sub	r14, r6
    1f50:	f7 08       	sbc	r15, r7
    1f52:	08 09       	sbc	r16, r8
    1f54:	19 09       	sbc	r17, r9
    1f56:	c8 01       	movw	r24, r16
    1f58:	b7 01       	movw	r22, r14
    1f5a:	a2 01       	movw	r20, r4
    1f5c:	91 01       	movw	r18, r2
    1f5e:	0e 94 73 13 	call	0x26e6	; 0x26e6 <__udivmodsi4>
    1f62:	ca 01       	movw	r24, r20
    1f64:	b9 01       	movw	r22, r18
    1f66:	2f 96       	adiw	r28, 0x0f	; 15
    1f68:	2c ad       	ldd	r18, Y+60	; 0x3c
    1f6a:	3d ad       	ldd	r19, Y+61	; 0x3d
    1f6c:	4e ad       	ldd	r20, Y+62	; 0x3e
    1f6e:	5f ad       	ldd	r21, Y+63	; 0x3f
    1f70:	2f 97       	sbiw	r28, 0x0f	; 15
    1f72:	0e 94 54 13 	call	0x26a8	; 0x26a8 <__mulsi3>
    1f76:	3b 01       	movw	r6, r22
    1f78:	4c 01       	movw	r8, r24
    1f7a:	c8 01       	movw	r24, r16
    1f7c:	b7 01       	movw	r22, r14
    1f7e:	a2 01       	movw	r20, r4
    1f80:	91 01       	movw	r18, r2
    1f82:	0e 94 73 13 	call	0x26e6	; 0x26e6 <__udivmodsi4>
    1f86:	cb 01       	movw	r24, r22
    1f88:	77 27       	eor	r23, r23
    1f8a:	66 27       	eor	r22, r22
    1f8c:	2f a1       	ldd	r18, Y+39	; 0x27
    1f8e:	38 a5       	ldd	r19, Y+40	; 0x28
    1f90:	49 a5       	ldd	r20, Y+41	; 0x29
    1f92:	5a a5       	ldd	r21, Y+42	; 0x2a
    1f94:	40 70       	andi	r20, 0x00	; 0
    1f96:	50 70       	andi	r21, 0x00	; 0
    1f98:	26 2b       	or	r18, r22
    1f9a:	37 2b       	or	r19, r23
    1f9c:	48 2b       	or	r20, r24
    1f9e:	59 2b       	or	r21, r25
    1fa0:	26 15       	cp	r18, r6
    1fa2:	37 05       	cpc	r19, r7
    1fa4:	48 05       	cpc	r20, r8
    1fa6:	59 05       	cpc	r21, r9
    1fa8:	90 f4       	brcc	.+36     	; 0x1fce <__umoddi3+0x640>
    1faa:	2a 0d       	add	r18, r10
    1fac:	3b 1d       	adc	r19, r11
    1fae:	4c 1d       	adc	r20, r12
    1fb0:	5d 1d       	adc	r21, r13
    1fb2:	2a 15       	cp	r18, r10
    1fb4:	3b 05       	cpc	r19, r11
    1fb6:	4c 05       	cpc	r20, r12
    1fb8:	5d 05       	cpc	r21, r13
    1fba:	48 f0       	brcs	.+18     	; 0x1fce <__umoddi3+0x640>
    1fbc:	26 15       	cp	r18, r6
    1fbe:	37 05       	cpc	r19, r7
    1fc0:	48 05       	cpc	r20, r8
    1fc2:	59 05       	cpc	r21, r9
    1fc4:	20 f4       	brcc	.+8      	; 0x1fce <__umoddi3+0x640>
    1fc6:	2a 0d       	add	r18, r10
    1fc8:	3b 1d       	adc	r19, r11
    1fca:	4c 1d       	adc	r20, r12
    1fcc:	5d 1d       	adc	r21, r13
    1fce:	26 19       	sub	r18, r6
    1fd0:	37 09       	sbc	r19, r7
    1fd2:	48 09       	sbc	r20, r8
    1fd4:	59 09       	sbc	r21, r9
    1fd6:	da 01       	movw	r26, r20
    1fd8:	c9 01       	movw	r24, r18
    1fda:	0b ac       	ldd	r0, Y+59	; 0x3b
    1fdc:	04 c0       	rjmp	.+8      	; 0x1fe6 <__umoddi3+0x658>
    1fde:	b6 95       	lsr	r27
    1fe0:	a7 95       	ror	r26
    1fe2:	97 95       	ror	r25
    1fe4:	87 95       	ror	r24
    1fe6:	0a 94       	dec	r0
    1fe8:	d2 f7       	brpl	.-12     	; 0x1fde <__umoddi3+0x650>
    1fea:	89 8b       	std	Y+17, r24	; 0x11
    1fec:	9a 8b       	std	Y+18, r25	; 0x12
    1fee:	ab 8b       	std	Y+19, r26	; 0x13
    1ff0:	bc 8b       	std	Y+20, r27	; 0x14
    1ff2:	1d 8a       	std	Y+21, r1	; 0x15
    1ff4:	1e 8a       	std	Y+22, r1	; 0x16
    1ff6:	1f 8a       	std	Y+23, r1	; 0x17
    1ff8:	18 8e       	std	Y+24, r1	; 0x18
    1ffa:	06 c3       	rjmp	.+1548   	; 0x2608 <__stack+0x409>
    1ffc:	6e 14       	cp	r6, r14
    1ffe:	7f 04       	cpc	r7, r15
    2000:	80 06       	cpc	r8, r16
    2002:	91 06       	cpc	r9, r17
    2004:	48 f4       	brcc	.+18     	; 0x2018 <__umoddi3+0x68a>
    2006:	0f a1       	ldd	r16, Y+39	; 0x27
    2008:	18 a5       	ldd	r17, Y+40	; 0x28
    200a:	29 a5       	ldd	r18, Y+41	; 0x29
    200c:	3a a5       	ldd	r19, Y+42	; 0x2a
    200e:	09 8b       	std	Y+17, r16	; 0x11
    2010:	1a 8b       	std	Y+18, r17	; 0x12
    2012:	2b 8b       	std	Y+19, r18	; 0x13
    2014:	3c 8b       	std	Y+20, r19	; 0x14
    2016:	9a c0       	rjmp	.+308    	; 0x214c <__umoddi3+0x7be>
    2018:	20 e0       	ldi	r18, 0x00	; 0
    201a:	e2 16       	cp	r14, r18
    201c:	20 e0       	ldi	r18, 0x00	; 0
    201e:	f2 06       	cpc	r15, r18
    2020:	21 e0       	ldi	r18, 0x01	; 1
    2022:	02 07       	cpc	r16, r18
    2024:	20 e0       	ldi	r18, 0x00	; 0
    2026:	12 07       	cpc	r17, r18
    2028:	88 f4       	brcc	.+34     	; 0x204c <__umoddi3+0x6be>
    202a:	3f ef       	ldi	r19, 0xFF	; 255
    202c:	e3 16       	cp	r14, r19
    202e:	f1 04       	cpc	r15, r1
    2030:	01 05       	cpc	r16, r1
    2032:	11 05       	cpc	r17, r1
    2034:	09 f0       	breq	.+2      	; 0x2038 <__umoddi3+0x6aa>
    2036:	28 f4       	brcc	.+10     	; 0x2042 <__umoddi3+0x6b4>
    2038:	20 e0       	ldi	r18, 0x00	; 0
    203a:	30 e0       	ldi	r19, 0x00	; 0
    203c:	40 e0       	ldi	r20, 0x00	; 0
    203e:	50 e0       	ldi	r21, 0x00	; 0
    2040:	17 c0       	rjmp	.+46     	; 0x2070 <__umoddi3+0x6e2>
    2042:	28 e0       	ldi	r18, 0x08	; 8
    2044:	30 e0       	ldi	r19, 0x00	; 0
    2046:	40 e0       	ldi	r20, 0x00	; 0
    2048:	50 e0       	ldi	r21, 0x00	; 0
    204a:	12 c0       	rjmp	.+36     	; 0x2070 <__umoddi3+0x6e2>
    204c:	40 e0       	ldi	r20, 0x00	; 0
    204e:	e4 16       	cp	r14, r20
    2050:	40 e0       	ldi	r20, 0x00	; 0
    2052:	f4 06       	cpc	r15, r20
    2054:	40 e0       	ldi	r20, 0x00	; 0
    2056:	04 07       	cpc	r16, r20
    2058:	41 e0       	ldi	r20, 0x01	; 1
    205a:	14 07       	cpc	r17, r20
    205c:	28 f4       	brcc	.+10     	; 0x2068 <__umoddi3+0x6da>
    205e:	20 e1       	ldi	r18, 0x10	; 16
    2060:	30 e0       	ldi	r19, 0x00	; 0
    2062:	40 e0       	ldi	r20, 0x00	; 0
    2064:	50 e0       	ldi	r21, 0x00	; 0
    2066:	04 c0       	rjmp	.+8      	; 0x2070 <__umoddi3+0x6e2>
    2068:	28 e1       	ldi	r18, 0x18	; 24
    206a:	30 e0       	ldi	r19, 0x00	; 0
    206c:	40 e0       	ldi	r20, 0x00	; 0
    206e:	50 e0       	ldi	r21, 0x00	; 0
    2070:	60 e2       	ldi	r22, 0x20	; 32
    2072:	26 2e       	mov	r2, r22
    2074:	31 2c       	mov	r3, r1
    2076:	41 2c       	mov	r4, r1
    2078:	51 2c       	mov	r5, r1
    207a:	d2 01       	movw	r26, r4
    207c:	c1 01       	movw	r24, r2
    207e:	82 1b       	sub	r24, r18
    2080:	93 0b       	sbc	r25, r19
    2082:	a4 0b       	sbc	r26, r20
    2084:	b5 0b       	sbc	r27, r21
    2086:	6f 96       	adiw	r28, 0x1f	; 31
    2088:	8c af       	std	Y+60, r24	; 0x3c
    208a:	9d af       	std	Y+61, r25	; 0x3d
    208c:	ae af       	std	Y+62, r26	; 0x3e
    208e:	bf af       	std	Y+63, r27	; 0x3f
    2090:	6f 97       	sbiw	r28, 0x1f	; 31
    2092:	d8 01       	movw	r26, r16
    2094:	c7 01       	movw	r24, r14
    2096:	04 c0       	rjmp	.+8      	; 0x20a0 <__umoddi3+0x712>
    2098:	b6 95       	lsr	r27
    209a:	a7 95       	ror	r26
    209c:	97 95       	ror	r25
    209e:	87 95       	ror	r24
    20a0:	2a 95       	dec	r18
    20a2:	d2 f7       	brpl	.-12     	; 0x2098 <__umoddi3+0x70a>
    20a4:	9c 01       	movw	r18, r24
    20a6:	ad 01       	movw	r20, r26
    20a8:	2e 5d       	subi	r18, 0xDE	; 222
    20aa:	3d 4f       	sbci	r19, 0xFD	; 253
    20ac:	d9 01       	movw	r26, r18
    20ae:	2c 91       	ld	r18, X
    20b0:	6f 96       	adiw	r28, 0x1f	; 31
    20b2:	8c ad       	ldd	r24, Y+60	; 0x3c
    20b4:	9d ad       	ldd	r25, Y+61	; 0x3d
    20b6:	ae ad       	ldd	r26, Y+62	; 0x3e
    20b8:	bf ad       	ldd	r27, Y+63	; 0x3f
    20ba:	6f 97       	sbiw	r28, 0x1f	; 31
    20bc:	82 1b       	sub	r24, r18
    20be:	91 09       	sbc	r25, r1
    20c0:	a1 09       	sbc	r26, r1
    20c2:	b1 09       	sbc	r27, r1
    20c4:	00 97       	sbiw	r24, 0x00	; 0
    20c6:	a1 05       	cpc	r26, r1
    20c8:	b1 05       	cpc	r27, r1
    20ca:	09 f0       	breq	.+2      	; 0x20ce <__umoddi3+0x740>
    20cc:	44 c0       	rjmp	.+136    	; 0x2156 <__umoddi3+0x7c8>
    20ce:	e6 14       	cp	r14, r6
    20d0:	f7 04       	cpc	r15, r7
    20d2:	08 05       	cpc	r16, r8
    20d4:	19 05       	cpc	r17, r9
    20d6:	48 f0       	brcs	.+18     	; 0x20ea <__umoddi3+0x75c>
    20d8:	2f a0       	ldd	r2, Y+39	; 0x27
    20da:	38 a4       	ldd	r3, Y+40	; 0x28
    20dc:	49 a4       	ldd	r4, Y+41	; 0x29
    20de:	5a a4       	ldd	r5, Y+42	; 0x2a
    20e0:	2a 14       	cp	r2, r10
    20e2:	3b 04       	cpc	r3, r11
    20e4:	4c 04       	cpc	r4, r12
    20e6:	5d 04       	cpc	r5, r13
    20e8:	48 f1       	brcs	.+82     	; 0x213c <__umoddi3+0x7ae>
    20ea:	2f a1       	ldd	r18, Y+39	; 0x27
    20ec:	38 a5       	ldd	r19, Y+40	; 0x28
    20ee:	49 a5       	ldd	r20, Y+41	; 0x29
    20f0:	5a a5       	ldd	r21, Y+42	; 0x2a
    20f2:	2a 19       	sub	r18, r10
    20f4:	3b 09       	sbc	r19, r11
    20f6:	4c 09       	sbc	r20, r12
    20f8:	5d 09       	sbc	r21, r13
    20fa:	6e 18       	sub	r6, r14
    20fc:	7f 08       	sbc	r7, r15
    20fe:	80 0a       	sbc	r8, r16
    2100:	91 0a       	sbc	r9, r17
    2102:	84 01       	movw	r16, r8
    2104:	73 01       	movw	r14, r6
    2106:	60 e0       	ldi	r22, 0x00	; 0
    2108:	70 e0       	ldi	r23, 0x00	; 0
    210a:	80 e0       	ldi	r24, 0x00	; 0
    210c:	90 e0       	ldi	r25, 0x00	; 0
    210e:	4f a0       	ldd	r4, Y+39	; 0x27
    2110:	58 a4       	ldd	r5, Y+40	; 0x28
    2112:	69 a4       	ldd	r6, Y+41	; 0x29
    2114:	7a a4       	ldd	r7, Y+42	; 0x2a
    2116:	42 16       	cp	r4, r18
    2118:	53 06       	cpc	r5, r19
    211a:	64 06       	cpc	r6, r20
    211c:	75 06       	cpc	r7, r21
    211e:	20 f4       	brcc	.+8      	; 0x2128 <__umoddi3+0x79a>
    2120:	61 e0       	ldi	r22, 0x01	; 1
    2122:	70 e0       	ldi	r23, 0x00	; 0
    2124:	80 e0       	ldi	r24, 0x00	; 0
    2126:	90 e0       	ldi	r25, 0x00	; 0
    2128:	37 01       	movw	r6, r14
    212a:	48 01       	movw	r8, r16
    212c:	66 1a       	sub	r6, r22
    212e:	77 0a       	sbc	r7, r23
    2130:	88 0a       	sbc	r8, r24
    2132:	99 0a       	sbc	r9, r25
    2134:	2f a3       	std	Y+39, r18	; 0x27
    2136:	38 a7       	std	Y+40, r19	; 0x28
    2138:	49 a7       	std	Y+41, r20	; 0x29
    213a:	5a a7       	std	Y+42, r21	; 0x2a
    213c:	af a0       	ldd	r10, Y+39	; 0x27
    213e:	b8 a4       	ldd	r11, Y+40	; 0x28
    2140:	c9 a4       	ldd	r12, Y+41	; 0x29
    2142:	da a4       	ldd	r13, Y+42	; 0x2a
    2144:	a9 8a       	std	Y+17, r10	; 0x11
    2146:	ba 8a       	std	Y+18, r11	; 0x12
    2148:	cb 8a       	std	Y+19, r12	; 0x13
    214a:	dc 8a       	std	Y+20, r13	; 0x14
    214c:	6d 8a       	std	Y+21, r6	; 0x15
    214e:	7e 8a       	std	Y+22, r7	; 0x16
    2150:	8f 8a       	std	Y+23, r8	; 0x17
    2152:	98 8e       	std	Y+24, r9	; 0x18
    2154:	59 c2       	rjmp	.+1202   	; 0x2608 <__stack+0x409>
    2156:	9a 8f       	std	Y+26, r25	; 0x1a
    2158:	89 8f       	std	Y+25, r24	; 0x19
    215a:	28 1a       	sub	r2, r24
    215c:	39 0a       	sbc	r3, r25
    215e:	4a 0a       	sbc	r4, r26
    2160:	5b 0a       	sbc	r5, r27
    2162:	3e 8e       	std	Y+30, r3	; 0x1e
    2164:	2d 8e       	std	Y+29, r2	; 0x1d
    2166:	a6 01       	movw	r20, r12
    2168:	95 01       	movw	r18, r10
    216a:	0d 8c       	ldd	r0, Y+29	; 0x1d
    216c:	04 c0       	rjmp	.+8      	; 0x2176 <__umoddi3+0x7e8>
    216e:	56 95       	lsr	r21
    2170:	47 95       	ror	r20
    2172:	37 95       	ror	r19
    2174:	27 95       	ror	r18
    2176:	0a 94       	dec	r0
    2178:	d2 f7       	brpl	.-12     	; 0x216e <__umoddi3+0x7e0>
    217a:	d8 01       	movw	r26, r16
    217c:	c7 01       	movw	r24, r14
    217e:	09 8c       	ldd	r0, Y+25	; 0x19
    2180:	04 c0       	rjmp	.+8      	; 0x218a <__umoddi3+0x7fc>
    2182:	88 0f       	add	r24, r24
    2184:	99 1f       	adc	r25, r25
    2186:	aa 1f       	adc	r26, r26
    2188:	bb 1f       	adc	r27, r27
    218a:	0a 94       	dec	r0
    218c:	d2 f7       	brpl	.-12     	; 0x2182 <__umoddi3+0x7f4>
    218e:	28 2b       	or	r18, r24
    2190:	39 2b       	or	r19, r25
    2192:	4a 2b       	or	r20, r26
    2194:	5b 2b       	or	r21, r27
    2196:	2f ab       	std	Y+55, r18	; 0x37
    2198:	38 af       	std	Y+56, r19	; 0x38
    219a:	49 af       	std	Y+57, r20	; 0x39
    219c:	5a af       	std	Y+58, r21	; 0x3a
    219e:	09 8c       	ldd	r0, Y+25	; 0x19
    21a0:	04 c0       	rjmp	.+8      	; 0x21aa <__umoddi3+0x81c>
    21a2:	aa 0c       	add	r10, r10
    21a4:	bb 1c       	adc	r11, r11
    21a6:	cc 1c       	adc	r12, r12
    21a8:	dd 1c       	adc	r13, r13
    21aa:	0a 94       	dec	r0
    21ac:	d2 f7       	brpl	.-12     	; 0x21a2 <__umoddi3+0x814>
    21ae:	af 8e       	std	Y+31, r10	; 0x1f
    21b0:	b8 a2       	std	Y+32, r11	; 0x20
    21b2:	c9 a2       	std	Y+33, r12	; 0x21
    21b4:	da a2       	std	Y+34, r13	; 0x22
    21b6:	84 01       	movw	r16, r8
    21b8:	73 01       	movw	r14, r6
    21ba:	0d 8c       	ldd	r0, Y+29	; 0x1d
    21bc:	04 c0       	rjmp	.+8      	; 0x21c6 <__umoddi3+0x838>
    21be:	16 95       	lsr	r17
    21c0:	07 95       	ror	r16
    21c2:	f7 94       	ror	r15
    21c4:	e7 94       	ror	r14
    21c6:	0a 94       	dec	r0
    21c8:	d2 f7       	brpl	.-12     	; 0x21be <__umoddi3+0x830>
    21ca:	2f a1       	ldd	r18, Y+39	; 0x27
    21cc:	38 a5       	ldd	r19, Y+40	; 0x28
    21ce:	49 a5       	ldd	r20, Y+41	; 0x29
    21d0:	5a a5       	ldd	r21, Y+42	; 0x2a
    21d2:	0d 8c       	ldd	r0, Y+29	; 0x1d
    21d4:	04 c0       	rjmp	.+8      	; 0x21de <__umoddi3+0x850>
    21d6:	56 95       	lsr	r21
    21d8:	47 95       	ror	r20
    21da:	37 95       	ror	r19
    21dc:	27 95       	ror	r18
    21de:	0a 94       	dec	r0
    21e0:	d2 f7       	brpl	.-12     	; 0x21d6 <__umoddi3+0x848>
    21e2:	d4 01       	movw	r26, r8
    21e4:	c3 01       	movw	r24, r6
    21e6:	09 8c       	ldd	r0, Y+25	; 0x19
    21e8:	04 c0       	rjmp	.+8      	; 0x21f2 <__umoddi3+0x864>
    21ea:	88 0f       	add	r24, r24
    21ec:	99 1f       	adc	r25, r25
    21ee:	aa 1f       	adc	r26, r26
    21f0:	bb 1f       	adc	r27, r27
    21f2:	0a 94       	dec	r0
    21f4:	d2 f7       	brpl	.-12     	; 0x21ea <__umoddi3+0x85c>
    21f6:	28 2b       	or	r18, r24
    21f8:	39 2b       	or	r19, r25
    21fa:	4a 2b       	or	r20, r26
    21fc:	5b 2b       	or	r21, r27
    21fe:	2f a7       	std	Y+47, r18	; 0x2f
    2200:	38 ab       	std	Y+48, r19	; 0x30
    2202:	49 ab       	std	Y+49, r20	; 0x31
    2204:	5a ab       	std	Y+50, r21	; 0x32
    2206:	2f a1       	ldd	r18, Y+39	; 0x27
    2208:	38 a5       	ldd	r19, Y+40	; 0x28
    220a:	49 a5       	ldd	r20, Y+41	; 0x29
    220c:	5a a5       	ldd	r21, Y+42	; 0x2a
    220e:	09 8c       	ldd	r0, Y+25	; 0x19
    2210:	04 c0       	rjmp	.+8      	; 0x221a <__stack+0x1b>
    2212:	22 0f       	add	r18, r18
    2214:	33 1f       	adc	r19, r19
    2216:	44 1f       	adc	r20, r20
    2218:	55 1f       	adc	r21, r21
    221a:	0a 94       	dec	r0
    221c:	d2 f7       	brpl	.-12     	; 0x2212 <__stack+0x13>
    221e:	2b a3       	std	Y+35, r18	; 0x23
    2220:	3c a3       	std	Y+36, r19	; 0x24
    2222:	4d a3       	std	Y+37, r20	; 0x25
    2224:	5e a3       	std	Y+38, r21	; 0x26
    2226:	8f a9       	ldd	r24, Y+55	; 0x37
    2228:	98 ad       	ldd	r25, Y+56	; 0x38
    222a:	a9 ad       	ldd	r26, Y+57	; 0x39
    222c:	ba ad       	ldd	r27, Y+58	; 0x3a
    222e:	cd 01       	movw	r24, r26
    2230:	aa 27       	eor	r26, r26
    2232:	bb 27       	eor	r27, r27
    2234:	63 96       	adiw	r28, 0x13	; 19
    2236:	8c af       	std	Y+60, r24	; 0x3c
    2238:	9d af       	std	Y+61, r25	; 0x3d
    223a:	ae af       	std	Y+62, r26	; 0x3e
    223c:	bf af       	std	Y+63, r27	; 0x3f
    223e:	63 97       	sbiw	r28, 0x13	; 19
    2240:	6f a8       	ldd	r6, Y+55	; 0x37
    2242:	78 ac       	ldd	r7, Y+56	; 0x38
    2244:	89 ac       	ldd	r8, Y+57	; 0x39
    2246:	9a ac       	ldd	r9, Y+58	; 0x3a
    2248:	4f ef       	ldi	r20, 0xFF	; 255
    224a:	24 2e       	mov	r2, r20
    224c:	4f ef       	ldi	r20, 0xFF	; 255
    224e:	34 2e       	mov	r3, r20
    2250:	41 2c       	mov	r4, r1
    2252:	51 2c       	mov	r5, r1
    2254:	62 20       	and	r6, r2
    2256:	73 20       	and	r7, r3
    2258:	84 20       	and	r8, r4
    225a:	95 20       	and	r9, r5
    225c:	c8 01       	movw	r24, r16
    225e:	b7 01       	movw	r22, r14
    2260:	63 96       	adiw	r28, 0x13	; 19
    2262:	2c ad       	ldd	r18, Y+60	; 0x3c
    2264:	3d ad       	ldd	r19, Y+61	; 0x3d
    2266:	4e ad       	ldd	r20, Y+62	; 0x3e
    2268:	5f ad       	ldd	r21, Y+63	; 0x3f
    226a:	63 97       	sbiw	r28, 0x13	; 19
    226c:	0e 94 73 13 	call	0x26e6	; 0x26e6 <__udivmodsi4>
    2270:	19 01       	movw	r2, r18
    2272:	2a 01       	movw	r4, r20
    2274:	ca 01       	movw	r24, r20
    2276:	b9 01       	movw	r22, r18
    2278:	a4 01       	movw	r20, r8
    227a:	93 01       	movw	r18, r6
    227c:	0e 94 54 13 	call	0x26a8	; 0x26a8 <__mulsi3>
    2280:	5b 01       	movw	r10, r22
    2282:	6c 01       	movw	r12, r24
    2284:	c8 01       	movw	r24, r16
    2286:	b7 01       	movw	r22, r14
    2288:	63 96       	adiw	r28, 0x13	; 19
    228a:	2c ad       	ldd	r18, Y+60	; 0x3c
    228c:	3d ad       	ldd	r19, Y+61	; 0x3d
    228e:	4e ad       	ldd	r20, Y+62	; 0x3e
    2290:	5f ad       	ldd	r21, Y+63	; 0x3f
    2292:	63 97       	sbiw	r28, 0x13	; 19
    2294:	0e 94 73 13 	call	0x26e6	; 0x26e6 <__udivmodsi4>
    2298:	cb 01       	movw	r24, r22
    229a:	77 27       	eor	r23, r23
    229c:	66 27       	eor	r22, r22
    229e:	ef a4       	ldd	r14, Y+47	; 0x2f
    22a0:	f8 a8       	ldd	r15, Y+48	; 0x30
    22a2:	09 a9       	ldd	r16, Y+49	; 0x31
    22a4:	1a a9       	ldd	r17, Y+50	; 0x32
    22a6:	98 01       	movw	r18, r16
    22a8:	44 27       	eor	r20, r20
    22aa:	55 27       	eor	r21, r21
    22ac:	7b 01       	movw	r14, r22
    22ae:	8c 01       	movw	r16, r24
    22b0:	e2 2a       	or	r14, r18
    22b2:	f3 2a       	or	r15, r19
    22b4:	04 2b       	or	r16, r20
    22b6:	15 2b       	or	r17, r21
    22b8:	ea 14       	cp	r14, r10
    22ba:	fb 04       	cpc	r15, r11
    22bc:	0c 05       	cpc	r16, r12
    22be:	1d 05       	cpc	r17, r13
    22c0:	00 f5       	brcc	.+64     	; 0x2302 <__stack+0x103>
    22c2:	08 94       	sec
    22c4:	21 08       	sbc	r2, r1
    22c6:	31 08       	sbc	r3, r1
    22c8:	41 08       	sbc	r4, r1
    22ca:	51 08       	sbc	r5, r1
    22cc:	2f a9       	ldd	r18, Y+55	; 0x37
    22ce:	38 ad       	ldd	r19, Y+56	; 0x38
    22d0:	49 ad       	ldd	r20, Y+57	; 0x39
    22d2:	5a ad       	ldd	r21, Y+58	; 0x3a
    22d4:	e2 0e       	add	r14, r18
    22d6:	f3 1e       	adc	r15, r19
    22d8:	04 1f       	adc	r16, r20
    22da:	15 1f       	adc	r17, r21
    22dc:	e2 16       	cp	r14, r18
    22de:	f3 06       	cpc	r15, r19
    22e0:	04 07       	cpc	r16, r20
    22e2:	15 07       	cpc	r17, r21
    22e4:	70 f0       	brcs	.+28     	; 0x2302 <__stack+0x103>
    22e6:	ea 14       	cp	r14, r10
    22e8:	fb 04       	cpc	r15, r11
    22ea:	0c 05       	cpc	r16, r12
    22ec:	1d 05       	cpc	r17, r13
    22ee:	48 f4       	brcc	.+18     	; 0x2302 <__stack+0x103>
    22f0:	08 94       	sec
    22f2:	21 08       	sbc	r2, r1
    22f4:	31 08       	sbc	r3, r1
    22f6:	41 08       	sbc	r4, r1
    22f8:	51 08       	sbc	r5, r1
    22fa:	e2 0e       	add	r14, r18
    22fc:	f3 1e       	adc	r15, r19
    22fe:	04 1f       	adc	r16, r20
    2300:	15 1f       	adc	r17, r21
    2302:	ea 18       	sub	r14, r10
    2304:	fb 08       	sbc	r15, r11
    2306:	0c 09       	sbc	r16, r12
    2308:	1d 09       	sbc	r17, r13
    230a:	c8 01       	movw	r24, r16
    230c:	b7 01       	movw	r22, r14
    230e:	63 96       	adiw	r28, 0x13	; 19
    2310:	2c ad       	ldd	r18, Y+60	; 0x3c
    2312:	3d ad       	ldd	r19, Y+61	; 0x3d
    2314:	4e ad       	ldd	r20, Y+62	; 0x3e
    2316:	5f ad       	ldd	r21, Y+63	; 0x3f
    2318:	63 97       	sbiw	r28, 0x13	; 19
    231a:	0e 94 73 13 	call	0x26e6	; 0x26e6 <__udivmodsi4>
    231e:	59 01       	movw	r10, r18
    2320:	6a 01       	movw	r12, r20
    2322:	ca 01       	movw	r24, r20
    2324:	b9 01       	movw	r22, r18
    2326:	a4 01       	movw	r20, r8
    2328:	93 01       	movw	r18, r6
    232a:	0e 94 54 13 	call	0x26a8	; 0x26a8 <__mulsi3>
    232e:	3b 01       	movw	r6, r22
    2330:	4c 01       	movw	r8, r24
    2332:	c8 01       	movw	r24, r16
    2334:	b7 01       	movw	r22, r14
    2336:	63 96       	adiw	r28, 0x13	; 19
    2338:	2c ad       	ldd	r18, Y+60	; 0x3c
    233a:	3d ad       	ldd	r19, Y+61	; 0x3d
    233c:	4e ad       	ldd	r20, Y+62	; 0x3e
    233e:	5f ad       	ldd	r21, Y+63	; 0x3f
    2340:	63 97       	sbiw	r28, 0x13	; 19
    2342:	0e 94 73 13 	call	0x26e6	; 0x26e6 <__udivmodsi4>
    2346:	cb 01       	movw	r24, r22
    2348:	77 27       	eor	r23, r23
    234a:	66 27       	eor	r22, r22
    234c:	2f a5       	ldd	r18, Y+47	; 0x2f
    234e:	38 a9       	ldd	r19, Y+48	; 0x30
    2350:	49 a9       	ldd	r20, Y+49	; 0x31
    2352:	5a a9       	ldd	r21, Y+50	; 0x32
    2354:	40 70       	andi	r20, 0x00	; 0
    2356:	50 70       	andi	r21, 0x00	; 0
    2358:	7b 01       	movw	r14, r22
    235a:	8c 01       	movw	r16, r24
    235c:	e2 2a       	or	r14, r18
    235e:	f3 2a       	or	r15, r19
    2360:	04 2b       	or	r16, r20
    2362:	15 2b       	or	r17, r21
    2364:	e6 14       	cp	r14, r6
    2366:	f7 04       	cpc	r15, r7
    2368:	08 05       	cpc	r16, r8
    236a:	19 05       	cpc	r17, r9
    236c:	00 f5       	brcc	.+64     	; 0x23ae <__stack+0x1af>
    236e:	08 94       	sec
    2370:	a1 08       	sbc	r10, r1
    2372:	b1 08       	sbc	r11, r1
    2374:	c1 08       	sbc	r12, r1
    2376:	d1 08       	sbc	r13, r1
    2378:	8f a9       	ldd	r24, Y+55	; 0x37
    237a:	98 ad       	ldd	r25, Y+56	; 0x38
    237c:	a9 ad       	ldd	r26, Y+57	; 0x39
    237e:	ba ad       	ldd	r27, Y+58	; 0x3a
    2380:	e8 0e       	add	r14, r24
    2382:	f9 1e       	adc	r15, r25
    2384:	0a 1f       	adc	r16, r26
    2386:	1b 1f       	adc	r17, r27
    2388:	e8 16       	cp	r14, r24
    238a:	f9 06       	cpc	r15, r25
    238c:	0a 07       	cpc	r16, r26
    238e:	1b 07       	cpc	r17, r27
    2390:	70 f0       	brcs	.+28     	; 0x23ae <__stack+0x1af>
    2392:	e6 14       	cp	r14, r6
    2394:	f7 04       	cpc	r15, r7
    2396:	08 05       	cpc	r16, r8
    2398:	19 05       	cpc	r17, r9
    239a:	48 f4       	brcc	.+18     	; 0x23ae <__stack+0x1af>
    239c:	08 94       	sec
    239e:	a1 08       	sbc	r10, r1
    23a0:	b1 08       	sbc	r11, r1
    23a2:	c1 08       	sbc	r12, r1
    23a4:	d1 08       	sbc	r13, r1
    23a6:	e8 0e       	add	r14, r24
    23a8:	f9 1e       	adc	r15, r25
    23aa:	0a 1f       	adc	r16, r26
    23ac:	1b 1f       	adc	r17, r27
    23ae:	e6 18       	sub	r14, r6
    23b0:	f7 08       	sbc	r15, r7
    23b2:	08 09       	sbc	r16, r8
    23b4:	19 09       	sbc	r17, r9
    23b6:	eb a6       	std	Y+43, r14	; 0x2b
    23b8:	fc a6       	std	Y+44, r15	; 0x2c
    23ba:	0d a7       	std	Y+45, r16	; 0x2d
    23bc:	1e a7       	std	Y+46, r17	; 0x2e
    23be:	d1 01       	movw	r26, r2
    23c0:	99 27       	eor	r25, r25
    23c2:	88 27       	eor	r24, r24
    23c4:	86 01       	movw	r16, r12
    23c6:	75 01       	movw	r14, r10
    23c8:	e8 2a       	or	r14, r24
    23ca:	f9 2a       	or	r15, r25
    23cc:	0a 2b       	or	r16, r26
    23ce:	1b 2b       	or	r17, r27
    23d0:	bf ef       	ldi	r27, 0xFF	; 255
    23d2:	ab 2e       	mov	r10, r27
    23d4:	bf ef       	ldi	r27, 0xFF	; 255
    23d6:	bb 2e       	mov	r11, r27
    23d8:	c1 2c       	mov	r12, r1
    23da:	d1 2c       	mov	r13, r1
    23dc:	ae 20       	and	r10, r14
    23de:	bf 20       	and	r11, r15
    23e0:	c0 22       	and	r12, r16
    23e2:	d1 22       	and	r13, r17
    23e4:	78 01       	movw	r14, r16
    23e6:	00 27       	eor	r16, r16
    23e8:	11 27       	eor	r17, r17
    23ea:	6f 8c       	ldd	r6, Y+31	; 0x1f
    23ec:	78 a0       	ldd	r7, Y+32	; 0x20
    23ee:	89 a0       	ldd	r8, Y+33	; 0x21
    23f0:	9a a0       	ldd	r9, Y+34	; 0x22
    23f2:	ff ef       	ldi	r31, 0xFF	; 255
    23f4:	2f 2e       	mov	r2, r31
    23f6:	ff ef       	ldi	r31, 0xFF	; 255
    23f8:	3f 2e       	mov	r3, r31
    23fa:	41 2c       	mov	r4, r1
    23fc:	51 2c       	mov	r5, r1
    23fe:	62 20       	and	r6, r2
    2400:	73 20       	and	r7, r3
    2402:	84 20       	and	r8, r4
    2404:	95 20       	and	r9, r5
    2406:	2f 8d       	ldd	r18, Y+31	; 0x1f
    2408:	38 a1       	ldd	r19, Y+32	; 0x20
    240a:	49 a1       	ldd	r20, Y+33	; 0x21
    240c:	5a a1       	ldd	r21, Y+34	; 0x22
    240e:	9a 01       	movw	r18, r20
    2410:	44 27       	eor	r20, r20
    2412:	55 27       	eor	r21, r21
    2414:	6b 96       	adiw	r28, 0x1b	; 27
    2416:	2c af       	std	Y+60, r18	; 0x3c
    2418:	3d af       	std	Y+61, r19	; 0x3d
    241a:	4e af       	std	Y+62, r20	; 0x3e
    241c:	5f af       	std	Y+63, r21	; 0x3f
    241e:	6b 97       	sbiw	r28, 0x1b	; 27
    2420:	c6 01       	movw	r24, r12
    2422:	b5 01       	movw	r22, r10
    2424:	a4 01       	movw	r20, r8
    2426:	93 01       	movw	r18, r6
    2428:	0e 94 54 13 	call	0x26a8	; 0x26a8 <__mulsi3>
    242c:	67 96       	adiw	r28, 0x17	; 23
    242e:	6c af       	std	Y+60, r22	; 0x3c
    2430:	7d af       	std	Y+61, r23	; 0x3d
    2432:	8e af       	std	Y+62, r24	; 0x3e
    2434:	9f af       	std	Y+63, r25	; 0x3f
    2436:	67 97       	sbiw	r28, 0x17	; 23
    2438:	c6 01       	movw	r24, r12
    243a:	b5 01       	movw	r22, r10
    243c:	6b 96       	adiw	r28, 0x1b	; 27
    243e:	2c ad       	ldd	r18, Y+60	; 0x3c
    2440:	3d ad       	ldd	r19, Y+61	; 0x3d
    2442:	4e ad       	ldd	r20, Y+62	; 0x3e
    2444:	5f ad       	ldd	r21, Y+63	; 0x3f
    2446:	6b 97       	sbiw	r28, 0x1b	; 27
    2448:	0e 94 54 13 	call	0x26a8	; 0x26a8 <__mulsi3>
    244c:	1b 01       	movw	r2, r22
    244e:	2c 01       	movw	r4, r24
    2450:	c8 01       	movw	r24, r16
    2452:	b7 01       	movw	r22, r14
    2454:	a4 01       	movw	r20, r8
    2456:	93 01       	movw	r18, r6
    2458:	0e 94 54 13 	call	0x26a8	; 0x26a8 <__mulsi3>
    245c:	5b 01       	movw	r10, r22
    245e:	6c 01       	movw	r12, r24
    2460:	c8 01       	movw	r24, r16
    2462:	b7 01       	movw	r22, r14
    2464:	6b 96       	adiw	r28, 0x1b	; 27
    2466:	2c ad       	ldd	r18, Y+60	; 0x3c
    2468:	3d ad       	ldd	r19, Y+61	; 0x3d
    246a:	4e ad       	ldd	r20, Y+62	; 0x3e
    246c:	5f ad       	ldd	r21, Y+63	; 0x3f
    246e:	6b 97       	sbiw	r28, 0x1b	; 27
    2470:	0e 94 54 13 	call	0x26a8	; 0x26a8 <__mulsi3>
    2474:	7b 01       	movw	r14, r22
    2476:	8c 01       	movw	r16, r24
    2478:	a6 01       	movw	r20, r12
    247a:	95 01       	movw	r18, r10
    247c:	22 0d       	add	r18, r2
    247e:	33 1d       	adc	r19, r3
    2480:	44 1d       	adc	r20, r4
    2482:	55 1d       	adc	r21, r5
    2484:	67 96       	adiw	r28, 0x17	; 23
    2486:	2c ac       	ldd	r2, Y+60	; 0x3c
    2488:	3d ac       	ldd	r3, Y+61	; 0x3d
    248a:	4e ac       	ldd	r4, Y+62	; 0x3e
    248c:	5f ac       	ldd	r5, Y+63	; 0x3f
    248e:	67 97       	sbiw	r28, 0x17	; 23
    2490:	c2 01       	movw	r24, r4
    2492:	aa 27       	eor	r26, r26
    2494:	bb 27       	eor	r27, r27
    2496:	28 0f       	add	r18, r24
    2498:	39 1f       	adc	r19, r25
    249a:	4a 1f       	adc	r20, r26
    249c:	5b 1f       	adc	r21, r27
    249e:	2a 15       	cp	r18, r10
    24a0:	3b 05       	cpc	r19, r11
    24a2:	4c 05       	cpc	r20, r12
    24a4:	5d 05       	cpc	r21, r13
    24a6:	48 f4       	brcc	.+18     	; 0x24ba <__stack+0x2bb>
    24a8:	41 2c       	mov	r4, r1
    24aa:	51 2c       	mov	r5, r1
    24ac:	61 e0       	ldi	r22, 0x01	; 1
    24ae:	66 2e       	mov	r6, r22
    24b0:	71 2c       	mov	r7, r1
    24b2:	e4 0c       	add	r14, r4
    24b4:	f5 1c       	adc	r15, r5
    24b6:	06 1d       	adc	r16, r6
    24b8:	17 1d       	adc	r17, r7
    24ba:	ca 01       	movw	r24, r20
    24bc:	aa 27       	eor	r26, r26
    24be:	bb 27       	eor	r27, r27
    24c0:	57 01       	movw	r10, r14
    24c2:	68 01       	movw	r12, r16
    24c4:	a8 0e       	add	r10, r24
    24c6:	b9 1e       	adc	r11, r25
    24c8:	ca 1e       	adc	r12, r26
    24ca:	db 1e       	adc	r13, r27
    24cc:	a9 01       	movw	r20, r18
    24ce:	33 27       	eor	r19, r19
    24d0:	22 27       	eor	r18, r18
    24d2:	67 96       	adiw	r28, 0x17	; 23
    24d4:	8c ad       	ldd	r24, Y+60	; 0x3c
    24d6:	9d ad       	ldd	r25, Y+61	; 0x3d
    24d8:	ae ad       	ldd	r26, Y+62	; 0x3e
    24da:	bf ad       	ldd	r27, Y+63	; 0x3f
    24dc:	67 97       	sbiw	r28, 0x17	; 23
    24de:	a0 70       	andi	r26, 0x00	; 0
    24e0:	b0 70       	andi	r27, 0x00	; 0
    24e2:	79 01       	movw	r14, r18
    24e4:	8a 01       	movw	r16, r20
    24e6:	e8 0e       	add	r14, r24
    24e8:	f9 1e       	adc	r15, r25
    24ea:	0a 1f       	adc	r16, r26
    24ec:	1b 1f       	adc	r17, r27
    24ee:	6b a4       	ldd	r6, Y+43	; 0x2b
    24f0:	7c a4       	ldd	r7, Y+44	; 0x2c
    24f2:	8d a4       	ldd	r8, Y+45	; 0x2d
    24f4:	9e a4       	ldd	r9, Y+46	; 0x2e
    24f6:	6a 14       	cp	r6, r10
    24f8:	7b 04       	cpc	r7, r11
    24fa:	8c 04       	cpc	r8, r12
    24fc:	9d 04       	cpc	r9, r13
    24fe:	70 f0       	brcs	.+28     	; 0x251c <__stack+0x31d>
    2500:	a6 14       	cp	r10, r6
    2502:	b7 04       	cpc	r11, r7
    2504:	c8 04       	cpc	r12, r8
    2506:	d9 04       	cpc	r13, r9
    2508:	91 f5       	brne	.+100    	; 0x256e <__stack+0x36f>
    250a:	2b a1       	ldd	r18, Y+35	; 0x23
    250c:	3c a1       	ldd	r19, Y+36	; 0x24
    250e:	4d a1       	ldd	r20, Y+37	; 0x25
    2510:	5e a1       	ldd	r21, Y+38	; 0x26
    2512:	2e 15       	cp	r18, r14
    2514:	3f 05       	cpc	r19, r15
    2516:	40 07       	cpc	r20, r16
    2518:	51 07       	cpc	r21, r17
    251a:	48 f5       	brcc	.+82     	; 0x256e <__stack+0x36f>
    251c:	37 01       	movw	r6, r14
    251e:	48 01       	movw	r8, r16
    2520:	8f 8d       	ldd	r24, Y+31	; 0x1f
    2522:	98 a1       	ldd	r25, Y+32	; 0x20
    2524:	a9 a1       	ldd	r26, Y+33	; 0x21
    2526:	ba a1       	ldd	r27, Y+34	; 0x22
    2528:	68 1a       	sub	r6, r24
    252a:	79 0a       	sbc	r7, r25
    252c:	8a 0a       	sbc	r8, r26
    252e:	9b 0a       	sbc	r9, r27
    2530:	a6 01       	movw	r20, r12
    2532:	95 01       	movw	r18, r10
    2534:	2f a8       	ldd	r2, Y+55	; 0x37
    2536:	38 ac       	ldd	r3, Y+56	; 0x38
    2538:	49 ac       	ldd	r4, Y+57	; 0x39
    253a:	5a ac       	ldd	r5, Y+58	; 0x3a
    253c:	22 19       	sub	r18, r2
    253e:	33 09       	sbc	r19, r3
    2540:	44 09       	sbc	r20, r4
    2542:	55 09       	sbc	r21, r5
    2544:	60 e0       	ldi	r22, 0x00	; 0
    2546:	70 e0       	ldi	r23, 0x00	; 0
    2548:	80 e0       	ldi	r24, 0x00	; 0
    254a:	90 e0       	ldi	r25, 0x00	; 0
    254c:	e6 14       	cp	r14, r6
    254e:	f7 04       	cpc	r15, r7
    2550:	08 05       	cpc	r16, r8
    2552:	19 05       	cpc	r17, r9
    2554:	20 f4       	brcc	.+8      	; 0x255e <__stack+0x35f>
    2556:	61 e0       	ldi	r22, 0x01	; 1
    2558:	70 e0       	ldi	r23, 0x00	; 0
    255a:	80 e0       	ldi	r24, 0x00	; 0
    255c:	90 e0       	ldi	r25, 0x00	; 0
    255e:	59 01       	movw	r10, r18
    2560:	6a 01       	movw	r12, r20
    2562:	a6 1a       	sub	r10, r22
    2564:	b7 0a       	sbc	r11, r23
    2566:	c8 0a       	sbc	r12, r24
    2568:	d9 0a       	sbc	r13, r25
    256a:	84 01       	movw	r16, r8
    256c:	73 01       	movw	r14, r6
    256e:	4b a0       	ldd	r4, Y+35	; 0x23
    2570:	5c a0       	ldd	r5, Y+36	; 0x24
    2572:	6d a0       	ldd	r6, Y+37	; 0x25
    2574:	7e a0       	ldd	r7, Y+38	; 0x26
    2576:	4e 18       	sub	r4, r14
    2578:	5f 08       	sbc	r5, r15
    257a:	60 0a       	sbc	r6, r16
    257c:	71 0a       	sbc	r7, r17
    257e:	83 01       	movw	r16, r6
    2580:	72 01       	movw	r14, r4
    2582:	2b a5       	ldd	r18, Y+43	; 0x2b
    2584:	3c a5       	ldd	r19, Y+44	; 0x2c
    2586:	4d a5       	ldd	r20, Y+45	; 0x2d
    2588:	5e a5       	ldd	r21, Y+46	; 0x2e
    258a:	2a 19       	sub	r18, r10
    258c:	3b 09       	sbc	r19, r11
    258e:	4c 09       	sbc	r20, r12
    2590:	5d 09       	sbc	r21, r13
    2592:	60 e0       	ldi	r22, 0x00	; 0
    2594:	70 e0       	ldi	r23, 0x00	; 0
    2596:	80 e0       	ldi	r24, 0x00	; 0
    2598:	90 e0       	ldi	r25, 0x00	; 0
    259a:	6b a0       	ldd	r6, Y+35	; 0x23
    259c:	7c a0       	ldd	r7, Y+36	; 0x24
    259e:	8d a0       	ldd	r8, Y+37	; 0x25
    25a0:	9e a0       	ldd	r9, Y+38	; 0x26
    25a2:	6e 14       	cp	r6, r14
    25a4:	7f 04       	cpc	r7, r15
    25a6:	80 06       	cpc	r8, r16
    25a8:	91 06       	cpc	r9, r17
    25aa:	20 f4       	brcc	.+8      	; 0x25b4 <__stack+0x3b5>
    25ac:	61 e0       	ldi	r22, 0x01	; 1
    25ae:	70 e0       	ldi	r23, 0x00	; 0
    25b0:	80 e0       	ldi	r24, 0x00	; 0
    25b2:	90 e0       	ldi	r25, 0x00	; 0
    25b4:	26 1b       	sub	r18, r22
    25b6:	37 0b       	sbc	r19, r23
    25b8:	48 0b       	sbc	r20, r24
    25ba:	59 0b       	sbc	r21, r25
    25bc:	da 01       	movw	r26, r20
    25be:	c9 01       	movw	r24, r18
    25c0:	0d 8c       	ldd	r0, Y+29	; 0x1d
    25c2:	04 c0       	rjmp	.+8      	; 0x25cc <__stack+0x3cd>
    25c4:	22 0f       	add	r18, r18
    25c6:	33 1f       	adc	r19, r19
    25c8:	44 1f       	adc	r20, r20
    25ca:	55 1f       	adc	r21, r21
    25cc:	0a 94       	dec	r0
    25ce:	d2 f7       	brpl	.-12     	; 0x25c4 <__stack+0x3c5>
    25d0:	09 8c       	ldd	r0, Y+25	; 0x19
    25d2:	04 c0       	rjmp	.+8      	; 0x25dc <__stack+0x3dd>
    25d4:	16 95       	lsr	r17
    25d6:	07 95       	ror	r16
    25d8:	f7 94       	ror	r15
    25da:	e7 94       	ror	r14
    25dc:	0a 94       	dec	r0
    25de:	d2 f7       	brpl	.-12     	; 0x25d4 <__stack+0x3d5>
    25e0:	2e 29       	or	r18, r14
    25e2:	3f 29       	or	r19, r15
    25e4:	40 2b       	or	r20, r16
    25e6:	51 2b       	or	r21, r17
    25e8:	29 8b       	std	Y+17, r18	; 0x11
    25ea:	3a 8b       	std	Y+18, r19	; 0x12
    25ec:	4b 8b       	std	Y+19, r20	; 0x13
    25ee:	5c 8b       	std	Y+20, r21	; 0x14
    25f0:	09 8c       	ldd	r0, Y+25	; 0x19
    25f2:	04 c0       	rjmp	.+8      	; 0x25fc <__stack+0x3fd>
    25f4:	b6 95       	lsr	r27
    25f6:	a7 95       	ror	r26
    25f8:	97 95       	ror	r25
    25fa:	87 95       	ror	r24
    25fc:	0a 94       	dec	r0
    25fe:	d2 f7       	brpl	.-12     	; 0x25f4 <__stack+0x3f5>
    2600:	8d 8b       	std	Y+21, r24	; 0x15
    2602:	9e 8b       	std	Y+22, r25	; 0x16
    2604:	af 8b       	std	Y+23, r26	; 0x17
    2606:	b8 8f       	std	Y+24, r27	; 0x18
    2608:	29 88       	ldd	r2, Y+17	; 0x11
    260a:	3a 88       	ldd	r3, Y+18	; 0x12
    260c:	4b 88       	ldd	r4, Y+19	; 0x13
    260e:	5c 88       	ldd	r5, Y+20	; 0x14
    2610:	6d 88       	ldd	r6, Y+21	; 0x15
    2612:	7e 88       	ldd	r7, Y+22	; 0x16
    2614:	8f 88       	ldd	r8, Y+23	; 0x17
    2616:	98 8c       	ldd	r9, Y+24	; 0x18
    2618:	22 2d       	mov	r18, r2
    261a:	33 2d       	mov	r19, r3
    261c:	44 2d       	mov	r20, r4
    261e:	55 2d       	mov	r21, r5
    2620:	66 2d       	mov	r22, r6
    2622:	77 2d       	mov	r23, r7
    2624:	88 2d       	mov	r24, r8
    2626:	99 2d       	mov	r25, r9
    2628:	e2 e1       	ldi	r30, 0x12	; 18
    262a:	c2 5a       	subi	r28, 0xA2	; 162
    262c:	df 4f       	sbci	r29, 0xFF	; 255
    262e:	0c 94 b1 13 	jmp	0x2762	; 0x2762 <__epilogue_restores__>

00002632 <__udivmodqi4>:
    2632:	99 1b       	sub	r25, r25
    2634:	79 e0       	ldi	r23, 0x09	; 9
    2636:	04 c0       	rjmp	.+8      	; 0x2640 <__udivmodqi4_ep>

00002638 <__udivmodqi4_loop>:
    2638:	99 1f       	adc	r25, r25
    263a:	96 17       	cp	r25, r22
    263c:	08 f0       	brcs	.+2      	; 0x2640 <__udivmodqi4_ep>
    263e:	96 1b       	sub	r25, r22

00002640 <__udivmodqi4_ep>:
    2640:	88 1f       	adc	r24, r24
    2642:	7a 95       	dec	r23
    2644:	c9 f7       	brne	.-14     	; 0x2638 <__udivmodqi4_loop>
    2646:	80 95       	com	r24
    2648:	08 95       	ret

0000264a <__udivmodhi4>:
    264a:	aa 1b       	sub	r26, r26
    264c:	bb 1b       	sub	r27, r27
    264e:	51 e1       	ldi	r21, 0x11	; 17
    2650:	07 c0       	rjmp	.+14     	; 0x2660 <__udivmodhi4_ep>

00002652 <__udivmodhi4_loop>:
    2652:	aa 1f       	adc	r26, r26
    2654:	bb 1f       	adc	r27, r27
    2656:	a6 17       	cp	r26, r22
    2658:	b7 07       	cpc	r27, r23
    265a:	10 f0       	brcs	.+4      	; 0x2660 <__udivmodhi4_ep>
    265c:	a6 1b       	sub	r26, r22
    265e:	b7 0b       	sbc	r27, r23

00002660 <__udivmodhi4_ep>:
    2660:	88 1f       	adc	r24, r24
    2662:	99 1f       	adc	r25, r25
    2664:	5a 95       	dec	r21
    2666:	a9 f7       	brne	.-22     	; 0x2652 <__udivmodhi4_loop>
    2668:	80 95       	com	r24
    266a:	90 95       	com	r25
    266c:	bc 01       	movw	r22, r24
    266e:	cd 01       	movw	r24, r26
    2670:	08 95       	ret

00002672 <__divmodsi4>:
    2672:	97 fb       	bst	r25, 7
    2674:	09 2e       	mov	r0, r25
    2676:	05 26       	eor	r0, r21
    2678:	0e d0       	rcall	.+28     	; 0x2696 <__divmodsi4_neg1>
    267a:	57 fd       	sbrc	r21, 7
    267c:	04 d0       	rcall	.+8      	; 0x2686 <__divmodsi4_neg2>
    267e:	33 d0       	rcall	.+102    	; 0x26e6 <__udivmodsi4>
    2680:	0a d0       	rcall	.+20     	; 0x2696 <__divmodsi4_neg1>
    2682:	00 1c       	adc	r0, r0
    2684:	38 f4       	brcc	.+14     	; 0x2694 <__divmodsi4_exit>

00002686 <__divmodsi4_neg2>:
    2686:	50 95       	com	r21
    2688:	40 95       	com	r20
    268a:	30 95       	com	r19
    268c:	21 95       	neg	r18
    268e:	3f 4f       	sbci	r19, 0xFF	; 255
    2690:	4f 4f       	sbci	r20, 0xFF	; 255
    2692:	5f 4f       	sbci	r21, 0xFF	; 255

00002694 <__divmodsi4_exit>:
    2694:	08 95       	ret

00002696 <__divmodsi4_neg1>:
    2696:	f6 f7       	brtc	.-4      	; 0x2694 <__divmodsi4_exit>
    2698:	90 95       	com	r25
    269a:	80 95       	com	r24
    269c:	70 95       	com	r23
    269e:	61 95       	neg	r22
    26a0:	7f 4f       	sbci	r23, 0xFF	; 255
    26a2:	8f 4f       	sbci	r24, 0xFF	; 255
    26a4:	9f 4f       	sbci	r25, 0xFF	; 255
    26a6:	08 95       	ret

000026a8 <__mulsi3>:
    26a8:	62 9f       	mul	r22, r18
    26aa:	d0 01       	movw	r26, r0
    26ac:	73 9f       	mul	r23, r19
    26ae:	f0 01       	movw	r30, r0
    26b0:	82 9f       	mul	r24, r18
    26b2:	e0 0d       	add	r30, r0
    26b4:	f1 1d       	adc	r31, r1
    26b6:	64 9f       	mul	r22, r20
    26b8:	e0 0d       	add	r30, r0
    26ba:	f1 1d       	adc	r31, r1
    26bc:	92 9f       	mul	r25, r18
    26be:	f0 0d       	add	r31, r0
    26c0:	83 9f       	mul	r24, r19
    26c2:	f0 0d       	add	r31, r0
    26c4:	74 9f       	mul	r23, r20
    26c6:	f0 0d       	add	r31, r0
    26c8:	65 9f       	mul	r22, r21
    26ca:	f0 0d       	add	r31, r0
    26cc:	99 27       	eor	r25, r25
    26ce:	72 9f       	mul	r23, r18
    26d0:	b0 0d       	add	r27, r0
    26d2:	e1 1d       	adc	r30, r1
    26d4:	f9 1f       	adc	r31, r25
    26d6:	63 9f       	mul	r22, r19
    26d8:	b0 0d       	add	r27, r0
    26da:	e1 1d       	adc	r30, r1
    26dc:	f9 1f       	adc	r31, r25
    26de:	bd 01       	movw	r22, r26
    26e0:	cf 01       	movw	r24, r30
    26e2:	11 24       	eor	r1, r1
    26e4:	08 95       	ret

000026e6 <__udivmodsi4>:
    26e6:	a1 e2       	ldi	r26, 0x21	; 33
    26e8:	1a 2e       	mov	r1, r26
    26ea:	aa 1b       	sub	r26, r26
    26ec:	bb 1b       	sub	r27, r27
    26ee:	fd 01       	movw	r30, r26
    26f0:	0d c0       	rjmp	.+26     	; 0x270c <__udivmodsi4_ep>

000026f2 <__udivmodsi4_loop>:
    26f2:	aa 1f       	adc	r26, r26
    26f4:	bb 1f       	adc	r27, r27
    26f6:	ee 1f       	adc	r30, r30
    26f8:	ff 1f       	adc	r31, r31
    26fa:	a2 17       	cp	r26, r18
    26fc:	b3 07       	cpc	r27, r19
    26fe:	e4 07       	cpc	r30, r20
    2700:	f5 07       	cpc	r31, r21
    2702:	20 f0       	brcs	.+8      	; 0x270c <__udivmodsi4_ep>
    2704:	a2 1b       	sub	r26, r18
    2706:	b3 0b       	sbc	r27, r19
    2708:	e4 0b       	sbc	r30, r20
    270a:	f5 0b       	sbc	r31, r21

0000270c <__udivmodsi4_ep>:
    270c:	66 1f       	adc	r22, r22
    270e:	77 1f       	adc	r23, r23
    2710:	88 1f       	adc	r24, r24
    2712:	99 1f       	adc	r25, r25
    2714:	1a 94       	dec	r1
    2716:	69 f7       	brne	.-38     	; 0x26f2 <__udivmodsi4_loop>
    2718:	60 95       	com	r22
    271a:	70 95       	com	r23
    271c:	80 95       	com	r24
    271e:	90 95       	com	r25
    2720:	9b 01       	movw	r18, r22
    2722:	ac 01       	movw	r20, r24
    2724:	bd 01       	movw	r22, r26
    2726:	cf 01       	movw	r24, r30
    2728:	08 95       	ret

0000272a <__prologue_saves__>:
    272a:	2f 92       	push	r2
    272c:	3f 92       	push	r3
    272e:	4f 92       	push	r4
    2730:	5f 92       	push	r5
    2732:	6f 92       	push	r6
    2734:	7f 92       	push	r7
    2736:	8f 92       	push	r8
    2738:	9f 92       	push	r9
    273a:	af 92       	push	r10
    273c:	bf 92       	push	r11
    273e:	cf 92       	push	r12
    2740:	df 92       	push	r13
    2742:	ef 92       	push	r14
    2744:	ff 92       	push	r15
    2746:	0f 93       	push	r16
    2748:	1f 93       	push	r17
    274a:	cf 93       	push	r28
    274c:	df 93       	push	r29
    274e:	cd b7       	in	r28, 0x3d	; 61
    2750:	de b7       	in	r29, 0x3e	; 62
    2752:	ca 1b       	sub	r28, r26
    2754:	db 0b       	sbc	r29, r27
    2756:	0f b6       	in	r0, 0x3f	; 63
    2758:	f8 94       	cli
    275a:	de bf       	out	0x3e, r29	; 62
    275c:	0f be       	out	0x3f, r0	; 63
    275e:	cd bf       	out	0x3d, r28	; 61
    2760:	19 94       	eijmp

00002762 <__epilogue_restores__>:
    2762:	2a 88       	ldd	r2, Y+18	; 0x12
    2764:	39 88       	ldd	r3, Y+17	; 0x11
    2766:	48 88       	ldd	r4, Y+16	; 0x10
    2768:	5f 84       	ldd	r5, Y+15	; 0x0f
    276a:	6e 84       	ldd	r6, Y+14	; 0x0e
    276c:	7d 84       	ldd	r7, Y+13	; 0x0d
    276e:	8c 84       	ldd	r8, Y+12	; 0x0c
    2770:	9b 84       	ldd	r9, Y+11	; 0x0b
    2772:	aa 84       	ldd	r10, Y+10	; 0x0a
    2774:	b9 84       	ldd	r11, Y+9	; 0x09
    2776:	c8 84       	ldd	r12, Y+8	; 0x08
    2778:	df 80       	ldd	r13, Y+7	; 0x07
    277a:	ee 80       	ldd	r14, Y+6	; 0x06
    277c:	fd 80       	ldd	r15, Y+5	; 0x05
    277e:	0c 81       	ldd	r16, Y+4	; 0x04
    2780:	1b 81       	ldd	r17, Y+3	; 0x03
    2782:	aa 81       	ldd	r26, Y+2	; 0x02
    2784:	b9 81       	ldd	r27, Y+1	; 0x01
    2786:	ce 0f       	add	r28, r30
    2788:	d1 1d       	adc	r29, r1
    278a:	0f b6       	in	r0, 0x3f	; 63
    278c:	f8 94       	cli
    278e:	de bf       	out	0x3e, r29	; 62
    2790:	0f be       	out	0x3f, r0	; 63
    2792:	cd bf       	out	0x3d, r28	; 61
    2794:	ed 01       	movw	r28, r26
    2796:	08 95       	ret

00002798 <_exit>:
    2798:	ff cf       	rjmp	.-2      	; 0x2798 <_exit>
