
p8.elf:     file format elf32-avr

Sections:
Idx Name          Size      VMA       LMA       File off  Algn
  0 .text         00000414  00000000  00000000  00000074  2**1
                  CONTENTS, ALLOC, LOAD, READONLY, CODE
  1 .bss          00000007  00800200  00000414  00000488  2**0
                  ALLOC
  2 .stab         0000042c  00000000  00000000  00000488  2**2
                  CONTENTS, READONLY, DEBUGGING
  3 .stabstr      0000005f  00000000  00000000  000008b4  2**0
                  CONTENTS, READONLY, DEBUGGING
  4 .debug_aranges 00000020  00000000  00000000  00000913  2**0
                  CONTENTS, READONLY, DEBUGGING
  5 .debug_pubnames 000000b7  00000000  00000000  00000933  2**0
                  CONTENTS, READONLY, DEBUGGING
  6 .debug_info   00000457  00000000  00000000  000009ea  2**0
                  CONTENTS, READONLY, DEBUGGING
  7 .debug_abbrev 0000020a  00000000  00000000  00000e41  2**0
                  CONTENTS, READONLY, DEBUGGING
  8 .debug_line   0000036a  00000000  00000000  0000104b  2**0
                  CONTENTS, READONLY, DEBUGGING
  9 .debug_frame  000000d0  00000000  00000000  000013b8  2**2
                  CONTENTS, READONLY, DEBUGGING
 10 .debug_str    00000123  00000000  00000000  00001488  2**0
                  CONTENTS, READONLY, DEBUGGING
 11 .debug_loc    0000017c  00000000  00000000  000015ab  2**0
                  CONTENTS, READONLY, DEBUGGING
Disassembly of section .text:

00000000 <__vectors>:
   0:	0c 94 72 00 	jmp	0xe4	; 0xe4 <__ctors_end>
   4:	0c 94 93 00 	jmp	0x126	; 0x126 <__bad_interrupt>
   8:	0c 94 93 00 	jmp	0x126	; 0x126 <__bad_interrupt>
   c:	0c 94 93 00 	jmp	0x126	; 0x126 <__bad_interrupt>
  10:	0c 94 93 00 	jmp	0x126	; 0x126 <__bad_interrupt>
  14:	0c 94 93 00 	jmp	0x126	; 0x126 <__bad_interrupt>
  18:	0c 94 93 00 	jmp	0x126	; 0x126 <__bad_interrupt>
  1c:	0c 94 93 00 	jmp	0x126	; 0x126 <__bad_interrupt>
  20:	0c 94 93 00 	jmp	0x126	; 0x126 <__bad_interrupt>
  24:	0c 94 93 00 	jmp	0x126	; 0x126 <__bad_interrupt>
  28:	0c 94 93 00 	jmp	0x126	; 0x126 <__bad_interrupt>
  2c:	0c 94 93 00 	jmp	0x126	; 0x126 <__bad_interrupt>
  30:	0c 94 93 00 	jmp	0x126	; 0x126 <__bad_interrupt>
  34:	0c 94 93 00 	jmp	0x126	; 0x126 <__bad_interrupt>
  38:	0c 94 93 00 	jmp	0x126	; 0x126 <__bad_interrupt>
  3c:	0c 94 93 00 	jmp	0x126	; 0x126 <__bad_interrupt>
  40:	0c 94 93 00 	jmp	0x126	; 0x126 <__bad_interrupt>
  44:	0c 94 93 00 	jmp	0x126	; 0x126 <__bad_interrupt>
  48:	0c 94 93 00 	jmp	0x126	; 0x126 <__bad_interrupt>
  4c:	0c 94 93 00 	jmp	0x126	; 0x126 <__bad_interrupt>
  50:	0c 94 93 00 	jmp	0x126	; 0x126 <__bad_interrupt>
  54:	0c 94 93 00 	jmp	0x126	; 0x126 <__bad_interrupt>
  58:	0c 94 93 00 	jmp	0x126	; 0x126 <__bad_interrupt>
  5c:	0c 94 93 00 	jmp	0x126	; 0x126 <__bad_interrupt>
  60:	0c 94 93 00 	jmp	0x126	; 0x126 <__bad_interrupt>
  64:	0c 94 93 00 	jmp	0x126	; 0x126 <__bad_interrupt>
  68:	0c 94 93 00 	jmp	0x126	; 0x126 <__bad_interrupt>
  6c:	0c 94 93 00 	jmp	0x126	; 0x126 <__bad_interrupt>
  70:	0c 94 93 00 	jmp	0x126	; 0x126 <__bad_interrupt>
  74:	0c 94 93 00 	jmp	0x126	; 0x126 <__bad_interrupt>
  78:	0c 94 93 00 	jmp	0x126	; 0x126 <__bad_interrupt>
  7c:	0c 94 93 00 	jmp	0x126	; 0x126 <__bad_interrupt>
  80:	0c 94 93 00 	jmp	0x126	; 0x126 <__bad_interrupt>
  84:	0c 94 93 00 	jmp	0x126	; 0x126 <__bad_interrupt>
  88:	0c 94 93 00 	jmp	0x126	; 0x126 <__bad_interrupt>
  8c:	0c 94 93 00 	jmp	0x126	; 0x126 <__bad_interrupt>
  90:	0c 94 93 00 	jmp	0x126	; 0x126 <__bad_interrupt>
  94:	0c 94 93 00 	jmp	0x126	; 0x126 <__bad_interrupt>
  98:	0c 94 93 00 	jmp	0x126	; 0x126 <__bad_interrupt>
  9c:	0c 94 93 00 	jmp	0x126	; 0x126 <__bad_interrupt>
  a0:	0c 94 93 00 	jmp	0x126	; 0x126 <__bad_interrupt>
  a4:	0c 94 93 00 	jmp	0x126	; 0x126 <__bad_interrupt>
  a8:	0c 94 93 00 	jmp	0x126	; 0x126 <__bad_interrupt>
  ac:	0c 94 93 00 	jmp	0x126	; 0x126 <__bad_interrupt>
  b0:	0c 94 93 00 	jmp	0x126	; 0x126 <__bad_interrupt>
  b4:	0c 94 93 00 	jmp	0x126	; 0x126 <__bad_interrupt>
  b8:	0c 94 93 00 	jmp	0x126	; 0x126 <__bad_interrupt>
  bc:	0c 94 93 00 	jmp	0x126	; 0x126 <__bad_interrupt>
  c0:	0c 94 93 00 	jmp	0x126	; 0x126 <__bad_interrupt>
  c4:	0c 94 93 00 	jmp	0x126	; 0x126 <__bad_interrupt>
  c8:	0c 94 93 00 	jmp	0x126	; 0x126 <__bad_interrupt>
  cc:	0c 94 93 00 	jmp	0x126	; 0x126 <__bad_interrupt>
  d0:	0c 94 93 00 	jmp	0x126	; 0x126 <__bad_interrupt>
  d4:	0c 94 93 00 	jmp	0x126	; 0x126 <__bad_interrupt>
  d8:	0c 94 93 00 	jmp	0x126	; 0x126 <__bad_interrupt>
  dc:	0c 94 93 00 	jmp	0x126	; 0x126 <__bad_interrupt>
  e0:	0c 94 93 00 	jmp	0x126	; 0x126 <__bad_interrupt>

000000e4 <__ctors_end>:
  e4:	11 24       	eor	r1, r1
  e6:	1f be       	out	0x3f, r1	; 63
  e8:	cf ef       	ldi	r28, 0xFF	; 255
  ea:	d1 e2       	ldi	r29, 0x21	; 33
  ec:	de bf       	out	0x3e, r29	; 62
  ee:	cd bf       	out	0x3d, r28	; 61
  f0:	00 e0       	ldi	r16, 0x00	; 0
  f2:	0c bf       	out	0x3c, r16	; 60

000000f4 <__do_copy_data>:
  f4:	12 e0       	ldi	r17, 0x02	; 2
  f6:	a0 e0       	ldi	r26, 0x00	; 0
  f8:	b2 e0       	ldi	r27, 0x02	; 2
  fa:	e4 e1       	ldi	r30, 0x14	; 20
  fc:	f4 e0       	ldi	r31, 0x04	; 4
  fe:	00 e0       	ldi	r16, 0x00	; 0
 100:	0b bf       	out	0x3b, r16	; 59
 102:	02 c0       	rjmp	.+4      	; 0x108 <__do_copy_data+0x14>
 104:	07 90       	elpm	r0, Z+
 106:	0d 92       	st	X+, r0
 108:	a0 30       	cpi	r26, 0x00	; 0
 10a:	b1 07       	cpc	r27, r17
 10c:	d9 f7       	brne	.-10     	; 0x104 <__do_copy_data+0x10>

0000010e <__do_clear_bss>:
 10e:	12 e0       	ldi	r17, 0x02	; 2
 110:	a0 e0       	ldi	r26, 0x00	; 0
 112:	b2 e0       	ldi	r27, 0x02	; 2
 114:	01 c0       	rjmp	.+2      	; 0x118 <.do_clear_bss_start>

00000116 <.do_clear_bss_loop>:
 116:	1d 92       	st	X+, r1

00000118 <.do_clear_bss_start>:
 118:	a7 30       	cpi	r26, 0x07	; 7
 11a:	b1 07       	cpc	r27, r17
 11c:	e1 f7       	brne	.-8      	; 0x116 <.do_clear_bss_loop>
 11e:	0e 94 7c 01 	call	0x2f8	; 0x2f8 <main>
 122:	0c 94 09 02 	jmp	0x412	; 0x412 <_exit>

00000126 <__bad_interrupt>:
 126:	0c 94 00 00 	jmp	0	; 0x0 <__heap_end>

0000012a <delay>:
 12a:	20 ea       	ldi	r18, 0xA0	; 160
 12c:	3f e0       	ldi	r19, 0x0F	; 15
 12e:	40 e0       	ldi	r20, 0x00	; 0
 130:	50 e0       	ldi	r21, 0x00	; 0

00000132 <L_dl18>:
 132:	e2 2f       	mov	r30, r18
 134:	f3 2f       	mov	r31, r19

00000136 <L_dl28>:
 136:	31 97       	sbiw	r30, 0x01	; 1
 138:	f1 f7       	brne	.-4      	; 0x136 <L_dl28>
 13a:	8a 95       	dec	r24
 13c:	d1 f7       	brne	.-12     	; 0x132 <L_dl18>
 13e:	08 95       	ret

00000140 <led_off>:
 140:	11 ba       	out	0x11, r1	; 17
 142:	10 ba       	out	0x10, r1	; 16
 144:	08 95       	ret

00000146 <randomNumber>:
 146:	90 e0       	ldi	r25, 0x00	; 0
 148:	88 0f       	add	r24, r24
 14a:	99 1f       	adc	r25, r25
 14c:	01 96       	adiw	r24, 0x01	; 1
 14e:	87 70       	andi	r24, 0x07	; 7
 150:	90 e0       	ldi	r25, 0x00	; 0
 152:	08 95       	ret

00000154 <initPorts>:
 154:	87 e0       	ldi	r24, 0x07	; 7
 156:	80 93 07 01 	sts	0x0107, r24
 15a:	21 e0       	ldi	r18, 0x01	; 1
 15c:	30 e0       	ldi	r19, 0x00	; 0
 15e:	80 ea       	ldi	r24, 0xA0	; 160
 160:	9f e0       	ldi	r25, 0x0F	; 15
 162:	a0 e0       	ldi	r26, 0x00	; 0
 164:	b0 e0       	ldi	r27, 0x00	; 0

00000166 <L_dl151>:
 166:	e8 2f       	mov	r30, r24
 168:	f9 2f       	mov	r31, r25

0000016a <L_dl251>:
 16a:	31 97       	sbiw	r30, 0x01	; 1
 16c:	f1 f7       	brne	.-4      	; 0x16a <L_dl251>
 16e:	2a 95       	dec	r18
 170:	d1 f7       	brne	.-12     	; 0x166 <L_dl151>
 172:	88 e3       	ldi	r24, 0x38	; 56
 174:	80 93 08 01 	sts	0x0108, r24
 178:	08 95       	ret

0000017a <GetBitPort>:
 17a:	21 e0       	ldi	r18, 0x01	; 1
 17c:	30 e0       	ldi	r19, 0x00	; 0
 17e:	02 c0       	rjmp	.+4      	; 0x184 <GetBitPort+0xa>
 180:	22 0f       	add	r18, r18
 182:	33 1f       	adc	r19, r19
 184:	6a 95       	dec	r22
 186:	e2 f7       	brpl	.-8      	; 0x180 <GetBitPort+0x6>
 188:	82 23       	and	r24, r18
 18a:	90 e0       	ldi	r25, 0x00	; 0
 18c:	08 95       	ret

0000018e <getButton>:
 18e:	cf 93       	push	r28
 190:	df 93       	push	r29
 192:	87 e0       	ldi	r24, 0x07	; 7
 194:	80 93 07 01 	sts	0x0107, r24
 198:	21 e0       	ldi	r18, 0x01	; 1
 19a:	30 e0       	ldi	r19, 0x00	; 0
 19c:	80 ea       	ldi	r24, 0xA0	; 160
 19e:	9f e0       	ldi	r25, 0x0F	; 15
 1a0:	a0 e0       	ldi	r26, 0x00	; 0
 1a2:	b0 e0       	ldi	r27, 0x00	; 0

000001a4 <L_dl189>:
 1a4:	c8 2f       	mov	r28, r24
 1a6:	d9 2f       	mov	r29, r25

000001a8 <L_dl289>:
 1a8:	21 97       	sbiw	r28, 0x01	; 1
 1aa:	f1 f7       	brne	.-4      	; 0x1a8 <L_dl289>
 1ac:	2a 95       	dec	r18
 1ae:	d1 f7       	brne	.-12     	; 0x1a4 <L_dl189>
 1b0:	88 e3       	ldi	r24, 0x38	; 56
 1b2:	80 93 08 01 	sts	0x0108, r24
 1b6:	60 e0       	ldi	r22, 0x00	; 0
 1b8:	70 e0       	ldi	r23, 0x00	; 0
 1ba:	40 91 08 01 	lds	r20, 0x0108
 1be:	21 e0       	ldi	r18, 0x01	; 1
 1c0:	30 e0       	ldi	r19, 0x00	; 0
 1c2:	c9 01       	movw	r24, r18
 1c4:	06 2e       	mov	r0, r22
 1c6:	02 c0       	rjmp	.+4      	; 0x1cc <L_dl289+0x24>
 1c8:	88 0f       	add	r24, r24
 1ca:	99 1f       	adc	r25, r25
 1cc:	0a 94       	dec	r0
 1ce:	e2 f7       	brpl	.-8      	; 0x1c8 <L_dl289+0x20>
 1d0:	e8 2f       	mov	r30, r24
 1d2:	80 95       	com	r24
 1d4:	84 2b       	or	r24, r20
 1d6:	80 93 08 01 	sts	0x0108, r24
 1da:	80 ea       	ldi	r24, 0xA0	; 160
 1dc:	9f e0       	ldi	r25, 0x0F	; 15
 1de:	a0 e0       	ldi	r26, 0x00	; 0
 1e0:	b0 e0       	ldi	r27, 0x00	; 0

000001e2 <L_dl1115>:
 1e2:	c8 2f       	mov	r28, r24
 1e4:	d9 2f       	mov	r29, r25

000001e6 <L_dl2115>:
 1e6:	21 97       	sbiw	r28, 0x01	; 1
 1e8:	f1 f7       	brne	.-4      	; 0x1e6 <L_dl2115>
 1ea:	2a 95       	dec	r18
 1ec:	d1 f7       	brne	.-12     	; 0x1e2 <L_dl1115>
 1ee:	43 e0       	ldi	r20, 0x03	; 3
 1f0:	50 e0       	ldi	r21, 0x00	; 0
 1f2:	f4 2f       	mov	r31, r20
 1f4:	f3 50       	subi	r31, 0x03	; 3
 1f6:	21 e0       	ldi	r18, 0x01	; 1
 1f8:	30 e0       	ldi	r19, 0x00	; 0
 1fa:	80 ea       	ldi	r24, 0xA0	; 160
 1fc:	9f e0       	ldi	r25, 0x0F	; 15
 1fe:	a0 e0       	ldi	r26, 0x00	; 0
 200:	b0 e0       	ldi	r27, 0x00	; 0

00000202 <L_dl1127>:
 202:	c8 2f       	mov	r28, r24
 204:	d9 2f       	mov	r29, r25

00000206 <L_dl2127>:
 206:	21 97       	sbiw	r28, 0x01	; 1
 208:	f1 f7       	brne	.-4      	; 0x206 <L_dl2127>
 20a:	2a 95       	dec	r18
 20c:	d1 f7       	brne	.-12     	; 0x202 <L_dl1127>
 20e:	80 91 06 01 	lds	r24, 0x0106
 212:	90 e0       	ldi	r25, 0x00	; 0
 214:	04 2e       	mov	r0, r20
 216:	02 c0       	rjmp	.+4      	; 0x21c <L_dl2127+0x16>
 218:	95 95       	asr	r25
 21a:	87 95       	ror	r24
 21c:	0a 94       	dec	r0
 21e:	e2 f7       	brpl	.-8      	; 0x218 <L_dl2127+0x12>
 220:	80 fd       	sbrc	r24, 0
 222:	05 c0       	rjmp	.+10     	; 0x22e <L_dl2127+0x28>
 224:	96 2f       	mov	r25, r22
 226:	99 0f       	add	r25, r25
 228:	96 0f       	add	r25, r22
 22a:	9f 0f       	add	r25, r31
 22c:	06 c0       	rjmp	.+12     	; 0x23a <L_dl2127+0x34>
 22e:	4f 5f       	subi	r20, 0xFF	; 255
 230:	5f 4f       	sbci	r21, 0xFF	; 255
 232:	46 30       	cpi	r20, 0x06	; 6
 234:	51 05       	cpc	r21, r1
 236:	e9 f6       	brne	.-70     	; 0x1f2 <L_dl2115+0xc>
 238:	9a e0       	ldi	r25, 0x0A	; 10
 23a:	80 91 08 01 	lds	r24, 0x0108
 23e:	e8 2b       	or	r30, r24
 240:	e0 93 08 01 	sts	0x0108, r30
 244:	9a 30       	cpi	r25, 0x0A	; 10
 246:	31 f4       	brne	.+12     	; 0x254 <L_dl2127+0x4e>
 248:	6f 5f       	subi	r22, 0xFF	; 255
 24a:	7f 4f       	sbci	r23, 0xFF	; 255
 24c:	63 30       	cpi	r22, 0x03	; 3
 24e:	71 05       	cpc	r23, r1
 250:	09 f0       	breq	.+2      	; 0x254 <L_dl2127+0x4e>
 252:	b3 cf       	rjmp	.-154    	; 0x1ba <L_dl289+0x12>
 254:	89 2f       	mov	r24, r25
 256:	90 e0       	ldi	r25, 0x00	; 0
 258:	df 91       	pop	r29
 25a:	cf 91       	pop	r28
 25c:	08 95       	ret

0000025e <TurnOnLED>:
 25e:	98 2f       	mov	r25, r24
 260:	10 ba       	out	0x10, r1	; 16
 262:	11 ba       	out	0x11, r1	; 17
 264:	88 30       	cpi	r24, 0x08	; 8
 266:	60 f5       	brcc	.+88     	; 0x2c0 <TurnOnLED+0x62>
 268:	82 30       	cpi	r24, 0x02	; 2
 26a:	48 f4       	brcc	.+18     	; 0x27e <TurnOnLED+0x20>
 26c:	80 b3       	in	r24, 0x10	; 16
 26e:	83 60       	ori	r24, 0x03	; 3
 270:	80 bb       	out	0x10, r24	; 16
 272:	99 23       	and	r25, r25
 274:	11 f4       	brne	.+4      	; 0x27a <TurnOnLED+0x1c>
 276:	89 9a       	sbi	0x11, 1	; 17
 278:	08 95       	ret
 27a:	88 9a       	sbi	0x11, 0	; 17
 27c:	08 95       	ret
 27e:	82 50       	subi	r24, 0x02	; 2
 280:	82 30       	cpi	r24, 0x02	; 2
 282:	48 f4       	brcc	.+18     	; 0x296 <TurnOnLED+0x38>
 284:	80 b3       	in	r24, 0x10	; 16
 286:	86 60       	ori	r24, 0x06	; 6
 288:	80 bb       	out	0x10, r24	; 16
 28a:	92 30       	cpi	r25, 0x02	; 2
 28c:	11 f4       	brne	.+4      	; 0x292 <TurnOnLED+0x34>
 28e:	8a 9a       	sbi	0x11, 2	; 17
 290:	08 95       	ret
 292:	89 9a       	sbi	0x11, 1	; 17
 294:	08 95       	ret
 296:	89 2f       	mov	r24, r25
 298:	84 50       	subi	r24, 0x04	; 4
 29a:	82 30       	cpi	r24, 0x02	; 2
 29c:	48 f4       	brcc	.+18     	; 0x2b0 <TurnOnLED+0x52>
 29e:	80 b3       	in	r24, 0x10	; 16
 2a0:	85 60       	ori	r24, 0x05	; 5
 2a2:	80 bb       	out	0x10, r24	; 16
 2a4:	94 30       	cpi	r25, 0x04	; 4
 2a6:	11 f4       	brne	.+4      	; 0x2ac <TurnOnLED+0x4e>
 2a8:	88 9a       	sbi	0x11, 0	; 17
 2aa:	08 95       	ret
 2ac:	8a 9a       	sbi	0x11, 2	; 17
 2ae:	08 95       	ret
 2b0:	80 b3       	in	r24, 0x10	; 16
 2b2:	8c 60       	ori	r24, 0x0C	; 12
 2b4:	80 bb       	out	0x10, r24	; 16
 2b6:	96 30       	cpi	r25, 0x06	; 6
 2b8:	11 f4       	brne	.+4      	; 0x2be <TurnOnLED+0x60>
 2ba:	8b 9a       	sbi	0x11, 3	; 17
 2bc:	08 95       	ret
 2be:	8a 9a       	sbi	0x11, 2	; 17
 2c0:	08 95       	ret

000002c2 <winner>:
 2c2:	cf 93       	push	r28
 2c4:	df 93       	push	r29
 2c6:	c7 e0       	ldi	r28, 0x07	; 7
 2c8:	d0 e0       	ldi	r29, 0x00	; 0
 2ca:	8c 2f       	mov	r24, r28
 2cc:	0e 94 2f 01 	call	0x25e	; 0x25e <TurnOnLED>
 2d0:	86 e4       	ldi	r24, 0x46	; 70
 2d2:	90 e0       	ldi	r25, 0x00	; 0
 2d4:	20 ea       	ldi	r18, 0xA0	; 160
 2d6:	3f e0       	ldi	r19, 0x0F	; 15
 2d8:	40 e0       	ldi	r20, 0x00	; 0
 2da:	50 e0       	ldi	r21, 0x00	; 0

000002dc <L_dl1319>:
 2dc:	e2 2f       	mov	r30, r18
 2de:	f3 2f       	mov	r31, r19

000002e0 <L_dl2319>:
 2e0:	31 97       	sbiw	r30, 0x01	; 1
 2e2:	f1 f7       	brne	.-4      	; 0x2e0 <L_dl2319>
 2e4:	8a 95       	dec	r24
 2e6:	d1 f7       	brne	.-12     	; 0x2dc <L_dl1319>
 2e8:	21 97       	sbiw	r28, 0x01	; 1
 2ea:	ff ef       	ldi	r31, 0xFF	; 255
 2ec:	cf 3f       	cpi	r28, 0xFF	; 255
 2ee:	df 07       	cpc	r29, r31
 2f0:	61 f7       	brne	.-40     	; 0x2ca <winner+0x8>
 2f2:	df 91       	pop	r29
 2f4:	cf 91       	pop	r28
 2f6:	08 95       	ret

000002f8 <main>:
 2f8:	1f 93       	push	r17
 2fa:	0e 94 c7 00 	call	0x18e	; 0x18e <getButton>
 2fe:	18 2f       	mov	r17, r24
 300:	0e 94 61 01 	call	0x2c2	; 0x2c2 <winner>
 304:	1a 30       	cpi	r17, 0x0A	; 10
 306:	c9 f3       	breq	.-14     	; 0x2fa <main+0x2>
 308:	81 2f       	mov	r24, r17
 30a:	0e 94 2f 01 	call	0x25e	; 0x25e <TurnOnLED>
 30e:	ff cf       	rjmp	.-2      	; 0x30e <main+0x16>

00000310 <loser>:
 310:	87 e0       	ldi	r24, 0x07	; 7
 312:	0e 94 2f 01 	call	0x25e	; 0x25e <TurnOnLED>
 316:	86 e0       	ldi	r24, 0x06	; 6
 318:	0e 94 2f 01 	call	0x25e	; 0x25e <TurnOnLED>
 31c:	85 e0       	ldi	r24, 0x05	; 5
 31e:	0e 94 2f 01 	call	0x25e	; 0x25e <TurnOnLED>
 322:	84 e0       	ldi	r24, 0x04	; 4
 324:	0e 94 2f 01 	call	0x25e	; 0x25e <TurnOnLED>
 328:	08 95       	ret

0000032a <low>:
 32a:	83 e0       	ldi	r24, 0x03	; 3
 32c:	0e 94 2f 01 	call	0x25e	; 0x25e <TurnOnLED>
 330:	82 e0       	ldi	r24, 0x02	; 2
 332:	0e 94 2f 01 	call	0x25e	; 0x25e <TurnOnLED>
 336:	81 e0       	ldi	r24, 0x01	; 1
 338:	0e 94 2f 01 	call	0x25e	; 0x25e <TurnOnLED>
 33c:	80 e0       	ldi	r24, 0x00	; 0
 33e:	0e 94 2f 01 	call	0x25e	; 0x25e <TurnOnLED>
 342:	08 95       	ret

00000344 <simonSays>:
 344:	cf 92       	push	r12
 346:	df 92       	push	r13
 348:	ef 92       	push	r14
 34a:	ff 92       	push	r15
 34c:	0f 93       	push	r16
 34e:	1f 93       	push	r17
 350:	cf 93       	push	r28
 352:	df 93       	push	r29
 354:	83 e0       	ldi	r24, 0x03	; 3
 356:	0e 94 a3 00 	call	0x146	; 0x146 <randomNumber>
 35a:	08 2f       	mov	r16, r24
 35c:	cc 24       	eor	r12, r12
 35e:	c3 94       	inc	r12
 360:	ee 24       	eor	r14, r14
 362:	ff 24       	eor	r15, r15
 364:	de 2c       	mov	r13, r14
 366:	80 2f       	mov	r24, r16
 368:	0e 94 a3 00 	call	0x146	; 0x146 <randomNumber>
 36c:	08 2f       	mov	r16, r24
 36e:	f7 01       	movw	r30, r14
 370:	e0 50       	subi	r30, 0x00	; 0
 372:	fe 4f       	sbci	r31, 0xFE	; 254
 374:	80 83       	st	Z, r24
 376:	c0 e0       	ldi	r28, 0x00	; 0
 378:	d0 e0       	ldi	r29, 0x00	; 0
 37a:	ec 2f       	mov	r30, r28
 37c:	f0 e0       	ldi	r31, 0x00	; 0
 37e:	e0 50       	subi	r30, 0x00	; 0
 380:	fe 4f       	sbci	r31, 0xFE	; 254
 382:	80 81       	ld	r24, Z
 384:	0e 94 2f 01 	call	0x25e	; 0x25e <TurnOnLED>
 388:	28 ee       	ldi	r18, 0xE8	; 232
 38a:	33 e0       	ldi	r19, 0x03	; 3
 38c:	80 ea       	ldi	r24, 0xA0	; 160
 38e:	9f e0       	ldi	r25, 0x0F	; 15
 390:	a0 e0       	ldi	r26, 0x00	; 0
 392:	b0 e0       	ldi	r27, 0x00	; 0

00000394 <L_dl1426>:
 394:	e8 2f       	mov	r30, r24
 396:	f9 2f       	mov	r31, r25

00000398 <L_dl2426>:
 398:	31 97       	sbiw	r30, 0x01	; 1
 39a:	f1 f7       	brne	.-4      	; 0x398 <L_dl2426>
 39c:	2a 95       	dec	r18
 39e:	d1 f7       	brne	.-12     	; 0x394 <L_dl1426>
 3a0:	11 ba       	out	0x11, r1	; 17
 3a2:	10 ba       	out	0x10, r1	; 16
 3a4:	24 e6       	ldi	r18, 0x64	; 100
 3a6:	30 e0       	ldi	r19, 0x00	; 0

000003a8 <L_dl1442>:
 3a8:	e8 2f       	mov	r30, r24
 3aa:	f9 2f       	mov	r31, r25

000003ac <L_dl2442>:
 3ac:	31 97       	sbiw	r30, 0x01	; 1
 3ae:	f1 f7       	brne	.-4      	; 0x3ac <L_dl2442>
 3b0:	2a 95       	dec	r18
 3b2:	d1 f7       	brne	.-12     	; 0x3a8 <L_dl1442>
 3b4:	21 96       	adiw	r28, 0x01	; 1
 3b6:	dc 16       	cp	r13, r28
 3b8:	00 f7       	brcc	.-64     	; 0x37a <simonSays+0x36>
 3ba:	10 e0       	ldi	r17, 0x00	; 0
 3bc:	d3 94       	inc	r13
 3be:	0e 94 c7 00 	call	0x18e	; 0x18e <getButton>
 3c2:	98 2f       	mov	r25, r24
 3c4:	8a 30       	cpi	r24, 0x0A	; 10
 3c6:	d9 f3       	breq	.-10     	; 0x3be <L_dl2442+0x12>
 3c8:	e1 2f       	mov	r30, r17
 3ca:	f0 e0       	ldi	r31, 0x00	; 0
 3cc:	e0 50       	subi	r30, 0x00	; 0
 3ce:	fe 4f       	sbci	r31, 0xFE	; 254
 3d0:	80 81       	ld	r24, Z
 3d2:	98 17       	cp	r25, r24
 3d4:	21 f0       	breq	.+8      	; 0x3de <L_dl2442+0x32>
 3d6:	0e 94 88 01 	call	0x310	; 0x310 <loser>
 3da:	cc 24       	eor	r12, r12
 3dc:	03 c0       	rjmp	.+6      	; 0x3e4 <L_dl2442+0x38>
 3de:	1f 5f       	subi	r17, 0xFF	; 255
 3e0:	1d 15       	cp	r17, r13
 3e2:	69 f7       	brne	.-38     	; 0x3be <L_dl2442+0x12>
 3e4:	f5 e0       	ldi	r31, 0x05	; 5
 3e6:	ef 16       	cp	r14, r31
 3e8:	f1 04       	cpc	r15, r1
 3ea:	31 f0       	breq	.+12     	; 0x3f8 <L_dl2442+0x4c>
 3ec:	08 94       	sec
 3ee:	e1 1c       	adc	r14, r1
 3f0:	f1 1c       	adc	r15, r1
 3f2:	cc 20       	and	r12, r12
 3f4:	29 f0       	breq	.+10     	; 0x400 <L_dl2442+0x54>
 3f6:	b6 cf       	rjmp	.-148    	; 0x364 <simonSays+0x20>
 3f8:	cc 20       	and	r12, r12
 3fa:	11 f0       	breq	.+4      	; 0x400 <L_dl2442+0x54>
 3fc:	0e 94 61 01 	call	0x2c2	; 0x2c2 <winner>
 400:	df 91       	pop	r29
 402:	cf 91       	pop	r28
 404:	1f 91       	pop	r17
 406:	0f 91       	pop	r16
 408:	ff 90       	pop	r15
 40a:	ef 90       	pop	r14
 40c:	df 90       	pop	r13
 40e:	cf 90       	pop	r12
 410:	08 95       	ret

00000412 <_exit>:
 412:	ff cf       	rjmp	.-2      	; 0x412 <_exit>
