
p8.elf:     file format elf32-avr

Sections:
Idx Name          Size      VMA       LMA       File off  Algn
  0 .text         0000050a  00000000  00000000  00000074  2**1
                  CONTENTS, ALLOC, LOAD, READONLY, CODE
  1 .bss          00000007  00800200  0000050a  0000057e  2**0
                  ALLOC
  2 .stab         0000042c  00000000  00000000  00000580  2**2
                  CONTENTS, READONLY, DEBUGGING
  3 .stabstr      0000005f  00000000  00000000  000009ac  2**0
                  CONTENTS, READONLY, DEBUGGING
  4 .debug_aranges 00000020  00000000  00000000  00000a0b  2**0
                  CONTENTS, READONLY, DEBUGGING
  5 .debug_pubnames 000000cc  00000000  00000000  00000a2b  2**0
                  CONTENTS, READONLY, DEBUGGING
  6 .debug_info   00000680  00000000  00000000  00000af7  2**0
                  CONTENTS, READONLY, DEBUGGING
  7 .debug_abbrev 000001e4  00000000  00000000  00001177  2**0
                  CONTENTS, READONLY, DEBUGGING
  8 .debug_line   0000044d  00000000  00000000  0000135b  2**0
                  CONTENTS, READONLY, DEBUGGING
  9 .debug_frame  000000e0  00000000  00000000  000017a8  2**2
                  CONTENTS, READONLY, DEBUGGING
 10 .debug_str    0000012a  00000000  00000000  00001888  2**0
                  CONTENTS, READONLY, DEBUGGING
 11 .debug_loc    00000206  00000000  00000000  000019b2  2**0
                  CONTENTS, READONLY, DEBUGGING
Disassembly of section .text:

00000000 <__vectors>:
   0:	0c 94 72 00 	jmp	0xe4	; 0xe4 <__ctors_end>
   4:	0c 94 93 00 	jmp	0x126	; 0x126 <__bad_interrupt>
   8:	0c 94 93 00 	jmp	0x126	; 0x126 <__bad_interrupt>
   c:	0c 94 93 00 	jmp	0x126	; 0x126 <__bad_interrupt>
  10:	0c 94 93 00 	jmp	0x126	; 0x126 <__bad_interrupt>
  14:	0c 94 93 00 	jmp	0x126	; 0x126 <__bad_interrupt>
  18:	0c 94 93 00 	jmp	0x126	; 0x126 <__bad_interrupt>
  1c:	0c 94 93 00 	jmp	0x126	; 0x126 <__bad_interrupt>
  20:	0c 94 93 00 	jmp	0x126	; 0x126 <__bad_interrupt>
  24:	0c 94 93 00 	jmp	0x126	; 0x126 <__bad_interrupt>
  28:	0c 94 93 00 	jmp	0x126	; 0x126 <__bad_interrupt>
  2c:	0c 94 93 00 	jmp	0x126	; 0x126 <__bad_interrupt>
  30:	0c 94 93 00 	jmp	0x126	; 0x126 <__bad_interrupt>
  34:	0c 94 93 00 	jmp	0x126	; 0x126 <__bad_interrupt>
  38:	0c 94 93 00 	jmp	0x126	; 0x126 <__bad_interrupt>
  3c:	0c 94 93 00 	jmp	0x126	; 0x126 <__bad_interrupt>
  40:	0c 94 93 00 	jmp	0x126	; 0x126 <__bad_interrupt>
  44:	0c 94 93 00 	jmp	0x126	; 0x126 <__bad_interrupt>
  48:	0c 94 93 00 	jmp	0x126	; 0x126 <__bad_interrupt>
  4c:	0c 94 93 00 	jmp	0x126	; 0x126 <__bad_interrupt>
  50:	0c 94 93 00 	jmp	0x126	; 0x126 <__bad_interrupt>
  54:	0c 94 93 00 	jmp	0x126	; 0x126 <__bad_interrupt>
  58:	0c 94 93 00 	jmp	0x126	; 0x126 <__bad_interrupt>
  5c:	0c 94 93 00 	jmp	0x126	; 0x126 <__bad_interrupt>
  60:	0c 94 93 00 	jmp	0x126	; 0x126 <__bad_interrupt>
  64:	0c 94 93 00 	jmp	0x126	; 0x126 <__bad_interrupt>
  68:	0c 94 93 00 	jmp	0x126	; 0x126 <__bad_interrupt>
  6c:	0c 94 93 00 	jmp	0x126	; 0x126 <__bad_interrupt>
  70:	0c 94 93 00 	jmp	0x126	; 0x126 <__bad_interrupt>
  74:	0c 94 93 00 	jmp	0x126	; 0x126 <__bad_interrupt>
  78:	0c 94 93 00 	jmp	0x126	; 0x126 <__bad_interrupt>
  7c:	0c 94 93 00 	jmp	0x126	; 0x126 <__bad_interrupt>
  80:	0c 94 93 00 	jmp	0x126	; 0x126 <__bad_interrupt>
  84:	0c 94 93 00 	jmp	0x126	; 0x126 <__bad_interrupt>
  88:	0c 94 93 00 	jmp	0x126	; 0x126 <__bad_interrupt>
  8c:	0c 94 93 00 	jmp	0x126	; 0x126 <__bad_interrupt>
  90:	0c 94 93 00 	jmp	0x126	; 0x126 <__bad_interrupt>
  94:	0c 94 93 00 	jmp	0x126	; 0x126 <__bad_interrupt>
  98:	0c 94 93 00 	jmp	0x126	; 0x126 <__bad_interrupt>
  9c:	0c 94 93 00 	jmp	0x126	; 0x126 <__bad_interrupt>
  a0:	0c 94 93 00 	jmp	0x126	; 0x126 <__bad_interrupt>
  a4:	0c 94 93 00 	jmp	0x126	; 0x126 <__bad_interrupt>
  a8:	0c 94 93 00 	jmp	0x126	; 0x126 <__bad_interrupt>
  ac:	0c 94 93 00 	jmp	0x126	; 0x126 <__bad_interrupt>
  b0:	0c 94 93 00 	jmp	0x126	; 0x126 <__bad_interrupt>
  b4:	0c 94 93 00 	jmp	0x126	; 0x126 <__bad_interrupt>
  b8:	0c 94 93 00 	jmp	0x126	; 0x126 <__bad_interrupt>
  bc:	0c 94 93 00 	jmp	0x126	; 0x126 <__bad_interrupt>
  c0:	0c 94 93 00 	jmp	0x126	; 0x126 <__bad_interrupt>
  c4:	0c 94 93 00 	jmp	0x126	; 0x126 <__bad_interrupt>
  c8:	0c 94 93 00 	jmp	0x126	; 0x126 <__bad_interrupt>
  cc:	0c 94 93 00 	jmp	0x126	; 0x126 <__bad_interrupt>
  d0:	0c 94 93 00 	jmp	0x126	; 0x126 <__bad_interrupt>
  d4:	0c 94 93 00 	jmp	0x126	; 0x126 <__bad_interrupt>
  d8:	0c 94 93 00 	jmp	0x126	; 0x126 <__bad_interrupt>
  dc:	0c 94 93 00 	jmp	0x126	; 0x126 <__bad_interrupt>
  e0:	0c 94 93 00 	jmp	0x126	; 0x126 <__bad_interrupt>

000000e4 <__ctors_end>:
  e4:	11 24       	eor	r1, r1
  e6:	1f be       	out	0x3f, r1	; 63
  e8:	cf ef       	ldi	r28, 0xFF	; 255
  ea:	d1 e2       	ldi	r29, 0x21	; 33
  ec:	de bf       	out	0x3e, r29	; 62
  ee:	cd bf       	out	0x3d, r28	; 61
  f0:	00 e0       	ldi	r16, 0x00	; 0
  f2:	0c bf       	out	0x3c, r16	; 60

000000f4 <__do_copy_data>:
  f4:	12 e0       	ldi	r17, 0x02	; 2
  f6:	a0 e0       	ldi	r26, 0x00	; 0
  f8:	b2 e0       	ldi	r27, 0x02	; 2
  fa:	ea e0       	ldi	r30, 0x0A	; 10
  fc:	f5 e0       	ldi	r31, 0x05	; 5
  fe:	00 e0       	ldi	r16, 0x00	; 0
 100:	0b bf       	out	0x3b, r16	; 59
 102:	02 c0       	rjmp	.+4      	; 0x108 <__do_copy_data+0x14>
 104:	07 90       	elpm	r0, Z+
 106:	0d 92       	st	X+, r0
 108:	a0 30       	cpi	r26, 0x00	; 0
 10a:	b1 07       	cpc	r27, r17
 10c:	d9 f7       	brne	.-10     	; 0x104 <__do_copy_data+0x10>

0000010e <__do_clear_bss>:
 10e:	12 e0       	ldi	r17, 0x02	; 2
 110:	a0 e0       	ldi	r26, 0x00	; 0
 112:	b2 e0       	ldi	r27, 0x02	; 2
 114:	01 c0       	rjmp	.+2      	; 0x118 <.do_clear_bss_start>

00000116 <.do_clear_bss_loop>:
 116:	1d 92       	st	X+, r1

00000118 <.do_clear_bss_start>:
 118:	a7 30       	cpi	r26, 0x07	; 7
 11a:	b1 07       	cpc	r27, r17
 11c:	e1 f7       	brne	.-8      	; 0x116 <.do_clear_bss_loop>
 11e:	0e 94 b8 01 	call	0x370	; 0x370 <main>
 122:	0c 94 84 02 	jmp	0x508	; 0x508 <_exit>

00000126 <__bad_interrupt>:
 126:	0c 94 00 00 	jmp	0	; 0x0 <__heap_end>

0000012a <delay>:
 12a:	20 ea       	ldi	r18, 0xA0	; 160
 12c:	3f e0       	ldi	r19, 0x0F	; 15
 12e:	40 e0       	ldi	r20, 0x00	; 0
 130:	50 e0       	ldi	r21, 0x00	; 0

00000132 <L_dl18>:
 132:	e2 2f       	mov	r30, r18
 134:	f3 2f       	mov	r31, r19

00000136 <L_dl28>:
 136:	31 97       	sbiw	r30, 0x01	; 1
 138:	f1 f7       	brne	.-4      	; 0x136 <L_dl28>
 13a:	8a 95       	dec	r24
 13c:	d1 f7       	brne	.-12     	; 0x132 <L_dl18>
 13e:	08 95       	ret

00000140 <led_off>:
 140:	11 ba       	out	0x11, r1	; 17
 142:	10 ba       	out	0x10, r1	; 16
 144:	08 95       	ret

00000146 <randomNumber>:
 146:	8d 5f       	subi	r24, 0xFD	; 253
 148:	87 70       	andi	r24, 0x07	; 7
 14a:	90 e0       	ldi	r25, 0x00	; 0
 14c:	08 95       	ret

0000014e <initPorts>:
 14e:	87 e0       	ldi	r24, 0x07	; 7
 150:	80 93 07 01 	sts	0x0107, r24
 154:	21 e0       	ldi	r18, 0x01	; 1
 156:	80 ea       	ldi	r24, 0xA0	; 160
 158:	9f e0       	ldi	r25, 0x0F	; 15
 15a:	a0 e0       	ldi	r26, 0x00	; 0
 15c:	b0 e0       	ldi	r27, 0x00	; 0

0000015e <L_dl147>:
 15e:	e8 2f       	mov	r30, r24
 160:	f9 2f       	mov	r31, r25

00000162 <L_dl247>:
 162:	31 97       	sbiw	r30, 0x01	; 1
 164:	f1 f7       	brne	.-4      	; 0x162 <L_dl247>
 166:	2a 95       	dec	r18
 168:	d1 f7       	brne	.-12     	; 0x15e <L_dl147>
 16a:	88 e3       	ldi	r24, 0x38	; 56
 16c:	80 93 08 01 	sts	0x0108, r24
 170:	08 95       	ret

00000172 <getButton>:
 172:	87 e0       	ldi	r24, 0x07	; 7
 174:	80 93 07 01 	sts	0x0107, r24
 178:	21 e0       	ldi	r18, 0x01	; 1
 17a:	80 ea       	ldi	r24, 0xA0	; 160
 17c:	9f e0       	ldi	r25, 0x0F	; 15
 17e:	a0 e0       	ldi	r26, 0x00	; 0
 180:	b0 e0       	ldi	r27, 0x00	; 0

00000182 <L_dl168>:
 182:	e8 2f       	mov	r30, r24
 184:	f9 2f       	mov	r31, r25

00000186 <L_dl268>:
 186:	31 97       	sbiw	r30, 0x01	; 1
 188:	f1 f7       	brne	.-4      	; 0x186 <L_dl268>
 18a:	2a 95       	dec	r18
 18c:	d1 f7       	brne	.-12     	; 0x182 <L_dl168>
 18e:	88 e3       	ldi	r24, 0x38	; 56
 190:	80 93 08 01 	sts	0x0108, r24
 194:	60 e0       	ldi	r22, 0x00	; 0
 196:	70 e0       	ldi	r23, 0x00	; 0
 198:	41 e0       	ldi	r20, 0x01	; 1
 19a:	50 e0       	ldi	r21, 0x00	; 0
 19c:	06 2e       	mov	r0, r22
 19e:	02 c0       	rjmp	.+4      	; 0x1a4 <L_dl268+0x1e>
 1a0:	44 0f       	add	r20, r20
 1a2:	55 1f       	adc	r21, r21
 1a4:	0a 94       	dec	r0
 1a6:	e2 f7       	brpl	.-8      	; 0x1a0 <L_dl268+0x1a>
 1a8:	84 2f       	mov	r24, r20
 1aa:	80 95       	com	r24
 1ac:	80 93 08 01 	sts	0x0108, r24
 1b0:	2a e0       	ldi	r18, 0x0A	; 10
 1b2:	80 ea       	ldi	r24, 0xA0	; 160
 1b4:	9f e0       	ldi	r25, 0x0F	; 15
 1b6:	a0 e0       	ldi	r26, 0x00	; 0
 1b8:	b0 e0       	ldi	r27, 0x00	; 0

000001ba <L_dl191>:
 1ba:	e8 2f       	mov	r30, r24
 1bc:	f9 2f       	mov	r31, r25

000001be <L_dl291>:
 1be:	31 97       	sbiw	r30, 0x01	; 1
 1c0:	f1 f7       	brne	.-4      	; 0x1be <L_dl291>
 1c2:	2a 95       	dec	r18
 1c4:	d1 f7       	brne	.-12     	; 0x1ba <L_dl191>
 1c6:	23 e0       	ldi	r18, 0x03	; 3
 1c8:	30 e0       	ldi	r19, 0x00	; 0
 1ca:	e2 2f       	mov	r30, r18
 1cc:	e3 50       	subi	r30, 0x03	; 3
 1ce:	80 91 06 01 	lds	r24, 0x0106
 1d2:	90 e0       	ldi	r25, 0x00	; 0
 1d4:	02 2e       	mov	r0, r18
 1d6:	02 c0       	rjmp	.+4      	; 0x1dc <L_dl291+0x1e>
 1d8:	95 95       	asr	r25
 1da:	87 95       	ror	r24
 1dc:	0a 94       	dec	r0
 1de:	e2 f7       	brpl	.-8      	; 0x1d8 <L_dl291+0x1a>
 1e0:	80 fd       	sbrc	r24, 0
 1e2:	05 c0       	rjmp	.+10     	; 0x1ee <L_dl291+0x30>
 1e4:	36 2f       	mov	r19, r22
 1e6:	33 0f       	add	r19, r19
 1e8:	36 0f       	add	r19, r22
 1ea:	3e 0f       	add	r19, r30
 1ec:	06 c0       	rjmp	.+12     	; 0x1fa <L_dl291+0x3c>
 1ee:	2f 5f       	subi	r18, 0xFF	; 255
 1f0:	3f 4f       	sbci	r19, 0xFF	; 255
 1f2:	26 30       	cpi	r18, 0x06	; 6
 1f4:	31 05       	cpc	r19, r1
 1f6:	49 f7       	brne	.-46     	; 0x1ca <L_dl291+0xc>
 1f8:	3a e0       	ldi	r19, 0x0A	; 10
 1fa:	80 91 08 01 	lds	r24, 0x0108
 1fe:	84 2b       	or	r24, r20
 200:	80 93 08 01 	sts	0x0108, r24
 204:	2a e0       	ldi	r18, 0x0A	; 10
 206:	80 ea       	ldi	r24, 0xA0	; 160
 208:	9f e0       	ldi	r25, 0x0F	; 15
 20a:	a0 e0       	ldi	r26, 0x00	; 0
 20c:	b0 e0       	ldi	r27, 0x00	; 0

0000020e <L_dl1135>:
 20e:	e8 2f       	mov	r30, r24
 210:	f9 2f       	mov	r31, r25

00000212 <L_dl2135>:
 212:	31 97       	sbiw	r30, 0x01	; 1
 214:	f1 f7       	brne	.-4      	; 0x212 <L_dl2135>
 216:	2a 95       	dec	r18
 218:	d1 f7       	brne	.-12     	; 0x20e <L_dl1135>
 21a:	3a 30       	cpi	r19, 0x0A	; 10
 21c:	31 f4       	brne	.+12     	; 0x22a <L_dl2135+0x18>
 21e:	6f 5f       	subi	r22, 0xFF	; 255
 220:	7f 4f       	sbci	r23, 0xFF	; 255
 222:	63 30       	cpi	r22, 0x03	; 3
 224:	71 05       	cpc	r23, r1
 226:	09 f0       	breq	.+2      	; 0x22a <L_dl2135+0x18>
 228:	b7 cf       	rjmp	.-146    	; 0x198 <L_dl268+0x12>
 22a:	83 2f       	mov	r24, r19
 22c:	90 e0       	ldi	r25, 0x00	; 0
 22e:	08 95       	ret

00000230 <TurnOnLED>:
 230:	98 2f       	mov	r25, r24
 232:	10 ba       	out	0x10, r1	; 16
 234:	11 ba       	out	0x11, r1	; 17
 236:	88 30       	cpi	r24, 0x08	; 8
 238:	60 f5       	brcc	.+88     	; 0x292 <TurnOnLED+0x62>
 23a:	82 30       	cpi	r24, 0x02	; 2
 23c:	48 f4       	brcc	.+18     	; 0x250 <TurnOnLED+0x20>
 23e:	80 b3       	in	r24, 0x10	; 16
 240:	83 60       	ori	r24, 0x03	; 3
 242:	80 bb       	out	0x10, r24	; 16
 244:	99 23       	and	r25, r25
 246:	11 f4       	brne	.+4      	; 0x24c <TurnOnLED+0x1c>
 248:	89 9a       	sbi	0x11, 1	; 17
 24a:	08 95       	ret
 24c:	88 9a       	sbi	0x11, 0	; 17
 24e:	08 95       	ret
 250:	82 50       	subi	r24, 0x02	; 2
 252:	82 30       	cpi	r24, 0x02	; 2
 254:	48 f4       	brcc	.+18     	; 0x268 <TurnOnLED+0x38>
 256:	80 b3       	in	r24, 0x10	; 16
 258:	86 60       	ori	r24, 0x06	; 6
 25a:	80 bb       	out	0x10, r24	; 16
 25c:	92 30       	cpi	r25, 0x02	; 2
 25e:	11 f4       	brne	.+4      	; 0x264 <TurnOnLED+0x34>
 260:	8a 9a       	sbi	0x11, 2	; 17
 262:	08 95       	ret
 264:	89 9a       	sbi	0x11, 1	; 17
 266:	08 95       	ret
 268:	89 2f       	mov	r24, r25
 26a:	84 50       	subi	r24, 0x04	; 4
 26c:	82 30       	cpi	r24, 0x02	; 2
 26e:	48 f4       	brcc	.+18     	; 0x282 <TurnOnLED+0x52>
 270:	80 b3       	in	r24, 0x10	; 16
 272:	85 60       	ori	r24, 0x05	; 5
 274:	80 bb       	out	0x10, r24	; 16
 276:	94 30       	cpi	r25, 0x04	; 4
 278:	11 f4       	brne	.+4      	; 0x27e <TurnOnLED+0x4e>
 27a:	88 9a       	sbi	0x11, 0	; 17
 27c:	08 95       	ret
 27e:	8a 9a       	sbi	0x11, 2	; 17
 280:	08 95       	ret
 282:	80 b3       	in	r24, 0x10	; 16
 284:	8c 60       	ori	r24, 0x0C	; 12
 286:	80 bb       	out	0x10, r24	; 16
 288:	96 30       	cpi	r25, 0x06	; 6
 28a:	11 f4       	brne	.+4      	; 0x290 <TurnOnLED+0x60>
 28c:	8b 9a       	sbi	0x11, 3	; 17
 28e:	08 95       	ret
 290:	8a 9a       	sbi	0x11, 2	; 17
 292:	08 95       	ret

00000294 <winner>:
 294:	cf 93       	push	r28
 296:	df 93       	push	r29
 298:	c7 e0       	ldi	r28, 0x07	; 7
 29a:	d0 e0       	ldi	r29, 0x00	; 0
 29c:	8c 2f       	mov	r24, r28
 29e:	0e 94 18 01 	call	0x230	; 0x230 <TurnOnLED>
 2a2:	80 e5       	ldi	r24, 0x50	; 80
 2a4:	20 ea       	ldi	r18, 0xA0	; 160
 2a6:	3f e0       	ldi	r19, 0x0F	; 15
 2a8:	40 e0       	ldi	r20, 0x00	; 0
 2aa:	50 e0       	ldi	r21, 0x00	; 0

000002ac <L_dl1293>:
 2ac:	e2 2f       	mov	r30, r18
 2ae:	f3 2f       	mov	r31, r19

000002b0 <L_dl2293>:
 2b0:	31 97       	sbiw	r30, 0x01	; 1
 2b2:	f1 f7       	brne	.-4      	; 0x2b0 <L_dl2293>
 2b4:	8a 95       	dec	r24
 2b6:	d1 f7       	brne	.-12     	; 0x2ac <L_dl1293>
 2b8:	21 97       	sbiw	r28, 0x01	; 1
 2ba:	ff ef       	ldi	r31, 0xFF	; 255
 2bc:	cf 3f       	cpi	r28, 0xFF	; 255
 2be:	df 07       	cpc	r29, r31
 2c0:	69 f7       	brne	.-38     	; 0x29c <winner+0x8>
 2c2:	df 91       	pop	r29
 2c4:	cf 91       	pop	r28
 2c6:	08 95       	ret

000002c8 <loser>:
 2c8:	80 e0       	ldi	r24, 0x00	; 0
 2ca:	0e 94 18 01 	call	0x230	; 0x230 <TurnOnLED>
 2ce:	08 95       	ret

000002d0 <low>:
 2d0:	08 95       	ret

000002d2 <TurnOnLEDDDDD>:
 2d2:	e8 2f       	mov	r30, r24
 2d4:	10 ba       	out	0x10, r1	; 16
 2d6:	11 ba       	out	0x11, r1	; 17
 2d8:	60 e0       	ldi	r22, 0x00	; 0
 2da:	70 e0       	ldi	r23, 0x00	; 0
 2dc:	81 e0       	ldi	r24, 0x01	; 1
 2de:	90 e0       	ldi	r25, 0x00	; 0
 2e0:	06 2e       	mov	r0, r22
 2e2:	02 c0       	rjmp	.+4      	; 0x2e8 <TurnOnLEDDDDD+0x16>
 2e4:	88 0f       	add	r24, r24
 2e6:	99 1f       	adc	r25, r25
 2e8:	0a 94       	dec	r0
 2ea:	e2 f7       	brpl	.-8      	; 0x2e4 <TurnOnLEDDDDD+0x12>
 2ec:	8e 23       	and	r24, r30
 2ee:	09 f4       	brne	.+2      	; 0x2f2 <TurnOnLEDDDDD+0x20>
 2f0:	38 c0       	rjmp	.+112    	; 0x362 <L_dl2439+0x8>
 2f2:	62 30       	cpi	r22, 0x02	; 2
 2f4:	48 f4       	brcc	.+18     	; 0x308 <TurnOnLEDDDDD+0x36>
 2f6:	80 b3       	in	r24, 0x10	; 16
 2f8:	83 60       	ori	r24, 0x03	; 3
 2fa:	80 bb       	out	0x10, r24	; 16
 2fc:	66 23       	and	r22, r22
 2fe:	11 f4       	brne	.+4      	; 0x304 <TurnOnLEDDDDD+0x32>
 300:	89 9a       	sbi	0x11, 1	; 17
 302:	24 c0       	rjmp	.+72     	; 0x34c <TurnOnLEDDDDD+0x7a>
 304:	88 9a       	sbi	0x11, 0	; 17
 306:	22 c0       	rjmp	.+68     	; 0x34c <TurnOnLEDDDDD+0x7a>
 308:	86 2f       	mov	r24, r22
 30a:	82 50       	subi	r24, 0x02	; 2
 30c:	82 30       	cpi	r24, 0x02	; 2
 30e:	48 f4       	brcc	.+18     	; 0x322 <TurnOnLEDDDDD+0x50>
 310:	80 b3       	in	r24, 0x10	; 16
 312:	86 60       	ori	r24, 0x06	; 6
 314:	80 bb       	out	0x10, r24	; 16
 316:	62 30       	cpi	r22, 0x02	; 2
 318:	11 f4       	brne	.+4      	; 0x31e <TurnOnLEDDDDD+0x4c>
 31a:	8a 9a       	sbi	0x11, 2	; 17
 31c:	17 c0       	rjmp	.+46     	; 0x34c <TurnOnLEDDDDD+0x7a>
 31e:	89 9a       	sbi	0x11, 1	; 17
 320:	15 c0       	rjmp	.+42     	; 0x34c <TurnOnLEDDDDD+0x7a>
 322:	86 2f       	mov	r24, r22
 324:	84 50       	subi	r24, 0x04	; 4
 326:	82 30       	cpi	r24, 0x02	; 2
 328:	48 f4       	brcc	.+18     	; 0x33c <TurnOnLEDDDDD+0x6a>
 32a:	80 b3       	in	r24, 0x10	; 16
 32c:	85 60       	ori	r24, 0x05	; 5
 32e:	80 bb       	out	0x10, r24	; 16
 330:	64 30       	cpi	r22, 0x04	; 4
 332:	11 f4       	brne	.+4      	; 0x338 <TurnOnLEDDDDD+0x66>
 334:	88 9a       	sbi	0x11, 0	; 17
 336:	0a c0       	rjmp	.+20     	; 0x34c <TurnOnLEDDDDD+0x7a>
 338:	8a 9a       	sbi	0x11, 2	; 17
 33a:	08 c0       	rjmp	.+16     	; 0x34c <TurnOnLEDDDDD+0x7a>
 33c:	80 b3       	in	r24, 0x10	; 16
 33e:	8c 60       	ori	r24, 0x0C	; 12
 340:	80 bb       	out	0x10, r24	; 16
 342:	66 30       	cpi	r22, 0x06	; 6
 344:	11 f4       	brne	.+4      	; 0x34a <TurnOnLEDDDDD+0x78>
 346:	8b 9a       	sbi	0x11, 3	; 17
 348:	01 c0       	rjmp	.+2      	; 0x34c <TurnOnLEDDDDD+0x7a>
 34a:	8a 9a       	sbi	0x11, 2	; 17
 34c:	81 e0       	ldi	r24, 0x01	; 1
 34e:	20 ea       	ldi	r18, 0xA0	; 160
 350:	3f e0       	ldi	r19, 0x0F	; 15
 352:	40 e0       	ldi	r20, 0x00	; 0
 354:	50 e0       	ldi	r21, 0x00	; 0

00000356 <L_dl1439>:
 356:	a2 2f       	mov	r26, r18
 358:	b3 2f       	mov	r27, r19

0000035a <L_dl2439>:
 35a:	11 97       	sbiw	r26, 0x01	; 1
 35c:	f1 f7       	brne	.-4      	; 0x35a <L_dl2439>
 35e:	8a 95       	dec	r24
 360:	d1 f7       	brne	.-12     	; 0x356 <L_dl1439>
 362:	6f 5f       	subi	r22, 0xFF	; 255
 364:	7f 4f       	sbci	r23, 0xFF	; 255
 366:	68 30       	cpi	r22, 0x08	; 8
 368:	71 05       	cpc	r23, r1
 36a:	09 f0       	breq	.+2      	; 0x36e <L_dl2439+0x14>
 36c:	b7 cf       	rjmp	.-146    	; 0x2dc <TurnOnLEDDDDD+0xa>
 36e:	08 95       	ret

00000370 <main>:
 370:	8f ef       	ldi	r24, 0xFF	; 255
 372:	0e 94 69 01 	call	0x2d2	; 0x2d2 <TurnOnLEDDDDD>
 376:	fc cf       	rjmp	.-8      	; 0x370 <main>

00000378 <Initial_state>:
 378:	0e 94 4a 01 	call	0x294	; 0x294 <winner>
 37c:	0e 94 b9 00 	call	0x172	; 0x172 <getButton>
 380:	8a 30       	cpi	r24, 0x0A	; 10
 382:	d1 f3       	breq	.-12     	; 0x378 <Initial_state>
 384:	2a ef       	ldi	r18, 0xFA	; 250
 386:	80 ea       	ldi	r24, 0xA0	; 160
 388:	9f e0       	ldi	r25, 0x0F	; 15
 38a:	a0 e0       	ldi	r26, 0x00	; 0
 38c:	b0 e0       	ldi	r27, 0x00	; 0

0000038e <L_dl1480>:
 38e:	e8 2f       	mov	r30, r24
 390:	f9 2f       	mov	r31, r25

00000392 <L_dl2480>:
 392:	31 97       	sbiw	r30, 0x01	; 1
 394:	f1 f7       	brne	.-4      	; 0x392 <L_dl2480>
 396:	2a 95       	dec	r18
 398:	d1 f7       	brne	.-12     	; 0x38e <L_dl1480>

0000039a <L_dl1486>:
 39a:	e8 2f       	mov	r30, r24
 39c:	f9 2f       	mov	r31, r25

0000039e <L_dl2486>:
 39e:	31 97       	sbiw	r30, 0x01	; 1
 3a0:	f1 f7       	brne	.-4      	; 0x39e <L_dl2486>
 3a2:	2a 95       	dec	r18
 3a4:	d1 f7       	brne	.-12     	; 0x39a <L_dl1486>
 3a6:	08 95       	ret

000003a8 <simonSays>:
 3a8:	9f 92       	push	r9
 3aa:	af 92       	push	r10
 3ac:	bf 92       	push	r11
 3ae:	cf 92       	push	r12
 3b0:	df 92       	push	r13
 3b2:	ef 92       	push	r14
 3b4:	ff 92       	push	r15
 3b6:	0f 93       	push	r16
 3b8:	1f 93       	push	r17
 3ba:	cf 93       	push	r28
 3bc:	df 93       	push	r29
 3be:	81 e0       	ldi	r24, 0x01	; 1
 3c0:	0e 94 a3 00 	call	0x146	; 0x146 <randomNumber>
 3c4:	b8 2e       	mov	r11, r24
 3c6:	aa 24       	eor	r10, r10
 3c8:	a3 94       	inc	r10
 3ca:	c0 e0       	ldi	r28, 0x00	; 0
 3cc:	d0 e0       	ldi	r29, 0x00	; 0
 3ce:	9c 2e       	mov	r9, r28
 3d0:	8b 2d       	mov	r24, r11
 3d2:	0e 94 a3 00 	call	0x146	; 0x146 <randomNumber>
 3d6:	b8 2e       	mov	r11, r24
 3d8:	fe 01       	movw	r30, r28
 3da:	e0 50       	subi	r30, 0x00	; 0
 3dc:	fe 4f       	sbci	r31, 0xFE	; 254
 3de:	80 83       	st	Z, r24
 3e0:	00 e0       	ldi	r16, 0x00	; 0
 3e2:	10 e0       	ldi	r17, 0x00	; 0
 3e4:	e0 2f       	mov	r30, r16
 3e6:	f0 e0       	ldi	r31, 0x00	; 0
 3e8:	e0 50       	subi	r30, 0x00	; 0
 3ea:	fe 4f       	sbci	r31, 0xFE	; 254
 3ec:	80 81       	ld	r24, Z
 3ee:	0e 94 18 01 	call	0x230	; 0x230 <TurnOnLED>
 3f2:	2a ef       	ldi	r18, 0xFA	; 250
 3f4:	80 ea       	ldi	r24, 0xA0	; 160
 3f6:	9f e0       	ldi	r25, 0x0F	; 15
 3f8:	a0 e0       	ldi	r26, 0x00	; 0
 3fa:	b0 e0       	ldi	r27, 0x00	; 0

000003fc <L_dl1532>:
 3fc:	e8 2f       	mov	r30, r24
 3fe:	f9 2f       	mov	r31, r25

00000400 <L_dl2532>:
 400:	31 97       	sbiw	r30, 0x01	; 1
 402:	f1 f7       	brne	.-4      	; 0x400 <L_dl2532>
 404:	2a 95       	dec	r18
 406:	d1 f7       	brne	.-12     	; 0x3fc <L_dl1532>

00000408 <L_dl1538>:
 408:	e8 2f       	mov	r30, r24
 40a:	f9 2f       	mov	r31, r25

0000040c <L_dl2538>:
 40c:	31 97       	sbiw	r30, 0x01	; 1
 40e:	f1 f7       	brne	.-4      	; 0x40c <L_dl2538>
 410:	2a 95       	dec	r18
 412:	d1 f7       	brne	.-12     	; 0x408 <L_dl1538>

00000414 <L_dl1545>:
 414:	e8 2f       	mov	r30, r24
 416:	f9 2f       	mov	r31, r25

00000418 <L_dl2545>:
 418:	31 97       	sbiw	r30, 0x01	; 1
 41a:	f1 f7       	brne	.-4      	; 0x418 <L_dl2545>
 41c:	2a 95       	dec	r18
 41e:	d1 f7       	brne	.-12     	; 0x414 <L_dl1545>
 420:	11 ba       	out	0x11, r1	; 17
 422:	10 ba       	out	0x10, r1	; 16

00000424 <L_dl1561>:
 424:	e8 2f       	mov	r30, r24
 426:	f9 2f       	mov	r31, r25

00000428 <L_dl2561>:
 428:	31 97       	sbiw	r30, 0x01	; 1
 42a:	f1 f7       	brne	.-4      	; 0x428 <L_dl2561>
 42c:	2a 95       	dec	r18
 42e:	d1 f7       	brne	.-12     	; 0x424 <L_dl1561>

00000430 <L_dl1568>:
 430:	e8 2f       	mov	r30, r24
 432:	f9 2f       	mov	r31, r25

00000434 <L_dl2568>:
 434:	31 97       	sbiw	r30, 0x01	; 1
 436:	f1 f7       	brne	.-4      	; 0x434 <L_dl2568>
 438:	2a 95       	dec	r18
 43a:	d1 f7       	brne	.-12     	; 0x430 <L_dl1568>
 43c:	0f 5f       	subi	r16, 0xFF	; 255
 43e:	1f 4f       	sbci	r17, 0xFF	; 255
 440:	90 16       	cp	r9, r16
 442:	08 f0       	brcs	.+2      	; 0x446 <L_dl2568+0x12>
 444:	cf cf       	rjmp	.-98     	; 0x3e4 <simonSays+0x3c>
 446:	cc 24       	eor	r12, r12
 448:	84 e1       	ldi	r24, 0x14	; 20
 44a:	90 ea       	ldi	r25, 0xA0	; 160
 44c:	e9 2e       	mov	r14, r25
 44e:	9f e0       	ldi	r25, 0x0F	; 15
 450:	f9 2e       	mov	r15, r25
 452:	01 2d       	mov	r16, r1
 454:	11 2d       	mov	r17, r1

00000456 <L_dl1587>:
 456:	ee 2d       	mov	r30, r14
 458:	ff 2d       	mov	r31, r15

0000045a <L_dl2587>:
 45a:	31 97       	sbiw	r30, 0x01	; 1
 45c:	f1 f7       	brne	.-4      	; 0x45a <L_dl2587>
 45e:	8a 95       	dec	r24
 460:	d1 f7       	brne	.-12     	; 0x456 <L_dl1587>
 462:	0e 94 b9 00 	call	0x172	; 0x172 <getButton>
 466:	d8 2e       	mov	r13, r24
 468:	fa e0       	ldi	r31, 0x0A	; 10
 46a:	8f 17       	cp	r24, r31
 46c:	69 f3       	breq	.-38     	; 0x448 <L_dl2568+0x14>
 46e:	0e 94 18 01 	call	0x230	; 0x230 <TurnOnLED>
 472:	8a ef       	ldi	r24, 0xFA	; 250

00000474 <L_dl1607>:
 474:	ee 2d       	mov	r30, r14
 476:	ff 2d       	mov	r31, r15

00000478 <L_dl2607>:
 478:	31 97       	sbiw	r30, 0x01	; 1
 47a:	f1 f7       	brne	.-4      	; 0x478 <L_dl2607>
 47c:	8a 95       	dec	r24
 47e:	d1 f7       	brne	.-12     	; 0x474 <L_dl1607>

00000480 <L_dl1613>:
 480:	ee 2d       	mov	r30, r14
 482:	ff 2d       	mov	r31, r15

00000484 <L_dl2613>:
 484:	31 97       	sbiw	r30, 0x01	; 1
 486:	f1 f7       	brne	.-4      	; 0x484 <L_dl2613>
 488:	8a 95       	dec	r24
 48a:	d1 f7       	brne	.-12     	; 0x480 <L_dl1613>
 48c:	11 ba       	out	0x11, r1	; 17
 48e:	10 ba       	out	0x10, r1	; 16

00000490 <L_dl1629>:
 490:	ee 2d       	mov	r30, r14
 492:	ff 2d       	mov	r31, r15

00000494 <L_dl2629>:
 494:	31 97       	sbiw	r30, 0x01	; 1
 496:	f1 f7       	brne	.-4      	; 0x494 <L_dl2629>
 498:	8a 95       	dec	r24
 49a:	d1 f7       	brne	.-12     	; 0x490 <L_dl1629>
 49c:	ec 2d       	mov	r30, r12
 49e:	f0 e0       	ldi	r31, 0x00	; 0
 4a0:	e0 50       	subi	r30, 0x00	; 0
 4a2:	fe 4f       	sbci	r31, 0xFE	; 254
 4a4:	80 81       	ld	r24, Z
 4a6:	d8 16       	cp	r13, r24
 4a8:	a1 f0       	breq	.+40     	; 0x4d2 <L_dl2649+0x1a>
 4aa:	25 e0       	ldi	r18, 0x05	; 5
 4ac:	80 ea       	ldi	r24, 0xA0	; 160
 4ae:	9f e0       	ldi	r25, 0x0F	; 15
 4b0:	a0 e0       	ldi	r26, 0x00	; 0
 4b2:	b0 e0       	ldi	r27, 0x00	; 0

000004b4 <L_dl1649>:
 4b4:	e8 2f       	mov	r30, r24
 4b6:	f9 2f       	mov	r31, r25

000004b8 <L_dl2649>:
 4b8:	31 97       	sbiw	r30, 0x01	; 1
 4ba:	f1 f7       	brne	.-4      	; 0x4b8 <L_dl2649>
 4bc:	2a 95       	dec	r18
 4be:	d1 f7       	brne	.-12     	; 0x4b4 <L_dl1649>
 4c0:	0e 94 b9 00 	call	0x172	; 0x172 <getButton>
 4c4:	18 2f       	mov	r17, r24
 4c6:	0e 94 64 01 	call	0x2c8	; 0x2c8 <loser>
 4ca:	1a 30       	cpi	r17, 0x0A	; 10
 4cc:	71 f3       	breq	.-36     	; 0x4aa <L_dl2629+0x16>
 4ce:	aa 24       	eor	r10, r10
 4d0:	04 c0       	rjmp	.+8      	; 0x4da <L_dl2649+0x22>
 4d2:	c3 94       	inc	r12
 4d4:	9c 14       	cp	r9, r12
 4d6:	08 f0       	brcs	.+2      	; 0x4da <L_dl2649+0x22>
 4d8:	b7 cf       	rjmp	.-146    	; 0x448 <L_dl2568+0x14>
 4da:	c5 30       	cpi	r28, 0x05	; 5
 4dc:	d1 05       	cpc	r29, r1
 4de:	21 f0       	breq	.+8      	; 0x4e8 <L_dl2649+0x30>
 4e0:	21 96       	adiw	r28, 0x01	; 1
 4e2:	aa 20       	and	r10, r10
 4e4:	29 f0       	breq	.+10     	; 0x4f0 <L_dl2649+0x38>
 4e6:	73 cf       	rjmp	.-282    	; 0x3ce <simonSays+0x26>
 4e8:	aa 20       	and	r10, r10
 4ea:	11 f0       	breq	.+4      	; 0x4f0 <L_dl2649+0x38>
 4ec:	0e 94 4a 01 	call	0x294	; 0x294 <winner>
 4f0:	df 91       	pop	r29
 4f2:	cf 91       	pop	r28
 4f4:	1f 91       	pop	r17
 4f6:	0f 91       	pop	r16
 4f8:	ff 90       	pop	r15
 4fa:	ef 90       	pop	r14
 4fc:	df 90       	pop	r13
 4fe:	cf 90       	pop	r12
 500:	bf 90       	pop	r11
 502:	af 90       	pop	r10
 504:	9f 90       	pop	r9
 506:	08 95       	ret

00000508 <_exit>:
 508:	ff cf       	rjmp	.-2      	; 0x508 <_exit>
