
timer0.elf:     file format elf32-avr

Sections:
Idx Name          Size      VMA       LMA       File off  Algn
  0 .data         00000134  00800200  0000310c  00003180  2**0
                  CONTENTS, ALLOC, LOAD, DATA
  1 .text         0000310c  00000000  00000000  00000074  2**1
                  CONTENTS, ALLOC, LOAD, READONLY, CODE
  2 .bss          00000099  00800334  00003240  000032b4  2**0
                  ALLOC
  3 .stab         0000042c  00000000  00000000  000032b4  2**2
                  CONTENTS, READONLY, DEBUGGING
  4 .stabstr      0000005f  00000000  00000000  000036e0  2**0
                  CONTENTS, READONLY, DEBUGGING
  5 .debug_aranges 00000060  00000000  00000000  0000373f  2**0
                  CONTENTS, READONLY, DEBUGGING
  6 .debug_pubnames 000001f6  00000000  00000000  0000379f  2**0
                  CONTENTS, READONLY, DEBUGGING
  7 .debug_info   00000825  00000000  00000000  00003995  2**0
                  CONTENTS, READONLY, DEBUGGING
  8 .debug_abbrev 00000382  00000000  00000000  000041ba  2**0
                  CONTENTS, READONLY, DEBUGGING
  9 .debug_line   0000085d  00000000  00000000  0000453c  2**0
                  CONTENTS, READONLY, DEBUGGING
 10 .debug_frame  000001a0  00000000  00000000  00004d9c  2**2
                  CONTENTS, READONLY, DEBUGGING
 11 .debug_str    0000029e  00000000  00000000  00004f3c  2**0
                  CONTENTS, READONLY, DEBUGGING
 12 .debug_loc    00000951  00000000  00000000  000051da  2**0
                  CONTENTS, READONLY, DEBUGGING
Disassembly of section .text:

00000000 <__vectors>:
       0:	0c 94 72 00 	jmp	0xe4	; 0xe4 <__ctors_end>
       4:	0c 94 93 00 	jmp	0x126	; 0x126 <__bad_interrupt>
       8:	0c 94 93 00 	jmp	0x126	; 0x126 <__bad_interrupt>
       c:	0c 94 93 00 	jmp	0x126	; 0x126 <__bad_interrupt>
      10:	0c 94 93 00 	jmp	0x126	; 0x126 <__bad_interrupt>
      14:	0c 94 93 00 	jmp	0x126	; 0x126 <__bad_interrupt>
      18:	0c 94 93 00 	jmp	0x126	; 0x126 <__bad_interrupt>
      1c:	0c 94 93 00 	jmp	0x126	; 0x126 <__bad_interrupt>
      20:	0c 94 93 00 	jmp	0x126	; 0x126 <__bad_interrupt>
      24:	0c 94 93 00 	jmp	0x126	; 0x126 <__bad_interrupt>
      28:	0c 94 93 00 	jmp	0x126	; 0x126 <__bad_interrupt>
      2c:	0c 94 93 00 	jmp	0x126	; 0x126 <__bad_interrupt>
      30:	0c 94 93 00 	jmp	0x126	; 0x126 <__bad_interrupt>
      34:	0c 94 93 00 	jmp	0x126	; 0x126 <__bad_interrupt>
      38:	0c 94 93 00 	jmp	0x126	; 0x126 <__bad_interrupt>
      3c:	0c 94 93 00 	jmp	0x126	; 0x126 <__bad_interrupt>
      40:	0c 94 93 00 	jmp	0x126	; 0x126 <__bad_interrupt>
      44:	0c 94 93 00 	jmp	0x126	; 0x126 <__bad_interrupt>
      48:	0c 94 93 00 	jmp	0x126	; 0x126 <__bad_interrupt>
      4c:	0c 94 93 00 	jmp	0x126	; 0x126 <__bad_interrupt>
      50:	0c 94 93 00 	jmp	0x126	; 0x126 <__bad_interrupt>
      54:	0c 94 00 01 	jmp	0x200	; 0x200 <__vector_21>
      58:	0c 94 93 00 	jmp	0x126	; 0x126 <__bad_interrupt>
      5c:	0c 94 93 00 	jmp	0x126	; 0x126 <__bad_interrupt>
      60:	0c 94 93 00 	jmp	0x126	; 0x126 <__bad_interrupt>
      64:	0c 94 5e 07 	jmp	0xebc	; 0xebc <__vector_25>
      68:	0c 94 30 07 	jmp	0xe60	; 0xe60 <__vector_26>
      6c:	0c 94 93 00 	jmp	0x126	; 0x126 <__bad_interrupt>
      70:	0c 94 93 00 	jmp	0x126	; 0x126 <__bad_interrupt>
      74:	0c 94 93 00 	jmp	0x126	; 0x126 <__bad_interrupt>
      78:	0c 94 93 00 	jmp	0x126	; 0x126 <__bad_interrupt>
      7c:	0c 94 93 00 	jmp	0x126	; 0x126 <__bad_interrupt>
      80:	0c 94 93 00 	jmp	0x126	; 0x126 <__bad_interrupt>
      84:	0c 94 93 00 	jmp	0x126	; 0x126 <__bad_interrupt>
      88:	0c 94 93 00 	jmp	0x126	; 0x126 <__bad_interrupt>
      8c:	0c 94 93 00 	jmp	0x126	; 0x126 <__bad_interrupt>
      90:	0c 94 93 00 	jmp	0x126	; 0x126 <__bad_interrupt>
      94:	0c 94 93 00 	jmp	0x126	; 0x126 <__bad_interrupt>
      98:	0c 94 93 00 	jmp	0x126	; 0x126 <__bad_interrupt>
      9c:	0c 94 93 00 	jmp	0x126	; 0x126 <__bad_interrupt>
      a0:	0c 94 93 00 	jmp	0x126	; 0x126 <__bad_interrupt>
      a4:	0c 94 93 00 	jmp	0x126	; 0x126 <__bad_interrupt>
      a8:	0c 94 93 00 	jmp	0x126	; 0x126 <__bad_interrupt>
      ac:	0c 94 93 00 	jmp	0x126	; 0x126 <__bad_interrupt>
      b0:	0c 94 93 00 	jmp	0x126	; 0x126 <__bad_interrupt>
      b4:	0c 94 93 00 	jmp	0x126	; 0x126 <__bad_interrupt>
      b8:	0c 94 93 00 	jmp	0x126	; 0x126 <__bad_interrupt>
      bc:	0c 94 93 00 	jmp	0x126	; 0x126 <__bad_interrupt>
      c0:	0c 94 93 00 	jmp	0x126	; 0x126 <__bad_interrupt>
      c4:	0c 94 93 00 	jmp	0x126	; 0x126 <__bad_interrupt>
      c8:	0c 94 93 00 	jmp	0x126	; 0x126 <__bad_interrupt>
      cc:	0c 94 93 00 	jmp	0x126	; 0x126 <__bad_interrupt>
      d0:	0c 94 93 00 	jmp	0x126	; 0x126 <__bad_interrupt>
      d4:	0c 94 93 00 	jmp	0x126	; 0x126 <__bad_interrupt>
      d8:	0c 94 93 00 	jmp	0x126	; 0x126 <__bad_interrupt>
      dc:	0c 94 93 00 	jmp	0x126	; 0x126 <__bad_interrupt>
      e0:	0c 94 93 00 	jmp	0x126	; 0x126 <__bad_interrupt>

000000e4 <__ctors_end>:
      e4:	11 24       	eor	r1, r1
      e6:	1f be       	out	0x3f, r1	; 63
      e8:	cf ef       	ldi	r28, 0xFF	; 255
      ea:	d1 e2       	ldi	r29, 0x21	; 33
      ec:	de bf       	out	0x3e, r29	; 62
      ee:	cd bf       	out	0x3d, r28	; 61
      f0:	00 e0       	ldi	r16, 0x00	; 0
      f2:	0c bf       	out	0x3c, r16	; 60

000000f4 <__do_copy_data>:
      f4:	13 e0       	ldi	r17, 0x03	; 3
      f6:	a0 e0       	ldi	r26, 0x00	; 0
      f8:	b2 e0       	ldi	r27, 0x02	; 2
      fa:	ec e0       	ldi	r30, 0x0C	; 12
      fc:	f1 e3       	ldi	r31, 0x31	; 49
      fe:	00 e0       	ldi	r16, 0x00	; 0
     100:	0b bf       	out	0x3b, r16	; 59
     102:	02 c0       	rjmp	.+4      	; 0x108 <__do_copy_data+0x14>
     104:	07 90       	elpm	r0, Z+
     106:	0d 92       	st	X+, r0
     108:	a4 33       	cpi	r26, 0x34	; 52
     10a:	b1 07       	cpc	r27, r17
     10c:	d9 f7       	brne	.-10     	; 0x104 <__do_copy_data+0x10>

0000010e <__do_clear_bss>:
     10e:	13 e0       	ldi	r17, 0x03	; 3
     110:	a4 e3       	ldi	r26, 0x34	; 52
     112:	b3 e0       	ldi	r27, 0x03	; 3
     114:	01 c0       	rjmp	.+2      	; 0x118 <.do_clear_bss_start>

00000116 <.do_clear_bss_loop>:
     116:	1d 92       	st	X+, r1

00000118 <.do_clear_bss_start>:
     118:	ad 3c       	cpi	r26, 0xCD	; 205
     11a:	b1 07       	cpc	r27, r17
     11c:	e1 f7       	brne	.-8      	; 0x116 <.do_clear_bss_loop>
     11e:	0e 94 cc 06 	call	0xd98	; 0xd98 <main>
     122:	0c 94 85 18 	jmp	0x310a	; 0x310a <_exit>

00000126 <__bad_interrupt>:
     126:	0c 94 00 00 	jmp	0	; 0x0 <__heap_end>

0000012a <Timer0_Init>:
     12a:	27 9a       	sbi	0x04, 7	; 4
     12c:	16 bc       	out	0x26, r1	; 38
     12e:	89 ef       	ldi	r24, 0xF9	; 249
     130:	87 bd       	out	0x27, r24	; 39
     132:	84 b5       	in	r24, 0x24	; 36
     134:	82 60       	ori	r24, 0x02	; 2
     136:	84 bd       	out	0x24, r24	; 36
     138:	85 b5       	in	r24, 0x25	; 37
     13a:	83 60       	ori	r24, 0x03	; 3
     13c:	85 bd       	out	0x25, r24	; 37
     13e:	ee e6       	ldi	r30, 0x6E	; 110
     140:	f0 e0       	ldi	r31, 0x00	; 0
     142:	80 81       	ld	r24, Z
     144:	82 60       	ori	r24, 0x02	; 2
     146:	80 83       	st	Z, r24
     148:	78 94       	sei
     14a:	08 95       	ret

0000014c <Timer0_SecFlag>:
     14c:	80 91 3e 03 	lds	r24, 0x033E
     150:	88 23       	and	r24, r24
     152:	19 f4       	brne	.+6      	; 0x15a <Timer0_SecFlag+0xe>
     154:	80 e0       	ldi	r24, 0x00	; 0
     156:	90 e0       	ldi	r25, 0x00	; 0
     158:	08 95       	ret
     15a:	10 92 3e 03 	sts	0x033E, r1
     15e:	81 e0       	ldi	r24, 0x01	; 1
     160:	90 e0       	ldi	r25, 0x00	; 0
     162:	08 95       	ret

00000164 <millis>:
     164:	2f 92       	push	r2
     166:	3f 92       	push	r3
     168:	4f 92       	push	r4
     16a:	5f 92       	push	r5
     16c:	6f 92       	push	r6
     16e:	7f 92       	push	r7
     170:	8f 92       	push	r8
     172:	9f 92       	push	r9
     174:	af 92       	push	r10
     176:	bf 92       	push	r11
     178:	cf 92       	push	r12
     17a:	df 92       	push	r13
     17c:	ef 92       	push	r14
     17e:	ff 92       	push	r15
     180:	0f 93       	push	r16
     182:	1f 93       	push	r17
     184:	20 90 34 03 	lds	r2, 0x0334
     188:	30 90 35 03 	lds	r3, 0x0335
     18c:	40 90 36 03 	lds	r4, 0x0336
     190:	50 90 37 03 	lds	r5, 0x0337
     194:	60 90 38 03 	lds	r6, 0x0338
     198:	70 90 39 03 	lds	r7, 0x0339
     19c:	80 90 3a 03 	lds	r8, 0x033A
     1a0:	90 90 3b 03 	lds	r9, 0x033B
     1a4:	22 2d       	mov	r18, r2
     1a6:	33 2d       	mov	r19, r3
     1a8:	44 2d       	mov	r20, r4
     1aa:	55 2d       	mov	r21, r5
     1ac:	66 2d       	mov	r22, r6
     1ae:	77 2d       	mov	r23, r7
     1b0:	88 2d       	mov	r24, r8
     1b2:	99 2d       	mov	r25, r9
     1b4:	1f 91       	pop	r17
     1b6:	0f 91       	pop	r16
     1b8:	ff 90       	pop	r15
     1ba:	ef 90       	pop	r14
     1bc:	df 90       	pop	r13
     1be:	cf 90       	pop	r12
     1c0:	bf 90       	pop	r11
     1c2:	af 90       	pop	r10
     1c4:	9f 90       	pop	r9
     1c6:	8f 90       	pop	r8
     1c8:	7f 90       	pop	r7
     1ca:	6f 90       	pop	r6
     1cc:	5f 90       	pop	r5
     1ce:	4f 90       	pop	r4
     1d0:	3f 90       	pop	r3
     1d2:	2f 90       	pop	r2
     1d4:	08 95       	ret

000001d6 <UART_AutoBaudRate>:
     1d6:	68 98       	cbi	0x0d, 0	; 13
     1d8:	70 9a       	sbi	0x0e, 0	; 14
     1da:	16 bc       	out	0x26, r1	; 38
     1dc:	14 bc       	out	0x24, r1	; 36
     1de:	15 bc       	out	0x25, r1	; 37
     1e0:	60 99       	sbic	0x0c, 0	; 12
     1e2:	fe cf       	rjmp	.-4      	; 0x1e0 <UART_AutoBaudRate+0xa>
     1e4:	82 e0       	ldi	r24, 0x02	; 2
     1e6:	85 bd       	out	0x25, r24	; 37
     1e8:	60 9b       	sbis	0x0c, 0	; 12
     1ea:	fe cf       	rjmp	.-4      	; 0x1e8 <UART_AutoBaudRate+0x12>
     1ec:	15 bc       	out	0x25, r1	; 37
     1ee:	86 b5       	in	r24, 0x26	; 38
     1f0:	86 95       	lsr	r24
     1f2:	90 e0       	ldi	r25, 0x00	; 0
     1f4:	01 97       	sbiw	r24, 0x01	; 1
     1f6:	90 93 c5 00 	sts	0x00C5, r25
     1fa:	80 93 c4 00 	sts	0x00C4, r24
     1fe:	08 95       	ret

00000200 <__vector_21>:
     200:	1f 92       	push	r1
     202:	0f 92       	push	r0
     204:	0f b6       	in	r0, 0x3f	; 63
     206:	0f 92       	push	r0
     208:	11 24       	eor	r1, r1
     20a:	8f 92       	push	r8
     20c:	9f 92       	push	r9
     20e:	af 92       	push	r10
     210:	bf 92       	push	r11
     212:	cf 92       	push	r12
     214:	df 92       	push	r13
     216:	ef 92       	push	r14
     218:	ff 92       	push	r15
     21a:	0f 93       	push	r16
     21c:	1f 93       	push	r17
     21e:	2f 93       	push	r18
     220:	3f 93       	push	r19
     222:	4f 93       	push	r20
     224:	5f 93       	push	r21
     226:	6f 93       	push	r22
     228:	7f 93       	push	r23
     22a:	8f 93       	push	r24
     22c:	9f 93       	push	r25
     22e:	af 93       	push	r26
     230:	bf 93       	push	r27
     232:	ef 93       	push	r30
     234:	ff 93       	push	r31
     236:	cf 93       	push	r28
     238:	df 93       	push	r29
     23a:	cd b7       	in	r28, 0x3d	; 61
     23c:	de b7       	in	r29, 0x3e	; 62
     23e:	28 97       	sbiw	r28, 0x08	; 8
     240:	de bf       	out	0x3e, r29	; 62
     242:	cd bf       	out	0x3d, r28	; 61
     244:	00 91 34 03 	lds	r16, 0x0334
     248:	10 91 35 03 	lds	r17, 0x0335
     24c:	20 91 36 03 	lds	r18, 0x0336
     250:	30 91 37 03 	lds	r19, 0x0337
     254:	40 91 38 03 	lds	r20, 0x0338
     258:	50 91 39 03 	lds	r21, 0x0339
     25c:	60 91 3a 03 	lds	r22, 0x033A
     260:	70 91 3b 03 	lds	r23, 0x033B
     264:	81 e0       	ldi	r24, 0x01	; 1
     266:	89 83       	std	Y+1, r24	; 0x01
     268:	1a 82       	std	Y+2, r1	; 0x02
     26a:	1b 82       	std	Y+3, r1	; 0x03
     26c:	1c 82       	std	Y+4, r1	; 0x04
     26e:	1d 82       	std	Y+5, r1	; 0x05
     270:	1e 82       	std	Y+6, r1	; 0x06
     272:	1f 82       	std	Y+7, r1	; 0x07
     274:	18 86       	std	Y+8, r1	; 0x08
     276:	88 24       	eor	r8, r8
     278:	83 94       	inc	r8
     27a:	80 0e       	add	r8, r16
     27c:	80 16       	cp	r8, r16
     27e:	08 f0       	brcs	.+2      	; 0x282 <__vector_21+0x82>
     280:	80 e0       	ldi	r24, 0x00	; 0
     282:	9a 80       	ldd	r9, Y+2	; 0x02
     284:	91 0e       	add	r9, r17
     286:	a1 e0       	ldi	r26, 0x01	; 1
     288:	91 16       	cp	r9, r17
     28a:	08 f0       	brcs	.+2      	; 0x28e <__vector_21+0x8e>
     28c:	a0 e0       	ldi	r26, 0x00	; 0
     28e:	89 0d       	add	r24, r9
     290:	91 e0       	ldi	r25, 0x01	; 1
     292:	89 15       	cp	r24, r9
     294:	08 f0       	brcs	.+2      	; 0x298 <__vector_21+0x98>
     296:	90 e0       	ldi	r25, 0x00	; 0
     298:	a9 2b       	or	r26, r25
     29a:	98 2e       	mov	r9, r24
     29c:	ab 80       	ldd	r10, Y+3	; 0x03
     29e:	a2 0e       	add	r10, r18
     2a0:	b1 e0       	ldi	r27, 0x01	; 1
     2a2:	a2 16       	cp	r10, r18
     2a4:	08 f0       	brcs	.+2      	; 0x2a8 <__vector_21+0xa8>
     2a6:	b0 e0       	ldi	r27, 0x00	; 0
     2a8:	8a 2f       	mov	r24, r26
     2aa:	8a 0d       	add	r24, r10
     2ac:	91 e0       	ldi	r25, 0x01	; 1
     2ae:	8a 15       	cp	r24, r10
     2b0:	08 f0       	brcs	.+2      	; 0x2b4 <__vector_21+0xb4>
     2b2:	90 e0       	ldi	r25, 0x00	; 0
     2b4:	b9 2b       	or	r27, r25
     2b6:	a8 2e       	mov	r10, r24
     2b8:	bc 80       	ldd	r11, Y+4	; 0x04
     2ba:	b3 0e       	add	r11, r19
     2bc:	a1 e0       	ldi	r26, 0x01	; 1
     2be:	b3 16       	cp	r11, r19
     2c0:	08 f0       	brcs	.+2      	; 0x2c4 <__vector_21+0xc4>
     2c2:	a0 e0       	ldi	r26, 0x00	; 0
     2c4:	8b 2f       	mov	r24, r27
     2c6:	8b 0d       	add	r24, r11
     2c8:	91 e0       	ldi	r25, 0x01	; 1
     2ca:	8b 15       	cp	r24, r11
     2cc:	08 f0       	brcs	.+2      	; 0x2d0 <__vector_21+0xd0>
     2ce:	90 e0       	ldi	r25, 0x00	; 0
     2d0:	a9 2b       	or	r26, r25
     2d2:	b8 2e       	mov	r11, r24
     2d4:	cd 80       	ldd	r12, Y+5	; 0x05
     2d6:	c4 0e       	add	r12, r20
     2d8:	b1 e0       	ldi	r27, 0x01	; 1
     2da:	c4 16       	cp	r12, r20
     2dc:	08 f0       	brcs	.+2      	; 0x2e0 <__vector_21+0xe0>
     2de:	b0 e0       	ldi	r27, 0x00	; 0
     2e0:	8a 2f       	mov	r24, r26
     2e2:	8c 0d       	add	r24, r12
     2e4:	91 e0       	ldi	r25, 0x01	; 1
     2e6:	8c 15       	cp	r24, r12
     2e8:	08 f0       	brcs	.+2      	; 0x2ec <__vector_21+0xec>
     2ea:	90 e0       	ldi	r25, 0x00	; 0
     2ec:	b9 2b       	or	r27, r25
     2ee:	c8 2e       	mov	r12, r24
     2f0:	de 80       	ldd	r13, Y+6	; 0x06
     2f2:	d5 0e       	add	r13, r21
     2f4:	a1 e0       	ldi	r26, 0x01	; 1
     2f6:	d5 16       	cp	r13, r21
     2f8:	08 f0       	brcs	.+2      	; 0x2fc <__vector_21+0xfc>
     2fa:	a0 e0       	ldi	r26, 0x00	; 0
     2fc:	8b 2f       	mov	r24, r27
     2fe:	8d 0d       	add	r24, r13
     300:	91 e0       	ldi	r25, 0x01	; 1
     302:	8d 15       	cp	r24, r13
     304:	08 f0       	brcs	.+2      	; 0x308 <__vector_21+0x108>
     306:	90 e0       	ldi	r25, 0x00	; 0
     308:	a9 2b       	or	r26, r25
     30a:	d8 2e       	mov	r13, r24
     30c:	ef 80       	ldd	r14, Y+7	; 0x07
     30e:	e6 0e       	add	r14, r22
     310:	f1 e0       	ldi	r31, 0x01	; 1
     312:	e6 16       	cp	r14, r22
     314:	08 f0       	brcs	.+2      	; 0x318 <__vector_21+0x118>
     316:	f0 e0       	ldi	r31, 0x00	; 0
     318:	9a 2f       	mov	r25, r26
     31a:	9e 0d       	add	r25, r14
     31c:	81 e0       	ldi	r24, 0x01	; 1
     31e:	9e 15       	cp	r25, r14
     320:	08 f0       	brcs	.+2      	; 0x324 <__vector_21+0x124>
     322:	80 e0       	ldi	r24, 0x00	; 0
     324:	8f 2b       	or	r24, r31
     326:	f8 84       	ldd	r15, Y+8	; 0x08
     328:	f7 0e       	add	r15, r23
     32a:	8f 0d       	add	r24, r15
     32c:	80 92 34 03 	sts	0x0334, r8
     330:	90 92 35 03 	sts	0x0335, r9
     334:	a0 92 36 03 	sts	0x0336, r10
     338:	b0 92 37 03 	sts	0x0337, r11
     33c:	c0 92 38 03 	sts	0x0338, r12
     340:	d0 92 39 03 	sts	0x0339, r13
     344:	90 93 3a 03 	sts	0x033A, r25
     348:	80 93 3b 03 	sts	0x033B, r24
     34c:	80 91 3c 03 	lds	r24, 0x033C
     350:	90 91 3d 03 	lds	r25, 0x033D
     354:	01 96       	adiw	r24, 0x01	; 1
     356:	90 93 3d 03 	sts	0x033D, r25
     35a:	80 93 3c 03 	sts	0x033C, r24
     35e:	88 5e       	subi	r24, 0xE8	; 232
     360:	93 40       	sbci	r25, 0x03	; 3
     362:	38 f0       	brcs	.+14     	; 0x372 <__vector_21+0x172>
     364:	81 e0       	ldi	r24, 0x01	; 1
     366:	80 93 3e 03 	sts	0x033E, r24
     36a:	10 92 3d 03 	sts	0x033D, r1
     36e:	10 92 3c 03 	sts	0x033C, r1
     372:	28 96       	adiw	r28, 0x08	; 8
     374:	f8 94       	cli
     376:	de bf       	out	0x3e, r29	; 62
     378:	cd bf       	out	0x3d, r28	; 61
     37a:	df 91       	pop	r29
     37c:	cf 91       	pop	r28
     37e:	ff 91       	pop	r31
     380:	ef 91       	pop	r30
     382:	bf 91       	pop	r27
     384:	af 91       	pop	r26
     386:	9f 91       	pop	r25
     388:	8f 91       	pop	r24
     38a:	7f 91       	pop	r23
     38c:	6f 91       	pop	r22
     38e:	5f 91       	pop	r21
     390:	4f 91       	pop	r20
     392:	3f 91       	pop	r19
     394:	2f 91       	pop	r18
     396:	1f 91       	pop	r17
     398:	0f 91       	pop	r16
     39a:	ff 90       	pop	r15
     39c:	ef 90       	pop	r14
     39e:	df 90       	pop	r13
     3a0:	cf 90       	pop	r12
     3a2:	bf 90       	pop	r11
     3a4:	af 90       	pop	r10
     3a6:	9f 90       	pop	r9
     3a8:	8f 90       	pop	r8
     3aa:	0f 90       	pop	r0
     3ac:	0f be       	out	0x3f, r0	; 63
     3ae:	0f 90       	pop	r0
     3b0:	1f 90       	pop	r1
     3b2:	18 95       	reti

000003b4 <Clock_update>:
     3b4:	80 91 47 03 	lds	r24, 0x0347
     3b8:	8f 5f       	subi	r24, 0xFF	; 255
     3ba:	80 93 47 03 	sts	0x0347, r24
     3be:	8c 33       	cpi	r24, 0x3C	; 60
     3c0:	a1 f5       	brne	.+104    	; 0x42a <Clock_update+0x76>
     3c2:	10 92 47 03 	sts	0x0347, r1
     3c6:	80 91 44 03 	lds	r24, 0x0344
     3ca:	8f 5f       	subi	r24, 0xFF	; 255
     3cc:	80 93 44 03 	sts	0x0344, r24
     3d0:	8c 33       	cpi	r24, 0x3C	; 60
     3d2:	59 f5       	brne	.+86     	; 0x42a <Clock_update+0x76>
     3d4:	10 92 44 03 	sts	0x0344, r1
     3d8:	80 91 43 03 	lds	r24, 0x0343
     3dc:	90 e0       	ldi	r25, 0x00	; 0
     3de:	01 96       	adiw	r24, 0x01	; 1
     3e0:	68 e1       	ldi	r22, 0x18	; 24
     3e2:	70 e0       	ldi	r23, 0x00	; 0
     3e4:	0e 94 df 17 	call	0x2fbe	; 0x2fbe <__divmodhi4>
     3e8:	80 93 43 03 	sts	0x0343, r24
     3ec:	88 31       	cpi	r24, 0x18	; 24
     3ee:	e9 f4       	brne	.+58     	; 0x42a <Clock_update+0x76>
     3f0:	10 92 43 03 	sts	0x0343, r1
     3f4:	80 91 48 03 	lds	r24, 0x0348
     3f8:	8f 5f       	subi	r24, 0xFF	; 255
     3fa:	80 93 48 03 	sts	0x0348, r24
     3fe:	8e 31       	cpi	r24, 0x1E	; 30
     400:	a1 f4       	brne	.+40     	; 0x42a <Clock_update+0x76>
     402:	10 92 48 03 	sts	0x0348, r1
     406:	80 91 42 03 	lds	r24, 0x0342
     40a:	8f 5f       	subi	r24, 0xFF	; 255
     40c:	80 93 42 03 	sts	0x0342, r24
     410:	8c 30       	cpi	r24, 0x0C	; 12
     412:	59 f4       	brne	.+22     	; 0x42a <Clock_update+0x76>
     414:	10 92 42 03 	sts	0x0342, r1
     418:	80 91 45 03 	lds	r24, 0x0345
     41c:	90 91 46 03 	lds	r25, 0x0346
     420:	01 96       	adiw	r24, 0x01	; 1
     422:	90 93 46 03 	sts	0x0346, r25
     426:	80 93 45 03 	sts	0x0345, r24
     42a:	08 95       	ret

0000042c <Clock_Ini>:
     42c:	2f 92       	push	r2
     42e:	3f 92       	push	r3
     430:	4f 92       	push	r4
     432:	5f 92       	push	r5
     434:	6f 92       	push	r6
     436:	7f 92       	push	r7
     438:	8f 92       	push	r8
     43a:	9f 92       	push	r9
     43c:	af 92       	push	r10
     43e:	bf 92       	push	r11
     440:	cf 92       	push	r12
     442:	df 92       	push	r13
     444:	ef 92       	push	r14
     446:	ff 92       	push	r15
     448:	0f 93       	push	r16
     44a:	1f 93       	push	r17
     44c:	cf 93       	push	r28
     44e:	df 93       	push	r29
     450:	cd b7       	in	r28, 0x3d	; 61
     452:	de b7       	in	r29, 0x3e	; 62
     454:	e9 97       	sbiw	r28, 0x39	; 57
     456:	0f b6       	in	r0, 0x3f	; 63
     458:	f8 94       	cli
     45a:	de bf       	out	0x3e, r29	; 62
     45c:	0f be       	out	0x3f, r0	; 63
     45e:	cd bf       	out	0x3d, r28	; 61
     460:	22 2e       	mov	r2, r18
     462:	33 2e       	mov	r3, r19
     464:	44 2e       	mov	r4, r20
     466:	55 2e       	mov	r5, r21
     468:	66 2e       	mov	r6, r22
     46a:	77 2e       	mov	r7, r23
     46c:	88 2e       	mov	r8, r24
     46e:	99 2e       	mov	r9, r25
     470:	9e e3       	ldi	r25, 0x3E	; 62
     472:	a9 2e       	mov	r10, r25
     474:	85 e8       	ldi	r24, 0x85	; 133
     476:	b8 2e       	mov	r11, r24
     478:	01 ee       	ldi	r16, 0xE1	; 225
     47a:	c0 2e       	mov	r12, r16
     47c:	dd 24       	eor	r13, r13
     47e:	d3 94       	inc	r13
     480:	ee 24       	eor	r14, r14
     482:	ff 24       	eor	r15, r15
     484:	00 e0       	ldi	r16, 0x00	; 0
     486:	10 e0       	ldi	r17, 0x00	; 0
     488:	88 2d       	mov	r24, r8
     48a:	99 2d       	mov	r25, r9
     48c:	0e 94 e0 0a 	call	0x15c0	; 0x15c0 <__udivdi3>
     490:	a2 2e       	mov	r10, r18
     492:	b3 2e       	mov	r11, r19
     494:	c5 01       	movw	r24, r10
     496:	68 ee       	ldi	r22, 0xE8	; 232
     498:	73 e0       	ldi	r23, 0x03	; 3
     49a:	0e 94 cb 17 	call	0x2f96	; 0x2f96 <__udivmodhi4>
     49e:	ab 01       	movw	r20, r22
     4a0:	70 93 46 03 	sts	0x0346, r23
     4a4:	60 93 45 03 	sts	0x0345, r22
     4a8:	10 e3       	ldi	r17, 0x30	; 48
     4aa:	a1 2e       	mov	r10, r17
     4ac:	ba e7       	ldi	r27, 0x7A	; 122
     4ae:	bb 2e       	mov	r11, r27
     4b0:	a0 ef       	ldi	r26, 0xF0	; 240
     4b2:	ca 2e       	mov	r12, r26
     4b4:	f8 e5       	ldi	r31, 0x58	; 88
     4b6:	df 2e       	mov	r13, r31
     4b8:	e7 e0       	ldi	r30, 0x07	; 7
     4ba:	ee 2e       	mov	r14, r30
     4bc:	ff 24       	eor	r15, r15
     4be:	00 e0       	ldi	r16, 0x00	; 0
     4c0:	10 e0       	ldi	r17, 0x00	; 0
     4c2:	26 2f       	mov	r18, r22
     4c4:	35 2f       	mov	r19, r21
     4c6:	40 e0       	ldi	r20, 0x00	; 0
     4c8:	50 e0       	ldi	r21, 0x00	; 0
     4ca:	60 e0       	ldi	r22, 0x00	; 0
     4cc:	70 e0       	ldi	r23, 0x00	; 0
     4ce:	80 e0       	ldi	r24, 0x00	; 0
     4d0:	90 e0       	ldi	r25, 0x00	; 0
     4d2:	0e 94 d0 09 	call	0x13a0	; 0x13a0 <__muldi3>
     4d6:	2a a7       	std	Y+42, r18	; 0x2a
     4d8:	3b a7       	std	Y+43, r19	; 0x2b
     4da:	4c a7       	std	Y+44, r20	; 0x2c
     4dc:	5d a7       	std	Y+45, r21	; 0x2d
     4de:	6e a7       	std	Y+46, r22	; 0x2e
     4e0:	7f a7       	std	Y+47, r23	; 0x2f
     4e2:	88 ab       	std	Y+48, r24	; 0x30
     4e4:	99 ab       	std	Y+49, r25	; 0x31
     4e6:	02 2d       	mov	r16, r2
     4e8:	02 1b       	sub	r16, r18
     4ea:	81 e0       	ldi	r24, 0x01	; 1
     4ec:	20 16       	cp	r2, r16
     4ee:	08 f0       	brcs	.+2      	; 0x4f2 <Clock_Ini+0xc6>
     4f0:	80 e0       	ldi	r24, 0x00	; 0
     4f2:	13 2d       	mov	r17, r3
     4f4:	9b a5       	ldd	r25, Y+43	; 0x2b
     4f6:	19 1b       	sub	r17, r25
     4f8:	a1 e0       	ldi	r26, 0x01	; 1
     4fa:	31 16       	cp	r3, r17
     4fc:	08 f0       	brcs	.+2      	; 0x500 <Clock_Ini+0xd4>
     4fe:	a0 e0       	ldi	r26, 0x00	; 0
     500:	e1 2f       	mov	r30, r17
     502:	e8 1b       	sub	r30, r24
     504:	8e 2f       	mov	r24, r30
     506:	91 e0       	ldi	r25, 0x01	; 1
     508:	1e 17       	cp	r17, r30
     50a:	08 f0       	brcs	.+2      	; 0x50e <Clock_Ini+0xe2>
     50c:	90 e0       	ldi	r25, 0x00	; 0
     50e:	a9 2b       	or	r26, r25
     510:	18 2f       	mov	r17, r24
     512:	24 2d       	mov	r18, r4
     514:	fc a5       	ldd	r31, Y+44	; 0x2c
     516:	2f 1b       	sub	r18, r31
     518:	b1 e0       	ldi	r27, 0x01	; 1
     51a:	42 16       	cp	r4, r18
     51c:	08 f0       	brcs	.+2      	; 0x520 <Clock_Ini+0xf4>
     51e:	b0 e0       	ldi	r27, 0x00	; 0
     520:	82 2f       	mov	r24, r18
     522:	8a 1b       	sub	r24, r26
     524:	91 e0       	ldi	r25, 0x01	; 1
     526:	28 17       	cp	r18, r24
     528:	08 f0       	brcs	.+2      	; 0x52c <Clock_Ini+0x100>
     52a:	90 e0       	ldi	r25, 0x00	; 0
     52c:	b9 2b       	or	r27, r25
     52e:	28 2f       	mov	r18, r24
     530:	35 2d       	mov	r19, r5
     532:	8d a5       	ldd	r24, Y+45	; 0x2d
     534:	38 1b       	sub	r19, r24
     536:	a1 e0       	ldi	r26, 0x01	; 1
     538:	53 16       	cp	r5, r19
     53a:	08 f0       	brcs	.+2      	; 0x53e <Clock_Ini+0x112>
     53c:	a0 e0       	ldi	r26, 0x00	; 0
     53e:	83 2f       	mov	r24, r19
     540:	8b 1b       	sub	r24, r27
     542:	91 e0       	ldi	r25, 0x01	; 1
     544:	38 17       	cp	r19, r24
     546:	08 f0       	brcs	.+2      	; 0x54a <Clock_Ini+0x11e>
     548:	90 e0       	ldi	r25, 0x00	; 0
     54a:	a9 2b       	or	r26, r25
     54c:	38 2f       	mov	r19, r24
     54e:	46 2d       	mov	r20, r6
     550:	9e a5       	ldd	r25, Y+46	; 0x2e
     552:	49 1b       	sub	r20, r25
     554:	b1 e0       	ldi	r27, 0x01	; 1
     556:	64 16       	cp	r6, r20
     558:	08 f0       	brcs	.+2      	; 0x55c <Clock_Ini+0x130>
     55a:	b0 e0       	ldi	r27, 0x00	; 0
     55c:	84 2f       	mov	r24, r20
     55e:	8a 1b       	sub	r24, r26
     560:	91 e0       	ldi	r25, 0x01	; 1
     562:	48 17       	cp	r20, r24
     564:	08 f0       	brcs	.+2      	; 0x568 <Clock_Ini+0x13c>
     566:	90 e0       	ldi	r25, 0x00	; 0
     568:	b9 2b       	or	r27, r25
     56a:	48 2f       	mov	r20, r24
     56c:	57 2d       	mov	r21, r7
     56e:	ef a5       	ldd	r30, Y+47	; 0x2f
     570:	5e 1b       	sub	r21, r30
     572:	a1 e0       	ldi	r26, 0x01	; 1
     574:	75 16       	cp	r7, r21
     576:	08 f0       	brcs	.+2      	; 0x57a <Clock_Ini+0x14e>
     578:	a0 e0       	ldi	r26, 0x00	; 0
     57a:	85 2f       	mov	r24, r21
     57c:	8b 1b       	sub	r24, r27
     57e:	91 e0       	ldi	r25, 0x01	; 1
     580:	58 17       	cp	r21, r24
     582:	08 f0       	brcs	.+2      	; 0x586 <Clock_Ini+0x15a>
     584:	90 e0       	ldi	r25, 0x00	; 0
     586:	a9 2b       	or	r26, r25
     588:	58 2f       	mov	r21, r24
     58a:	68 2d       	mov	r22, r8
     58c:	f8 a9       	ldd	r31, Y+48	; 0x30
     58e:	6f 1b       	sub	r22, r31
     590:	91 e0       	ldi	r25, 0x01	; 1
     592:	86 16       	cp	r8, r22
     594:	08 f0       	brcs	.+2      	; 0x598 <Clock_Ini+0x16c>
     596:	90 e0       	ldi	r25, 0x00	; 0
     598:	86 2f       	mov	r24, r22
     59a:	8a 1b       	sub	r24, r26
     59c:	e1 e0       	ldi	r30, 0x01	; 1
     59e:	68 17       	cp	r22, r24
     5a0:	08 f0       	brcs	.+2      	; 0x5a4 <Clock_Ini+0x178>
     5a2:	e0 e0       	ldi	r30, 0x00	; 0
     5a4:	9e 2b       	or	r25, r30
     5a6:	68 2f       	mov	r22, r24
     5a8:	79 2d       	mov	r23, r9
     5aa:	89 a9       	ldd	r24, Y+49	; 0x31
     5ac:	78 1b       	sub	r23, r24
     5ae:	e7 2f       	mov	r30, r23
     5b0:	e9 1b       	sub	r30, r25
     5b2:	9e 2f       	mov	r25, r30
     5b4:	0a 8f       	std	Y+26, r16	; 0x1a
     5b6:	1b 8f       	std	Y+27, r17	; 0x1b
     5b8:	2c 8f       	std	Y+28, r18	; 0x1c
     5ba:	3d 8f       	std	Y+29, r19	; 0x1d
     5bc:	4e 8f       	std	Y+30, r20	; 0x1e
     5be:	5f 8f       	std	Y+31, r21	; 0x1f
     5c0:	68 a3       	std	Y+32, r22	; 0x20
     5c2:	e9 a3       	std	Y+33, r30	; 0x21
     5c4:	78 e9       	ldi	r23, 0x98	; 152
     5c6:	a7 2e       	mov	r10, r23
     5c8:	61 eb       	ldi	r22, 0xB1	; 177
     5ca:	b6 2e       	mov	r11, r22
     5cc:	5e eb       	ldi	r21, 0xBE	; 190
     5ce:	c5 2e       	mov	r12, r21
     5d0:	4c e9       	ldi	r20, 0x9C	; 156
     5d2:	d4 2e       	mov	r13, r20
     5d4:	ee 24       	eor	r14, r14
     5d6:	ff 24       	eor	r15, r15
     5d8:	00 e0       	ldi	r16, 0x00	; 0
     5da:	10 e0       	ldi	r17, 0x00	; 0
     5dc:	2a 8d       	ldd	r18, Y+26	; 0x1a
     5de:	3b 8d       	ldd	r19, Y+27	; 0x1b
     5e0:	4c 8d       	ldd	r20, Y+28	; 0x1c
     5e2:	5d 8d       	ldd	r21, Y+29	; 0x1d
     5e4:	6e 8d       	ldd	r22, Y+30	; 0x1e
     5e6:	7f 8d       	ldd	r23, Y+31	; 0x1f
     5e8:	88 a1       	ldd	r24, Y+32	; 0x20
     5ea:	0e 94 e0 0a 	call	0x15c0	; 0x15c0 <__udivdi3>
     5ee:	20 93 42 03 	sts	0x0342, r18
     5f2:	30 e0       	ldi	r19, 0x00	; 0
     5f4:	40 e0       	ldi	r20, 0x00	; 0
     5f6:	50 e0       	ldi	r21, 0x00	; 0
     5f8:	60 e0       	ldi	r22, 0x00	; 0
     5fa:	70 e0       	ldi	r23, 0x00	; 0
     5fc:	80 e0       	ldi	r24, 0x00	; 0
     5fe:	90 e0       	ldi	r25, 0x00	; 0
     600:	0e 94 d0 09 	call	0x13a0	; 0x13a0 <__muldi3>
     604:	93 2e       	mov	r9, r19
     606:	a4 2e       	mov	r10, r20
     608:	b5 2e       	mov	r11, r21
     60a:	c6 2e       	mov	r12, r22
     60c:	d7 2e       	mov	r13, r23
     60e:	e8 2e       	mov	r14, r24
     610:	f9 2e       	mov	r15, r25
     612:	0a 8d       	ldd	r16, Y+26	; 0x1a
     614:	02 1b       	sub	r16, r18
     616:	81 e0       	ldi	r24, 0x01	; 1
     618:	fa 8d       	ldd	r31, Y+26	; 0x1a
     61a:	f0 17       	cp	r31, r16
     61c:	08 f0       	brcs	.+2      	; 0x620 <Clock_Ini+0x1f4>
     61e:	80 e0       	ldi	r24, 0x00	; 0
     620:	1b 8d       	ldd	r17, Y+27	; 0x1b
     622:	19 19       	sub	r17, r9
     624:	a1 e0       	ldi	r26, 0x01	; 1
     626:	9b 8d       	ldd	r25, Y+27	; 0x1b
     628:	91 17       	cp	r25, r17
     62a:	08 f0       	brcs	.+2      	; 0x62e <Clock_Ini+0x202>
     62c:	a0 e0       	ldi	r26, 0x00	; 0
     62e:	e1 2f       	mov	r30, r17
     630:	e8 1b       	sub	r30, r24
     632:	8e 2f       	mov	r24, r30
     634:	91 e0       	ldi	r25, 0x01	; 1
     636:	1e 17       	cp	r17, r30
     638:	08 f0       	brcs	.+2      	; 0x63c <Clock_Ini+0x210>
     63a:	90 e0       	ldi	r25, 0x00	; 0
     63c:	a9 2b       	or	r26, r25
     63e:	18 2f       	mov	r17, r24
     640:	2c 8d       	ldd	r18, Y+28	; 0x1c
     642:	2a 19       	sub	r18, r10
     644:	b1 e0       	ldi	r27, 0x01	; 1
     646:	fc 8d       	ldd	r31, Y+28	; 0x1c
     648:	f2 17       	cp	r31, r18
     64a:	08 f0       	brcs	.+2      	; 0x64e <Clock_Ini+0x222>
     64c:	b0 e0       	ldi	r27, 0x00	; 0
     64e:	82 2f       	mov	r24, r18
     650:	8a 1b       	sub	r24, r26
     652:	91 e0       	ldi	r25, 0x01	; 1
     654:	28 17       	cp	r18, r24
     656:	08 f0       	brcs	.+2      	; 0x65a <Clock_Ini+0x22e>
     658:	90 e0       	ldi	r25, 0x00	; 0
     65a:	b9 2b       	or	r27, r25
     65c:	28 2f       	mov	r18, r24
     65e:	3d 8d       	ldd	r19, Y+29	; 0x1d
     660:	3b 19       	sub	r19, r11
     662:	a1 e0       	ldi	r26, 0x01	; 1
     664:	8d 8d       	ldd	r24, Y+29	; 0x1d
     666:	83 17       	cp	r24, r19
     668:	08 f0       	brcs	.+2      	; 0x66c <Clock_Ini+0x240>
     66a:	a0 e0       	ldi	r26, 0x00	; 0
     66c:	83 2f       	mov	r24, r19
     66e:	8b 1b       	sub	r24, r27
     670:	91 e0       	ldi	r25, 0x01	; 1
     672:	38 17       	cp	r19, r24
     674:	08 f0       	brcs	.+2      	; 0x678 <Clock_Ini+0x24c>
     676:	90 e0       	ldi	r25, 0x00	; 0
     678:	a9 2b       	or	r26, r25
     67a:	38 2f       	mov	r19, r24
     67c:	4e 8d       	ldd	r20, Y+30	; 0x1e
     67e:	4c 19       	sub	r20, r12
     680:	b1 e0       	ldi	r27, 0x01	; 1
     682:	9e 8d       	ldd	r25, Y+30	; 0x1e
     684:	94 17       	cp	r25, r20
     686:	08 f0       	brcs	.+2      	; 0x68a <Clock_Ini+0x25e>
     688:	b0 e0       	ldi	r27, 0x00	; 0
     68a:	84 2f       	mov	r24, r20
     68c:	8a 1b       	sub	r24, r26
     68e:	91 e0       	ldi	r25, 0x01	; 1
     690:	48 17       	cp	r20, r24
     692:	08 f0       	brcs	.+2      	; 0x696 <Clock_Ini+0x26a>
     694:	90 e0       	ldi	r25, 0x00	; 0
     696:	b9 2b       	or	r27, r25
     698:	48 2f       	mov	r20, r24
     69a:	5f 8d       	ldd	r21, Y+31	; 0x1f
     69c:	5d 19       	sub	r21, r13
     69e:	a1 e0       	ldi	r26, 0x01	; 1
     6a0:	ef 8d       	ldd	r30, Y+31	; 0x1f
     6a2:	e5 17       	cp	r30, r21
     6a4:	08 f0       	brcs	.+2      	; 0x6a8 <Clock_Ini+0x27c>
     6a6:	a0 e0       	ldi	r26, 0x00	; 0
     6a8:	85 2f       	mov	r24, r21
     6aa:	8b 1b       	sub	r24, r27
     6ac:	91 e0       	ldi	r25, 0x01	; 1
     6ae:	58 17       	cp	r21, r24
     6b0:	08 f0       	brcs	.+2      	; 0x6b4 <Clock_Ini+0x288>
     6b2:	90 e0       	ldi	r25, 0x00	; 0
     6b4:	a9 2b       	or	r26, r25
     6b6:	58 2f       	mov	r21, r24
     6b8:	68 a1       	ldd	r22, Y+32	; 0x20
     6ba:	6e 19       	sub	r22, r14
     6bc:	91 e0       	ldi	r25, 0x01	; 1
     6be:	f8 a1       	ldd	r31, Y+32	; 0x20
     6c0:	f6 17       	cp	r31, r22
     6c2:	08 f0       	brcs	.+2      	; 0x6c6 <Clock_Ini+0x29a>
     6c4:	90 e0       	ldi	r25, 0x00	; 0
     6c6:	86 2f       	mov	r24, r22
     6c8:	8a 1b       	sub	r24, r26
     6ca:	e1 e0       	ldi	r30, 0x01	; 1
     6cc:	68 17       	cp	r22, r24
     6ce:	08 f0       	brcs	.+2      	; 0x6d2 <Clock_Ini+0x2a6>
     6d0:	e0 e0       	ldi	r30, 0x00	; 0
     6d2:	9e 2b       	or	r25, r30
     6d4:	68 2f       	mov	r22, r24
     6d6:	79 a1       	ldd	r23, Y+33	; 0x21
     6d8:	7f 19       	sub	r23, r15
     6da:	87 2f       	mov	r24, r23
     6dc:	89 1b       	sub	r24, r25
     6de:	98 2f       	mov	r25, r24
     6e0:	09 8b       	std	Y+17, r16	; 0x11
     6e2:	1a 8b       	std	Y+18, r17	; 0x12
     6e4:	2b 8b       	std	Y+19, r18	; 0x13
     6e6:	3c 8b       	std	Y+20, r19	; 0x14
     6e8:	4d 8b       	std	Y+21, r20	; 0x15
     6ea:	5e 8b       	std	Y+22, r21	; 0x16
     6ec:	6f 8b       	std	Y+23, r22	; 0x17
     6ee:	88 8f       	std	Y+24, r24	; 0x18
     6f0:	aa 24       	eor	r10, r10
     6f2:	34 e8       	ldi	r19, 0x84	; 132
     6f4:	b3 2e       	mov	r11, r19
     6f6:	2c e0       	ldi	r18, 0x0C	; 12
     6f8:	c2 2e       	mov	r12, r18
     6fa:	84 e2       	ldi	r24, 0x24	; 36
     6fc:	d8 2e       	mov	r13, r24
     6fe:	ee 24       	eor	r14, r14
     700:	ff 24       	eor	r15, r15
     702:	00 e0       	ldi	r16, 0x00	; 0
     704:	10 e0       	ldi	r17, 0x00	; 0
     706:	29 89       	ldd	r18, Y+17	; 0x11
     708:	3a 89       	ldd	r19, Y+18	; 0x12
     70a:	4b 89       	ldd	r20, Y+19	; 0x13
     70c:	5c 89       	ldd	r21, Y+20	; 0x14
     70e:	6d 89       	ldd	r22, Y+21	; 0x15
     710:	7e 89       	ldd	r23, Y+22	; 0x16
     712:	8f 89       	ldd	r24, Y+23	; 0x17
     714:	0e 94 e0 0a 	call	0x15c0	; 0x15c0 <__udivdi3>
     718:	20 93 41 03 	sts	0x0341, r18
     71c:	30 e0       	ldi	r19, 0x00	; 0
     71e:	40 e0       	ldi	r20, 0x00	; 0
     720:	50 e0       	ldi	r21, 0x00	; 0
     722:	60 e0       	ldi	r22, 0x00	; 0
     724:	70 e0       	ldi	r23, 0x00	; 0
     726:	80 e0       	ldi	r24, 0x00	; 0
     728:	90 e0       	ldi	r25, 0x00	; 0
     72a:	0e 94 d0 09 	call	0x13a0	; 0x13a0 <__muldi3>
     72e:	93 2e       	mov	r9, r19
     730:	a4 2e       	mov	r10, r20
     732:	b5 2e       	mov	r11, r21
     734:	c6 2e       	mov	r12, r22
     736:	d7 2e       	mov	r13, r23
     738:	e8 2e       	mov	r14, r24
     73a:	f9 2e       	mov	r15, r25
     73c:	09 89       	ldd	r16, Y+17	; 0x11
     73e:	02 1b       	sub	r16, r18
     740:	81 e0       	ldi	r24, 0x01	; 1
     742:	99 89       	ldd	r25, Y+17	; 0x11
     744:	90 17       	cp	r25, r16
     746:	08 f0       	brcs	.+2      	; 0x74a <Clock_Ini+0x31e>
     748:	80 e0       	ldi	r24, 0x00	; 0
     74a:	1a 89       	ldd	r17, Y+18	; 0x12
     74c:	19 19       	sub	r17, r9
     74e:	a1 e0       	ldi	r26, 0x01	; 1
     750:	ea 89       	ldd	r30, Y+18	; 0x12
     752:	e1 17       	cp	r30, r17
     754:	08 f0       	brcs	.+2      	; 0x758 <Clock_Ini+0x32c>
     756:	a0 e0       	ldi	r26, 0x00	; 0
     758:	f1 2f       	mov	r31, r17
     75a:	f8 1b       	sub	r31, r24
     75c:	8f 2f       	mov	r24, r31
     75e:	91 e0       	ldi	r25, 0x01	; 1
     760:	1f 17       	cp	r17, r31
     762:	08 f0       	brcs	.+2      	; 0x766 <Clock_Ini+0x33a>
     764:	90 e0       	ldi	r25, 0x00	; 0
     766:	a9 2b       	or	r26, r25
     768:	18 2f       	mov	r17, r24
     76a:	2b 89       	ldd	r18, Y+19	; 0x13
     76c:	2a 19       	sub	r18, r10
     76e:	b1 e0       	ldi	r27, 0x01	; 1
     770:	8b 89       	ldd	r24, Y+19	; 0x13
     772:	82 17       	cp	r24, r18
     774:	08 f0       	brcs	.+2      	; 0x778 <Clock_Ini+0x34c>
     776:	b0 e0       	ldi	r27, 0x00	; 0
     778:	82 2f       	mov	r24, r18
     77a:	8a 1b       	sub	r24, r26
     77c:	91 e0       	ldi	r25, 0x01	; 1
     77e:	28 17       	cp	r18, r24
     780:	08 f0       	brcs	.+2      	; 0x784 <Clock_Ini+0x358>
     782:	90 e0       	ldi	r25, 0x00	; 0
     784:	b9 2b       	or	r27, r25
     786:	28 2f       	mov	r18, r24
     788:	3c 89       	ldd	r19, Y+20	; 0x14
     78a:	3b 19       	sub	r19, r11
     78c:	a1 e0       	ldi	r26, 0x01	; 1
     78e:	9c 89       	ldd	r25, Y+20	; 0x14
     790:	93 17       	cp	r25, r19
     792:	08 f0       	brcs	.+2      	; 0x796 <Clock_Ini+0x36a>
     794:	a0 e0       	ldi	r26, 0x00	; 0
     796:	83 2f       	mov	r24, r19
     798:	8b 1b       	sub	r24, r27
     79a:	91 e0       	ldi	r25, 0x01	; 1
     79c:	38 17       	cp	r19, r24
     79e:	08 f0       	brcs	.+2      	; 0x7a2 <Clock_Ini+0x376>
     7a0:	90 e0       	ldi	r25, 0x00	; 0
     7a2:	a9 2b       	or	r26, r25
     7a4:	38 2f       	mov	r19, r24
     7a6:	4d 89       	ldd	r20, Y+21	; 0x15
     7a8:	4c 19       	sub	r20, r12
     7aa:	b1 e0       	ldi	r27, 0x01	; 1
     7ac:	ed 89       	ldd	r30, Y+21	; 0x15
     7ae:	e4 17       	cp	r30, r20
     7b0:	08 f0       	brcs	.+2      	; 0x7b4 <Clock_Ini+0x388>
     7b2:	b0 e0       	ldi	r27, 0x00	; 0
     7b4:	84 2f       	mov	r24, r20
     7b6:	8a 1b       	sub	r24, r26
     7b8:	91 e0       	ldi	r25, 0x01	; 1
     7ba:	48 17       	cp	r20, r24
     7bc:	08 f0       	brcs	.+2      	; 0x7c0 <Clock_Ini+0x394>
     7be:	90 e0       	ldi	r25, 0x00	; 0
     7c0:	b9 2b       	or	r27, r25
     7c2:	48 2f       	mov	r20, r24
     7c4:	5e 89       	ldd	r21, Y+22	; 0x16
     7c6:	5d 19       	sub	r21, r13
     7c8:	a1 e0       	ldi	r26, 0x01	; 1
     7ca:	fe 89       	ldd	r31, Y+22	; 0x16
     7cc:	f5 17       	cp	r31, r21
     7ce:	08 f0       	brcs	.+2      	; 0x7d2 <Clock_Ini+0x3a6>
     7d0:	a0 e0       	ldi	r26, 0x00	; 0
     7d2:	85 2f       	mov	r24, r21
     7d4:	8b 1b       	sub	r24, r27
     7d6:	91 e0       	ldi	r25, 0x01	; 1
     7d8:	58 17       	cp	r21, r24
     7da:	08 f0       	brcs	.+2      	; 0x7de <Clock_Ini+0x3b2>
     7dc:	90 e0       	ldi	r25, 0x00	; 0
     7de:	a9 2b       	or	r26, r25
     7e0:	58 2f       	mov	r21, r24
     7e2:	6f 89       	ldd	r22, Y+23	; 0x17
     7e4:	6e 19       	sub	r22, r14
     7e6:	91 e0       	ldi	r25, 0x01	; 1
     7e8:	8f 89       	ldd	r24, Y+23	; 0x17
     7ea:	86 17       	cp	r24, r22
     7ec:	08 f0       	brcs	.+2      	; 0x7f0 <Clock_Ini+0x3c4>
     7ee:	90 e0       	ldi	r25, 0x00	; 0
     7f0:	86 2f       	mov	r24, r22
     7f2:	8a 1b       	sub	r24, r26
     7f4:	e1 e0       	ldi	r30, 0x01	; 1
     7f6:	68 17       	cp	r22, r24
     7f8:	08 f0       	brcs	.+2      	; 0x7fc <Clock_Ini+0x3d0>
     7fa:	e0 e0       	ldi	r30, 0x00	; 0
     7fc:	9e 2b       	or	r25, r30
     7fe:	78 8d       	ldd	r23, Y+24	; 0x18
     800:	7f 19       	sub	r23, r15
     802:	e7 2f       	mov	r30, r23
     804:	e9 1b       	sub	r30, r25
     806:	9e 2f       	mov	r25, r30
     808:	09 87       	std	Y+9, r16	; 0x09
     80a:	1a 87       	std	Y+10, r17	; 0x0a
     80c:	2b 87       	std	Y+11, r18	; 0x0b
     80e:	3c 87       	std	Y+12, r19	; 0x0c
     810:	4d 87       	std	Y+13, r20	; 0x0d
     812:	5e 87       	std	Y+14, r21	; 0x0e
     814:	8f 87       	std	Y+15, r24	; 0x0f
     816:	e8 8b       	std	Y+16, r30	; 0x10
     818:	aa 24       	eor	r10, r10
     81a:	0c e5       	ldi	r16, 0x5C	; 92
     81c:	b0 2e       	mov	r11, r16
     81e:	16 e2       	ldi	r17, 0x26	; 38
     820:	c1 2e       	mov	r12, r17
     822:	b5 e0       	ldi	r27, 0x05	; 5
     824:	db 2e       	mov	r13, r27
     826:	ee 24       	eor	r14, r14
     828:	ff 24       	eor	r15, r15
     82a:	00 e0       	ldi	r16, 0x00	; 0
     82c:	10 e0       	ldi	r17, 0x00	; 0
     82e:	29 85       	ldd	r18, Y+9	; 0x09
     830:	3a 85       	ldd	r19, Y+10	; 0x0a
     832:	4b 85       	ldd	r20, Y+11	; 0x0b
     834:	5c 85       	ldd	r21, Y+12	; 0x0c
     836:	6d 85       	ldd	r22, Y+13	; 0x0d
     838:	7e 85       	ldd	r23, Y+14	; 0x0e
     83a:	0e 94 e0 0a 	call	0x15c0	; 0x15c0 <__udivdi3>
     83e:	20 93 48 03 	sts	0x0348, r18
     842:	30 e0       	ldi	r19, 0x00	; 0
     844:	40 e0       	ldi	r20, 0x00	; 0
     846:	50 e0       	ldi	r21, 0x00	; 0
     848:	60 e0       	ldi	r22, 0x00	; 0
     84a:	70 e0       	ldi	r23, 0x00	; 0
     84c:	80 e0       	ldi	r24, 0x00	; 0
     84e:	90 e0       	ldi	r25, 0x00	; 0
     850:	0e 94 d0 09 	call	0x13a0	; 0x13a0 <__muldi3>
     854:	93 2e       	mov	r9, r19
     856:	a4 2e       	mov	r10, r20
     858:	b5 2e       	mov	r11, r21
     85a:	c6 2e       	mov	r12, r22
     85c:	d7 2e       	mov	r13, r23
     85e:	e8 2e       	mov	r14, r24
     860:	f9 2e       	mov	r15, r25
     862:	09 85       	ldd	r16, Y+9	; 0x09
     864:	02 1b       	sub	r16, r18
     866:	81 e0       	ldi	r24, 0x01	; 1
     868:	f9 85       	ldd	r31, Y+9	; 0x09
     86a:	f0 17       	cp	r31, r16
     86c:	08 f0       	brcs	.+2      	; 0x870 <Clock_Ini+0x444>
     86e:	80 e0       	ldi	r24, 0x00	; 0
     870:	1a 85       	ldd	r17, Y+10	; 0x0a
     872:	19 19       	sub	r17, r9
     874:	a1 e0       	ldi	r26, 0x01	; 1
     876:	9a 85       	ldd	r25, Y+10	; 0x0a
     878:	91 17       	cp	r25, r17
     87a:	08 f0       	brcs	.+2      	; 0x87e <Clock_Ini+0x452>
     87c:	a0 e0       	ldi	r26, 0x00	; 0
     87e:	e1 2f       	mov	r30, r17
     880:	e8 1b       	sub	r30, r24
     882:	8e 2f       	mov	r24, r30
     884:	91 e0       	ldi	r25, 0x01	; 1
     886:	1e 17       	cp	r17, r30
     888:	08 f0       	brcs	.+2      	; 0x88c <Clock_Ini+0x460>
     88a:	90 e0       	ldi	r25, 0x00	; 0
     88c:	a9 2b       	or	r26, r25
     88e:	18 2f       	mov	r17, r24
     890:	2b 85       	ldd	r18, Y+11	; 0x0b
     892:	2a 19       	sub	r18, r10
     894:	b1 e0       	ldi	r27, 0x01	; 1
     896:	fb 85       	ldd	r31, Y+11	; 0x0b
     898:	f2 17       	cp	r31, r18
     89a:	08 f0       	brcs	.+2      	; 0x89e <Clock_Ini+0x472>
     89c:	b0 e0       	ldi	r27, 0x00	; 0
     89e:	82 2f       	mov	r24, r18
     8a0:	8a 1b       	sub	r24, r26
     8a2:	91 e0       	ldi	r25, 0x01	; 1
     8a4:	28 17       	cp	r18, r24
     8a6:	08 f0       	brcs	.+2      	; 0x8aa <Clock_Ini+0x47e>
     8a8:	90 e0       	ldi	r25, 0x00	; 0
     8aa:	b9 2b       	or	r27, r25
     8ac:	28 2f       	mov	r18, r24
     8ae:	3c 85       	ldd	r19, Y+12	; 0x0c
     8b0:	3b 19       	sub	r19, r11
     8b2:	a1 e0       	ldi	r26, 0x01	; 1
     8b4:	8c 85       	ldd	r24, Y+12	; 0x0c
     8b6:	83 17       	cp	r24, r19
     8b8:	08 f0       	brcs	.+2      	; 0x8bc <Clock_Ini+0x490>
     8ba:	a0 e0       	ldi	r26, 0x00	; 0
     8bc:	83 2f       	mov	r24, r19
     8be:	8b 1b       	sub	r24, r27
     8c0:	91 e0       	ldi	r25, 0x01	; 1
     8c2:	38 17       	cp	r19, r24
     8c4:	08 f0       	brcs	.+2      	; 0x8c8 <Clock_Ini+0x49c>
     8c6:	90 e0       	ldi	r25, 0x00	; 0
     8c8:	a9 2b       	or	r26, r25
     8ca:	38 2f       	mov	r19, r24
     8cc:	4d 85       	ldd	r20, Y+13	; 0x0d
     8ce:	4c 19       	sub	r20, r12
     8d0:	b1 e0       	ldi	r27, 0x01	; 1
     8d2:	9d 85       	ldd	r25, Y+13	; 0x0d
     8d4:	94 17       	cp	r25, r20
     8d6:	08 f0       	brcs	.+2      	; 0x8da <Clock_Ini+0x4ae>
     8d8:	b0 e0       	ldi	r27, 0x00	; 0
     8da:	84 2f       	mov	r24, r20
     8dc:	8a 1b       	sub	r24, r26
     8de:	91 e0       	ldi	r25, 0x01	; 1
     8e0:	48 17       	cp	r20, r24
     8e2:	08 f0       	brcs	.+2      	; 0x8e6 <Clock_Ini+0x4ba>
     8e4:	90 e0       	ldi	r25, 0x00	; 0
     8e6:	b9 2b       	or	r27, r25
     8e8:	48 2f       	mov	r20, r24
     8ea:	5e 85       	ldd	r21, Y+14	; 0x0e
     8ec:	5d 19       	sub	r21, r13
     8ee:	a1 e0       	ldi	r26, 0x01	; 1
     8f0:	ee 85       	ldd	r30, Y+14	; 0x0e
     8f2:	e5 17       	cp	r30, r21
     8f4:	08 f0       	brcs	.+2      	; 0x8f8 <Clock_Ini+0x4cc>
     8f6:	a0 e0       	ldi	r26, 0x00	; 0
     8f8:	85 2f       	mov	r24, r21
     8fa:	8b 1b       	sub	r24, r27
     8fc:	91 e0       	ldi	r25, 0x01	; 1
     8fe:	58 17       	cp	r21, r24
     900:	08 f0       	brcs	.+2      	; 0x904 <Clock_Ini+0x4d8>
     902:	90 e0       	ldi	r25, 0x00	; 0
     904:	a9 2b       	or	r26, r25
     906:	58 2f       	mov	r21, r24
     908:	6f 85       	ldd	r22, Y+15	; 0x0f
     90a:	6e 19       	sub	r22, r14
     90c:	91 e0       	ldi	r25, 0x01	; 1
     90e:	ff 85       	ldd	r31, Y+15	; 0x0f
     910:	f6 17       	cp	r31, r22
     912:	08 f0       	brcs	.+2      	; 0x916 <Clock_Ini+0x4ea>
     914:	90 e0       	ldi	r25, 0x00	; 0
     916:	86 2f       	mov	r24, r22
     918:	8a 1b       	sub	r24, r26
     91a:	e1 e0       	ldi	r30, 0x01	; 1
     91c:	68 17       	cp	r22, r24
     91e:	08 f0       	brcs	.+2      	; 0x922 <Clock_Ini+0x4f6>
     920:	e0 e0       	ldi	r30, 0x00	; 0
     922:	9e 2b       	or	r25, r30
     924:	68 2f       	mov	r22, r24
     926:	78 89       	ldd	r23, Y+16	; 0x10
     928:	7f 19       	sub	r23, r15
     92a:	87 2f       	mov	r24, r23
     92c:	89 1b       	sub	r24, r25
     92e:	98 2f       	mov	r25, r24
     930:	20 2e       	mov	r2, r16
     932:	31 2e       	mov	r3, r17
     934:	42 2e       	mov	r4, r18
     936:	53 2e       	mov	r5, r19
     938:	64 2e       	mov	r6, r20
     93a:	75 2e       	mov	r7, r21
     93c:	86 2e       	mov	r8, r22
     93e:	98 2e       	mov	r9, r24
     940:	a0 e8       	ldi	r26, 0x80	; 128
     942:	aa 2e       	mov	r10, r26
     944:	fe ee       	ldi	r31, 0xEE	; 238
     946:	bf 2e       	mov	r11, r31
     948:	e6 e3       	ldi	r30, 0x36	; 54
     94a:	ce 2e       	mov	r12, r30
     94c:	dd 24       	eor	r13, r13
     94e:	ee 24       	eor	r14, r14
     950:	ff 24       	eor	r15, r15
     952:	00 e0       	ldi	r16, 0x00	; 0
     954:	10 e0       	ldi	r17, 0x00	; 0
     956:	22 2d       	mov	r18, r2
     958:	33 2d       	mov	r19, r3
     95a:	44 2d       	mov	r20, r4
     95c:	55 2d       	mov	r21, r5
     95e:	66 2d       	mov	r22, r6
     960:	77 2d       	mov	r23, r7
     962:	88 2d       	mov	r24, r8
     964:	0e 94 e0 0a 	call	0x15c0	; 0x15c0 <__udivdi3>
     968:	29 8f       	std	Y+25, r18	; 0x19
     96a:	20 93 43 03 	sts	0x0343, r18
     96e:	30 e0       	ldi	r19, 0x00	; 0
     970:	40 e0       	ldi	r20, 0x00	; 0
     972:	50 e0       	ldi	r21, 0x00	; 0
     974:	60 e0       	ldi	r22, 0x00	; 0
     976:	70 e0       	ldi	r23, 0x00	; 0
     978:	80 e0       	ldi	r24, 0x00	; 0
     97a:	90 e0       	ldi	r25, 0x00	; 0
     97c:	2a a3       	std	Y+34, r18	; 0x22
     97e:	3b a3       	std	Y+35, r19	; 0x23
     980:	4c a3       	std	Y+36, r20	; 0x24
     982:	5d a3       	std	Y+37, r21	; 0x25
     984:	6e a3       	std	Y+38, r22	; 0x26
     986:	7f a3       	std	Y+39, r23	; 0x27
     988:	88 a7       	std	Y+40, r24	; 0x28
     98a:	99 a7       	std	Y+41, r25	; 0x29
     98c:	70 e8       	ldi	r23, 0x80	; 128
     98e:	a7 2e       	mov	r10, r23
     990:	6e ee       	ldi	r22, 0xEE	; 238
     992:	b6 2e       	mov	r11, r22
     994:	56 e3       	ldi	r21, 0x36	; 54
     996:	c5 2e       	mov	r12, r21
     998:	dd 24       	eor	r13, r13
     99a:	ee 24       	eor	r14, r14
     99c:	ff 24       	eor	r15, r15
     99e:	00 e0       	ldi	r16, 0x00	; 0
     9a0:	10 e0       	ldi	r17, 0x00	; 0
     9a2:	30 e0       	ldi	r19, 0x00	; 0
     9a4:	40 e0       	ldi	r20, 0x00	; 0
     9a6:	50 e0       	ldi	r21, 0x00	; 0
     9a8:	60 e0       	ldi	r22, 0x00	; 0
     9aa:	70 e0       	ldi	r23, 0x00	; 0
     9ac:	80 e0       	ldi	r24, 0x00	; 0
     9ae:	90 e0       	ldi	r25, 0x00	; 0
     9b0:	0e 94 d0 09 	call	0x13a0	; 0x13a0 <__muldi3>
     9b4:	2a ab       	std	Y+50, r18	; 0x32
     9b6:	3b ab       	std	Y+51, r19	; 0x33
     9b8:	4c ab       	std	Y+52, r20	; 0x34
     9ba:	5d ab       	std	Y+53, r21	; 0x35
     9bc:	6e ab       	std	Y+54, r22	; 0x36
     9be:	7f ab       	std	Y+55, r23	; 0x37
     9c0:	88 af       	std	Y+56, r24	; 0x38
     9c2:	99 af       	std	Y+57, r25	; 0x39
     9c4:	02 2d       	mov	r16, r2
     9c6:	02 1b       	sub	r16, r18
     9c8:	81 e0       	ldi	r24, 0x01	; 1
     9ca:	20 16       	cp	r2, r16
     9cc:	08 f0       	brcs	.+2      	; 0x9d0 <Clock_Ini+0x5a4>
     9ce:	80 e0       	ldi	r24, 0x00	; 0
     9d0:	13 2d       	mov	r17, r3
     9d2:	9b a9       	ldd	r25, Y+51	; 0x33
     9d4:	19 1b       	sub	r17, r25
     9d6:	a1 e0       	ldi	r26, 0x01	; 1
     9d8:	31 16       	cp	r3, r17
     9da:	08 f0       	brcs	.+2      	; 0x9de <Clock_Ini+0x5b2>
     9dc:	a0 e0       	ldi	r26, 0x00	; 0
     9de:	e1 2f       	mov	r30, r17
     9e0:	e8 1b       	sub	r30, r24
     9e2:	8e 2f       	mov	r24, r30
     9e4:	91 e0       	ldi	r25, 0x01	; 1
     9e6:	1e 17       	cp	r17, r30
     9e8:	08 f0       	brcs	.+2      	; 0x9ec <Clock_Ini+0x5c0>
     9ea:	90 e0       	ldi	r25, 0x00	; 0
     9ec:	a9 2b       	or	r26, r25
     9ee:	18 2f       	mov	r17, r24
     9f0:	24 2d       	mov	r18, r4
     9f2:	fc a9       	ldd	r31, Y+52	; 0x34
     9f4:	2f 1b       	sub	r18, r31
     9f6:	b1 e0       	ldi	r27, 0x01	; 1
     9f8:	42 16       	cp	r4, r18
     9fa:	08 f0       	brcs	.+2      	; 0x9fe <Clock_Ini+0x5d2>
     9fc:	b0 e0       	ldi	r27, 0x00	; 0
     9fe:	82 2f       	mov	r24, r18
     a00:	8a 1b       	sub	r24, r26
     a02:	91 e0       	ldi	r25, 0x01	; 1
     a04:	28 17       	cp	r18, r24
     a06:	08 f0       	brcs	.+2      	; 0xa0a <Clock_Ini+0x5de>
     a08:	90 e0       	ldi	r25, 0x00	; 0
     a0a:	b9 2b       	or	r27, r25
     a0c:	28 2f       	mov	r18, r24
     a0e:	35 2d       	mov	r19, r5
     a10:	8d a9       	ldd	r24, Y+53	; 0x35
     a12:	38 1b       	sub	r19, r24
     a14:	a1 e0       	ldi	r26, 0x01	; 1
     a16:	53 16       	cp	r5, r19
     a18:	08 f0       	brcs	.+2      	; 0xa1c <Clock_Ini+0x5f0>
     a1a:	a0 e0       	ldi	r26, 0x00	; 0
     a1c:	83 2f       	mov	r24, r19
     a1e:	8b 1b       	sub	r24, r27
     a20:	91 e0       	ldi	r25, 0x01	; 1
     a22:	38 17       	cp	r19, r24
     a24:	08 f0       	brcs	.+2      	; 0xa28 <Clock_Ini+0x5fc>
     a26:	90 e0       	ldi	r25, 0x00	; 0
     a28:	a9 2b       	or	r26, r25
     a2a:	38 2f       	mov	r19, r24
     a2c:	46 2d       	mov	r20, r6
     a2e:	9e a9       	ldd	r25, Y+54	; 0x36
     a30:	49 1b       	sub	r20, r25
     a32:	b1 e0       	ldi	r27, 0x01	; 1
     a34:	64 16       	cp	r6, r20
     a36:	08 f0       	brcs	.+2      	; 0xa3a <Clock_Ini+0x60e>
     a38:	b0 e0       	ldi	r27, 0x00	; 0
     a3a:	84 2f       	mov	r24, r20
     a3c:	8a 1b       	sub	r24, r26
     a3e:	91 e0       	ldi	r25, 0x01	; 1
     a40:	48 17       	cp	r20, r24
     a42:	08 f0       	brcs	.+2      	; 0xa46 <Clock_Ini+0x61a>
     a44:	90 e0       	ldi	r25, 0x00	; 0
     a46:	b9 2b       	or	r27, r25
     a48:	48 2f       	mov	r20, r24
     a4a:	57 2d       	mov	r21, r7
     a4c:	ef a9       	ldd	r30, Y+55	; 0x37
     a4e:	5e 1b       	sub	r21, r30
     a50:	a1 e0       	ldi	r26, 0x01	; 1
     a52:	75 16       	cp	r7, r21
     a54:	08 f0       	brcs	.+2      	; 0xa58 <Clock_Ini+0x62c>
     a56:	a0 e0       	ldi	r26, 0x00	; 0
     a58:	85 2f       	mov	r24, r21
     a5a:	8b 1b       	sub	r24, r27
     a5c:	91 e0       	ldi	r25, 0x01	; 1
     a5e:	58 17       	cp	r21, r24
     a60:	08 f0       	brcs	.+2      	; 0xa64 <Clock_Ini+0x638>
     a62:	90 e0       	ldi	r25, 0x00	; 0
     a64:	a9 2b       	or	r26, r25
     a66:	58 2f       	mov	r21, r24
     a68:	68 2d       	mov	r22, r8
     a6a:	f8 ad       	ldd	r31, Y+56	; 0x38
     a6c:	6f 1b       	sub	r22, r31
     a6e:	91 e0       	ldi	r25, 0x01	; 1
     a70:	86 16       	cp	r8, r22
     a72:	08 f0       	brcs	.+2      	; 0xa76 <Clock_Ini+0x64a>
     a74:	90 e0       	ldi	r25, 0x00	; 0
     a76:	86 2f       	mov	r24, r22
     a78:	8a 1b       	sub	r24, r26
     a7a:	e1 e0       	ldi	r30, 0x01	; 1
     a7c:	68 17       	cp	r22, r24
     a7e:	08 f0       	brcs	.+2      	; 0xa82 <Clock_Ini+0x656>
     a80:	e0 e0       	ldi	r30, 0x00	; 0
     a82:	9e 2b       	or	r25, r30
     a84:	68 2f       	mov	r22, r24
     a86:	79 2d       	mov	r23, r9
     a88:	89 ad       	ldd	r24, Y+57	; 0x39
     a8a:	78 1b       	sub	r23, r24
     a8c:	87 2f       	mov	r24, r23
     a8e:	89 1b       	sub	r24, r25
     a90:	09 83       	std	Y+1, r16	; 0x01
     a92:	1a 83       	std	Y+2, r17	; 0x02
     a94:	2b 83       	std	Y+3, r18	; 0x03
     a96:	3c 83       	std	Y+4, r19	; 0x04
     a98:	4d 83       	std	Y+5, r20	; 0x05
     a9a:	5e 83       	std	Y+6, r21	; 0x06
     a9c:	6f 83       	std	Y+7, r22	; 0x07
     a9e:	88 87       	std	Y+8, r24	; 0x08
     aa0:	99 8d       	ldd	r25, Y+25	; 0x19
     aa2:	90 93 44 03 	sts	0x0344, r25
     aa6:	40 e6       	ldi	r20, 0x60	; 96
     aa8:	a4 2e       	mov	r10, r20
     aaa:	3a ee       	ldi	r19, 0xEA	; 234
     aac:	b3 2e       	mov	r11, r19
     aae:	cc 24       	eor	r12, r12
     ab0:	dd 24       	eor	r13, r13
     ab2:	ee 24       	eor	r14, r14
     ab4:	ff 24       	eor	r15, r15
     ab6:	00 e0       	ldi	r16, 0x00	; 0
     ab8:	10 e0       	ldi	r17, 0x00	; 0
     aba:	2a a1       	ldd	r18, Y+34	; 0x22
     abc:	3b a1       	ldd	r19, Y+35	; 0x23
     abe:	4c a1       	ldd	r20, Y+36	; 0x24
     ac0:	5d a1       	ldd	r21, Y+37	; 0x25
     ac2:	6e a1       	ldd	r22, Y+38	; 0x26
     ac4:	7f a1       	ldd	r23, Y+39	; 0x27
     ac6:	88 a5       	ldd	r24, Y+40	; 0x28
     ac8:	99 a5       	ldd	r25, Y+41	; 0x29
     aca:	0e 94 d0 09 	call	0x13a0	; 0x13a0 <__muldi3>
     ace:	b3 2e       	mov	r11, r19
     ad0:	c4 2e       	mov	r12, r20
     ad2:	d5 2e       	mov	r13, r21
     ad4:	e6 2e       	mov	r14, r22
     ad6:	f7 2e       	mov	r15, r23
     ad8:	08 2f       	mov	r16, r24
     ada:	19 2f       	mov	r17, r25
     adc:	29 80       	ldd	r2, Y+1	; 0x01
     ade:	22 1a       	sub	r2, r18
     ae0:	81 e0       	ldi	r24, 0x01	; 1
     ae2:	e9 81       	ldd	r30, Y+1	; 0x01
     ae4:	e2 15       	cp	r30, r2
     ae6:	08 f0       	brcs	.+2      	; 0xaea <Clock_Ini+0x6be>
     ae8:	80 e0       	ldi	r24, 0x00	; 0
     aea:	3a 80       	ldd	r3, Y+2	; 0x02
     aec:	3b 18       	sub	r3, r11
     aee:	21 e0       	ldi	r18, 0x01	; 1
     af0:	fa 81       	ldd	r31, Y+2	; 0x02
     af2:	f3 15       	cp	r31, r3
     af4:	08 f0       	brcs	.+2      	; 0xaf8 <Clock_Ini+0x6cc>
     af6:	20 e0       	ldi	r18, 0x00	; 0
     af8:	33 2d       	mov	r19, r3
     afa:	38 1b       	sub	r19, r24
     afc:	83 2f       	mov	r24, r19
     afe:	91 e0       	ldi	r25, 0x01	; 1
     b00:	33 16       	cp	r3, r19
     b02:	08 f0       	brcs	.+2      	; 0xb06 <Clock_Ini+0x6da>
     b04:	90 e0       	ldi	r25, 0x00	; 0
     b06:	29 2b       	or	r18, r25
     b08:	38 2e       	mov	r3, r24
     b0a:	4b 80       	ldd	r4, Y+3	; 0x03
     b0c:	4c 18       	sub	r4, r12
     b0e:	31 e0       	ldi	r19, 0x01	; 1
     b10:	4b 81       	ldd	r20, Y+3	; 0x03
     b12:	44 15       	cp	r20, r4
     b14:	08 f0       	brcs	.+2      	; 0xb18 <Clock_Ini+0x6ec>
     b16:	30 e0       	ldi	r19, 0x00	; 0
     b18:	84 2d       	mov	r24, r4
     b1a:	82 1b       	sub	r24, r18
     b1c:	91 e0       	ldi	r25, 0x01	; 1
     b1e:	48 16       	cp	r4, r24
     b20:	08 f0       	brcs	.+2      	; 0xb24 <Clock_Ini+0x6f8>
     b22:	90 e0       	ldi	r25, 0x00	; 0
     b24:	39 2b       	or	r19, r25
     b26:	48 2e       	mov	r4, r24
     b28:	5c 80       	ldd	r5, Y+4	; 0x04
     b2a:	5d 18       	sub	r5, r13
     b2c:	21 e0       	ldi	r18, 0x01	; 1
     b2e:	5c 81       	ldd	r21, Y+4	; 0x04
     b30:	55 15       	cp	r21, r5
     b32:	08 f0       	brcs	.+2      	; 0xb36 <Clock_Ini+0x70a>
     b34:	20 e0       	ldi	r18, 0x00	; 0
     b36:	85 2d       	mov	r24, r5
     b38:	83 1b       	sub	r24, r19
     b3a:	91 e0       	ldi	r25, 0x01	; 1
     b3c:	58 16       	cp	r5, r24
     b3e:	08 f0       	brcs	.+2      	; 0xb42 <Clock_Ini+0x716>
     b40:	90 e0       	ldi	r25, 0x00	; 0
     b42:	29 2b       	or	r18, r25
     b44:	58 2e       	mov	r5, r24
     b46:	6d 80       	ldd	r6, Y+5	; 0x05
     b48:	6e 18       	sub	r6, r14
     b4a:	31 e0       	ldi	r19, 0x01	; 1
     b4c:	6d 81       	ldd	r22, Y+5	; 0x05
     b4e:	66 15       	cp	r22, r6
     b50:	08 f0       	brcs	.+2      	; 0xb54 <Clock_Ini+0x728>
     b52:	30 e0       	ldi	r19, 0x00	; 0
     b54:	86 2d       	mov	r24, r6
     b56:	82 1b       	sub	r24, r18
     b58:	91 e0       	ldi	r25, 0x01	; 1
     b5a:	68 16       	cp	r6, r24
     b5c:	08 f0       	brcs	.+2      	; 0xb60 <Clock_Ini+0x734>
     b5e:	90 e0       	ldi	r25, 0x00	; 0
     b60:	39 2b       	or	r19, r25
     b62:	68 2e       	mov	r6, r24
     b64:	7e 80       	ldd	r7, Y+6	; 0x06
     b66:	7f 18       	sub	r7, r15
     b68:	21 e0       	ldi	r18, 0x01	; 1
     b6a:	7e 81       	ldd	r23, Y+6	; 0x06
     b6c:	77 15       	cp	r23, r7
     b6e:	08 f0       	brcs	.+2      	; 0xb72 <Clock_Ini+0x746>
     b70:	20 e0       	ldi	r18, 0x00	; 0
     b72:	87 2d       	mov	r24, r7
     b74:	83 1b       	sub	r24, r19
     b76:	91 e0       	ldi	r25, 0x01	; 1
     b78:	78 16       	cp	r7, r24
     b7a:	08 f0       	brcs	.+2      	; 0xb7e <Clock_Ini+0x752>
     b7c:	90 e0       	ldi	r25, 0x00	; 0
     b7e:	29 2b       	or	r18, r25
     b80:	78 2e       	mov	r7, r24
     b82:	8f 80       	ldd	r8, Y+7	; 0x07
     b84:	80 1a       	sub	r8, r16
     b86:	91 e0       	ldi	r25, 0x01	; 1
     b88:	8f 81       	ldd	r24, Y+7	; 0x07
     b8a:	88 15       	cp	r24, r8
     b8c:	08 f0       	brcs	.+2      	; 0xb90 <Clock_Ini+0x764>
     b8e:	90 e0       	ldi	r25, 0x00	; 0
     b90:	88 2d       	mov	r24, r8
     b92:	82 1b       	sub	r24, r18
     b94:	21 e0       	ldi	r18, 0x01	; 1
     b96:	88 16       	cp	r8, r24
     b98:	08 f0       	brcs	.+2      	; 0xb9c <Clock_Ini+0x770>
     b9a:	20 e0       	ldi	r18, 0x00	; 0
     b9c:	92 2b       	or	r25, r18
     b9e:	88 2e       	mov	r8, r24
     ba0:	98 84       	ldd	r9, Y+8	; 0x08
     ba2:	91 1a       	sub	r9, r17
     ba4:	e9 2d       	mov	r30, r9
     ba6:	e9 1b       	sub	r30, r25
     ba8:	9e 2f       	mov	r25, r30
     baa:	28 ee       	ldi	r18, 0xE8	; 232
     bac:	a2 2e       	mov	r10, r18
     bae:	83 e0       	ldi	r24, 0x03	; 3
     bb0:	b8 2e       	mov	r11, r24
     bb2:	cc 24       	eor	r12, r12
     bb4:	dd 24       	eor	r13, r13
     bb6:	ee 24       	eor	r14, r14
     bb8:	ff 24       	eor	r15, r15
     bba:	00 e0       	ldi	r16, 0x00	; 0
     bbc:	10 e0       	ldi	r17, 0x00	; 0
     bbe:	22 2d       	mov	r18, r2
     bc0:	33 2d       	mov	r19, r3
     bc2:	44 2d       	mov	r20, r4
     bc4:	55 2d       	mov	r21, r5
     bc6:	66 2d       	mov	r22, r6
     bc8:	77 2d       	mov	r23, r7
     bca:	88 2d       	mov	r24, r8
     bcc:	0e 94 e0 0a 	call	0x15c0	; 0x15c0 <__udivdi3>
     bd0:	20 93 47 03 	sts	0x0347, r18
     bd4:	e9 96       	adiw	r28, 0x39	; 57
     bd6:	0f b6       	in	r0, 0x3f	; 63
     bd8:	f8 94       	cli
     bda:	de bf       	out	0x3e, r29	; 62
     bdc:	0f be       	out	0x3f, r0	; 63
     bde:	cd bf       	out	0x3d, r28	; 61
     be0:	df 91       	pop	r29
     be2:	cf 91       	pop	r28
     be4:	1f 91       	pop	r17
     be6:	0f 91       	pop	r16
     be8:	ff 90       	pop	r15
     bea:	ef 90       	pop	r14
     bec:	df 90       	pop	r13
     bee:	cf 90       	pop	r12
     bf0:	bf 90       	pop	r11
     bf2:	af 90       	pop	r10
     bf4:	9f 90       	pop	r9
     bf6:	8f 90       	pop	r8
     bf8:	7f 90       	pop	r7
     bfa:	6f 90       	pop	r6
     bfc:	5f 90       	pop	r5
     bfe:	4f 90       	pop	r4
     c00:	3f 90       	pop	r3
     c02:	2f 90       	pop	r2
     c04:	08 95       	ret

00000c06 <Clear_string>:
     c06:	fc 01       	movw	r30, r24
     c08:	01 c0       	rjmp	.+2      	; 0xc0c <Clear_string+0x6>
     c0a:	11 92       	st	Z+, r1
     c0c:	80 81       	ld	r24, Z
     c0e:	88 23       	and	r24, r24
     c10:	e1 f7       	brne	.-8      	; 0xc0a <Clear_string+0x4>
     c12:	08 95       	ret

00000c14 <Clock_Display>:
     c14:	4f 92       	push	r4
     c16:	5f 92       	push	r5
     c18:	6f 92       	push	r6
     c1a:	7f 92       	push	r7
     c1c:	8f 92       	push	r8
     c1e:	9f 92       	push	r9
     c20:	af 92       	push	r10
     c22:	bf 92       	push	r11
     c24:	cf 92       	push	r12
     c26:	df 92       	push	r13
     c28:	ef 92       	push	r14
     c2a:	0f 93       	push	r16
     c2c:	1f 93       	push	r17
     c2e:	cf 93       	push	r28
     c30:	df 93       	push	r29
     c32:	cd b7       	in	r28, 0x3d	; 61
     c34:	de b7       	in	r29, 0x3e	; 62
     c36:	25 97       	sbiw	r28, 0x05	; 5
     c38:	0f b6       	in	r0, 0x3f	; 63
     c3a:	f8 94       	cli
     c3c:	de bf       	out	0x3e, r29	; 62
     c3e:	0f be       	out	0x3f, r0	; 63
     c40:	cd bf       	out	0x3d, r28	; 61
     c42:	80 e0       	ldi	r24, 0x00	; 0
     c44:	0e 94 93 08 	call	0x1126	; 0x1126 <UART_clrscr>
     c48:	00 91 43 03 	lds	r16, 0x0343
     c4c:	6a e0       	ldi	r22, 0x0A	; 10
     c4e:	e6 2e       	mov	r14, r22
     c50:	10 e0       	ldi	r17, 0x00	; 0
     c52:	20 e0       	ldi	r18, 0x00	; 0
     c54:	30 e0       	ldi	r19, 0x00	; 0
     c56:	40 e0       	ldi	r20, 0x00	; 0
     c58:	50 e0       	ldi	r21, 0x00	; 0
     c5a:	60 e0       	ldi	r22, 0x00	; 0
     c5c:	70 e0       	ldi	r23, 0x00	; 0
     c5e:	2e 01       	movw	r4, r28
     c60:	08 94       	sec
     c62:	41 1c       	adc	r4, r1
     c64:	51 1c       	adc	r5, r1
     c66:	c2 01       	movw	r24, r4
     c68:	0e 94 28 09 	call	0x1250	; 0x1250 <itoa>
     c6c:	b2 01       	movw	r22, r4
     c6e:	80 e0       	ldi	r24, 0x00	; 0
     c70:	0e 94 bd 07 	call	0xf7a	; 0xf7a <UART_puts>
     c74:	6a e3       	ldi	r22, 0x3A	; 58
     c76:	80 e0       	ldi	r24, 0x00	; 0
     c78:	0e 94 90 07 	call	0xf20	; 0xf20 <UART_putchar>
     c7c:	00 91 44 03 	lds	r16, 0x0344
     c80:	10 e0       	ldi	r17, 0x00	; 0
     c82:	20 e0       	ldi	r18, 0x00	; 0
     c84:	30 e0       	ldi	r19, 0x00	; 0
     c86:	40 e0       	ldi	r20, 0x00	; 0
     c88:	50 e0       	ldi	r21, 0x00	; 0
     c8a:	60 e0       	ldi	r22, 0x00	; 0
     c8c:	70 e0       	ldi	r23, 0x00	; 0
     c8e:	c2 01       	movw	r24, r4
     c90:	0e 94 28 09 	call	0x1250	; 0x1250 <itoa>
     c94:	b2 01       	movw	r22, r4
     c96:	80 e0       	ldi	r24, 0x00	; 0
     c98:	0e 94 bd 07 	call	0xf7a	; 0xf7a <UART_puts>
     c9c:	6a e3       	ldi	r22, 0x3A	; 58
     c9e:	80 e0       	ldi	r24, 0x00	; 0
     ca0:	0e 94 90 07 	call	0xf20	; 0xf20 <UART_putchar>
     ca4:	00 91 47 03 	lds	r16, 0x0347
     ca8:	10 e0       	ldi	r17, 0x00	; 0
     caa:	20 e0       	ldi	r18, 0x00	; 0
     cac:	30 e0       	ldi	r19, 0x00	; 0
     cae:	40 e0       	ldi	r20, 0x00	; 0
     cb0:	50 e0       	ldi	r21, 0x00	; 0
     cb2:	60 e0       	ldi	r22, 0x00	; 0
     cb4:	70 e0       	ldi	r23, 0x00	; 0
     cb6:	c2 01       	movw	r24, r4
     cb8:	0e 94 28 09 	call	0x1250	; 0x1250 <itoa>
     cbc:	b2 01       	movw	r22, r4
     cbe:	80 e0       	ldi	r24, 0x00	; 0
     cc0:	0e 94 bd 07 	call	0xf7a	; 0xf7a <UART_puts>
     cc4:	60 e2       	ldi	r22, 0x20	; 32
     cc6:	80 e0       	ldi	r24, 0x00	; 0
     cc8:	0e 94 90 07 	call	0xf20	; 0xf20 <UART_putchar>
     ccc:	80 91 41 03 	lds	r24, 0x0341
     cd0:	27 e0       	ldi	r18, 0x07	; 7
     cd2:	82 9f       	mul	r24, r18
     cd4:	c0 01       	movw	r24, r0
     cd6:	11 24       	eor	r1, r1
     cd8:	01 96       	adiw	r24, 0x01	; 1
     cda:	9c 01       	movw	r18, r24
     cdc:	33 0f       	add	r19, r19
     cde:	22 0b       	sbc	r18, r18
     ce0:	32 2f       	mov	r19, r18
     ce2:	3c 01       	movw	r6, r24
     ce4:	82 2e       	mov	r8, r18
     ce6:	08 2f       	mov	r16, r24
     ce8:	17 2d       	mov	r17, r7
     cea:	38 2d       	mov	r19, r8
     cec:	48 2d       	mov	r20, r8
     cee:	58 2d       	mov	r21, r8
     cf0:	68 2d       	mov	r22, r8
     cf2:	78 2d       	mov	r23, r8
     cf4:	c2 01       	movw	r24, r4
     cf6:	0e 94 28 09 	call	0x1250	; 0x1250 <itoa>
     cfa:	b2 01       	movw	r22, r4
     cfc:	80 e0       	ldi	r24, 0x00	; 0
     cfe:	0e 94 bd 07 	call	0xf7a	; 0xf7a <UART_puts>
     d02:	6f e2       	ldi	r22, 0x2F	; 47
     d04:	80 e0       	ldi	r24, 0x00	; 0
     d06:	0e 94 90 07 	call	0xf20	; 0xf20 <UART_putchar>
     d0a:	80 91 42 03 	lds	r24, 0x0342
     d0e:	90 e0       	ldi	r25, 0x00	; 0
     d10:	01 96       	adiw	r24, 0x01	; 1
     d12:	9c 01       	movw	r18, r24
     d14:	33 0f       	add	r19, r19
     d16:	22 0b       	sbc	r18, r18
     d18:	32 2f       	mov	r19, r18
     d1a:	3c 01       	movw	r6, r24
     d1c:	82 2e       	mov	r8, r18
     d1e:	08 2f       	mov	r16, r24
     d20:	17 2d       	mov	r17, r7
     d22:	38 2d       	mov	r19, r8
     d24:	48 2d       	mov	r20, r8
     d26:	58 2d       	mov	r21, r8
     d28:	68 2d       	mov	r22, r8
     d2a:	78 2d       	mov	r23, r8
     d2c:	c2 01       	movw	r24, r4
     d2e:	0e 94 28 09 	call	0x1250	; 0x1250 <itoa>
     d32:	b2 01       	movw	r22, r4
     d34:	80 e0       	ldi	r24, 0x00	; 0
     d36:	0e 94 bd 07 	call	0xf7a	; 0xf7a <UART_puts>
     d3a:	6f e2       	ldi	r22, 0x2F	; 47
     d3c:	80 e0       	ldi	r24, 0x00	; 0
     d3e:	0e 94 90 07 	call	0xf20	; 0xf20 <UART_putchar>
     d42:	20 91 45 03 	lds	r18, 0x0345
     d46:	30 91 46 03 	lds	r19, 0x0346
     d4a:	2e 54       	subi	r18, 0x4E	; 78
     d4c:	38 4f       	sbci	r19, 0xF8	; 248
     d4e:	02 2f       	mov	r16, r18
     d50:	13 2f       	mov	r17, r19
     d52:	20 e0       	ldi	r18, 0x00	; 0
     d54:	30 e0       	ldi	r19, 0x00	; 0
     d56:	40 e0       	ldi	r20, 0x00	; 0
     d58:	50 e0       	ldi	r21, 0x00	; 0
     d5a:	60 e0       	ldi	r22, 0x00	; 0
     d5c:	70 e0       	ldi	r23, 0x00	; 0
     d5e:	c2 01       	movw	r24, r4
     d60:	0e 94 28 09 	call	0x1250	; 0x1250 <itoa>
     d64:	b2 01       	movw	r22, r4
     d66:	80 e0       	ldi	r24, 0x00	; 0
     d68:	0e 94 bd 07 	call	0xf7a	; 0xf7a <UART_puts>
     d6c:	25 96       	adiw	r28, 0x05	; 5
     d6e:	0f b6       	in	r0, 0x3f	; 63
     d70:	f8 94       	cli
     d72:	de bf       	out	0x3e, r29	; 62
     d74:	0f be       	out	0x3f, r0	; 63
     d76:	cd bf       	out	0x3d, r28	; 61
     d78:	df 91       	pop	r29
     d7a:	cf 91       	pop	r28
     d7c:	1f 91       	pop	r17
     d7e:	0f 91       	pop	r16
     d80:	ef 90       	pop	r14
     d82:	df 90       	pop	r13
     d84:	cf 90       	pop	r12
     d86:	bf 90       	pop	r11
     d88:	af 90       	pop	r10
     d8a:	9f 90       	pop	r9
     d8c:	8f 90       	pop	r8
     d8e:	7f 90       	pop	r7
     d90:	6f 90       	pop	r6
     d92:	5f 90       	pop	r5
     d94:	4f 90       	pop	r4
     d96:	08 95       	ret

00000d98 <main>:
     d98:	cf 92       	push	r12
     d9a:	df 92       	push	r13
     d9c:	ef 92       	push	r14
     d9e:	0f 93       	push	r16
     da0:	1f 93       	push	r17
     da2:	cf 93       	push	r28
     da4:	df 93       	push	r29
     da6:	cd b7       	in	r28, 0x3d	; 61
     da8:	de b7       	in	r29, 0x3e	; 62
     daa:	2a 97       	sbiw	r28, 0x0a	; 10
     dac:	0f b6       	in	r0, 0x3f	; 63
     dae:	f8 94       	cli
     db0:	de bf       	out	0x3e, r29	; 62
     db2:	0f be       	out	0x3f, r0	; 63
     db4:	cd bf       	out	0x3d, r28	; 61
     db6:	78 94       	sei
     db8:	02 e0       	ldi	r16, 0x02	; 2
     dba:	21 e0       	ldi	r18, 0x01	; 1
     dbc:	48 e0       	ldi	r20, 0x08	; 8
     dbe:	60 e0       	ldi	r22, 0x00	; 0
     dc0:	70 e0       	ldi	r23, 0x00	; 0
     dc2:	80 e0       	ldi	r24, 0x00	; 0
     dc4:	0e 94 a0 08 	call	0x1140	; 0x1140 <UART_init>
     dc8:	0e 94 eb 00 	call	0x1d6	; 0x1d6 <UART_AutoBaudRate>
     dcc:	80 e0       	ldi	r24, 0x00	; 0
     dce:	0e 94 93 08 	call	0x1126	; 0x1126 <UART_clrscr>
     dd2:	41 e0       	ldi	r20, 0x01	; 1
     dd4:	65 e0       	ldi	r22, 0x05	; 5
     dd6:	80 e0       	ldi	r24, 0x00	; 0
     dd8:	0e 94 42 08 	call	0x1084	; 0x1084 <UART_gotoxy>
     ddc:	60 e0       	ldi	r22, 0x00	; 0
     dde:	72 e0       	ldi	r23, 0x02	; 2
     de0:	80 e0       	ldi	r24, 0x00	; 0
     de2:	0e 94 bd 07 	call	0xf7a	; 0xf7a <UART_puts>
     de6:	20 91 c4 00 	lds	r18, 0x00C4
     dea:	30 91 c5 00 	lds	r19, 0x00C5
     dee:	7a e0       	ldi	r23, 0x0A	; 10
     df0:	e7 2e       	mov	r14, r23
     df2:	02 2f       	mov	r16, r18
     df4:	13 2f       	mov	r17, r19
     df6:	20 e0       	ldi	r18, 0x00	; 0
     df8:	30 e0       	ldi	r19, 0x00	; 0
     dfa:	40 e0       	ldi	r20, 0x00	; 0
     dfc:	50 e0       	ldi	r21, 0x00	; 0
     dfe:	60 e0       	ldi	r22, 0x00	; 0
     e00:	70 e0       	ldi	r23, 0x00	; 0
     e02:	6e 01       	movw	r12, r28
     e04:	08 94       	sec
     e06:	c1 1c       	adc	r12, r1
     e08:	d1 1c       	adc	r13, r1
     e0a:	c6 01       	movw	r24, r12
     e0c:	0e 94 28 09 	call	0x1250	; 0x1250 <itoa>
     e10:	b6 01       	movw	r22, r12
     e12:	80 e0       	ldi	r24, 0x00	; 0
     e14:	0e 94 bd 07 	call	0xf7a	; 0xf7a <UART_puts>
     e18:	69 e1       	ldi	r22, 0x19	; 25
     e1a:	72 e0       	ldi	r23, 0x02	; 2
     e1c:	80 e0       	ldi	r24, 0x00	; 0
     e1e:	0e 94 bd 07 	call	0xf7a	; 0xf7a <UART_puts>
     e22:	0e 94 95 00 	call	0x12a	; 0x12a <Timer0_Init>
     e26:	20 ef       	ldi	r18, 0xF0	; 240
     e28:	34 ec       	ldi	r19, 0xC4	; 196
     e2a:	4b e1       	ldi	r20, 0x1B	; 27
     e2c:	55 e9       	ldi	r21, 0x95	; 149
     e2e:	60 e7       	ldi	r22, 0x70	; 112
     e30:	71 e0       	ldi	r23, 0x01	; 1
     e32:	80 e0       	ldi	r24, 0x00	; 0
     e34:	90 e0       	ldi	r25, 0x00	; 0
     e36:	0e 94 16 02 	call	0x42c	; 0x42c <Clock_Ini>
     e3a:	0e 94 a6 00 	call	0x14c	; 0x14c <Timer0_SecFlag>
     e3e:	88 23       	and	r24, r24
     e40:	e1 f3       	breq	.-8      	; 0xe3a <main+0xa2>
     e42:	42 e0       	ldi	r20, 0x02	; 2
     e44:	65 e0       	ldi	r22, 0x05	; 5
     e46:	80 e0       	ldi	r24, 0x00	; 0
     e48:	0e 94 42 08 	call	0x1084	; 0x1084 <UART_gotoxy>
     e4c:	0e 94 da 01 	call	0x3b4	; 0x3b4 <Clock_update>
     e50:	0e 94 0a 06 	call	0xc14	; 0xc14 <Clock_Display>
     e54:	43 e0       	ldi	r20, 0x03	; 3
     e56:	65 e0       	ldi	r22, 0x05	; 5
     e58:	80 e0       	ldi	r24, 0x00	; 0
     e5a:	0e 94 42 08 	call	0x1084	; 0x1084 <UART_gotoxy>
     e5e:	ed cf       	rjmp	.-38     	; 0xe3a <main+0xa2>

00000e60 <__vector_26>:
     e60:	1f 92       	push	r1
     e62:	0f 92       	push	r0
     e64:	0f b6       	in	r0, 0x3f	; 63
     e66:	0f 92       	push	r0
     e68:	11 24       	eor	r1, r1
     e6a:	8f 93       	push	r24
     e6c:	9f 93       	push	r25
     e6e:	ef 93       	push	r30
     e70:	ff 93       	push	r31
     e72:	90 91 89 03 	lds	r25, 0x0389
     e76:	80 91 8a 03 	lds	r24, 0x038A
     e7a:	98 17       	cp	r25, r24
     e7c:	31 f4       	brne	.+12     	; 0xe8a <__vector_26+0x2a>
     e7e:	80 91 c1 00 	lds	r24, 0x00C1
     e82:	8f 7d       	andi	r24, 0xDF	; 223
     e84:	80 93 c1 00 	sts	0x00C1, r24
     e88:	10 c0       	rjmp	.+32     	; 0xeaa <__vector_26+0x4a>
     e8a:	80 91 89 03 	lds	r24, 0x0389
     e8e:	90 e0       	ldi	r25, 0x00	; 0
     e90:	01 96       	adiw	r24, 0x01	; 1
     e92:	8f 73       	andi	r24, 0x3F	; 63
     e94:	90 70       	andi	r25, 0x00	; 0
     e96:	80 93 89 03 	sts	0x0389, r24
     e9a:	e0 91 89 03 	lds	r30, 0x0389
     e9e:	f0 e0       	ldi	r31, 0x00	; 0
     ea0:	e7 5b       	subi	r30, 0xB7	; 183
     ea2:	fc 4f       	sbci	r31, 0xFC	; 252
     ea4:	80 81       	ld	r24, Z
     ea6:	80 93 c6 00 	sts	0x00C6, r24
     eaa:	ff 91       	pop	r31
     eac:	ef 91       	pop	r30
     eae:	9f 91       	pop	r25
     eb0:	8f 91       	pop	r24
     eb2:	0f 90       	pop	r0
     eb4:	0f be       	out	0x3f, r0	; 63
     eb6:	0f 90       	pop	r0
     eb8:	1f 90       	pop	r1
     eba:	18 95       	reti

00000ebc <__vector_25>:
     ebc:	1f 92       	push	r1
     ebe:	0f 92       	push	r0
     ec0:	0f b6       	in	r0, 0x3f	; 63
     ec2:	0f 92       	push	r0
     ec4:	11 24       	eor	r1, r1
     ec6:	2f 93       	push	r18
     ec8:	3f 93       	push	r19
     eca:	8f 93       	push	r24
     ecc:	9f 93       	push	r25
     ece:	ef 93       	push	r30
     ed0:	ff 93       	push	r31
     ed2:	20 91 cb 03 	lds	r18, 0x03CB
     ed6:	80 91 cc 03 	lds	r24, 0x03CC
     eda:	30 e0       	ldi	r19, 0x00	; 0
     edc:	90 e0       	ldi	r25, 0x00	; 0
     ede:	01 96       	adiw	r24, 0x01	; 1
     ee0:	8f 73       	andi	r24, 0x3F	; 63
     ee2:	90 70       	andi	r25, 0x00	; 0
     ee4:	28 17       	cp	r18, r24
     ee6:	39 07       	cpc	r19, r25
     ee8:	81 f0       	breq	.+32     	; 0xf0a <__vector_25+0x4e>
     eea:	80 91 cc 03 	lds	r24, 0x03CC
     eee:	90 e0       	ldi	r25, 0x00	; 0
     ef0:	01 96       	adiw	r24, 0x01	; 1
     ef2:	8f 73       	andi	r24, 0x3F	; 63
     ef4:	90 70       	andi	r25, 0x00	; 0
     ef6:	80 93 cc 03 	sts	0x03CC, r24
     efa:	e0 91 cc 03 	lds	r30, 0x03CC
     efe:	80 91 c6 00 	lds	r24, 0x00C6
     f02:	f0 e0       	ldi	r31, 0x00	; 0
     f04:	e5 57       	subi	r30, 0x75	; 117
     f06:	fc 4f       	sbci	r31, 0xFC	; 252
     f08:	80 83       	st	Z, r24
     f0a:	ff 91       	pop	r31
     f0c:	ef 91       	pop	r30
     f0e:	9f 91       	pop	r25
     f10:	8f 91       	pop	r24
     f12:	3f 91       	pop	r19
     f14:	2f 91       	pop	r18
     f16:	0f 90       	pop	r0
     f18:	0f be       	out	0x3f, r0	; 63
     f1a:	0f 90       	pop	r0
     f1c:	1f 90       	pop	r1
     f1e:	18 95       	reti

00000f20 <UART_putchar>:
     f20:	48 2f       	mov	r20, r24
     f22:	20 91 89 03 	lds	r18, 0x0389
     f26:	80 91 8a 03 	lds	r24, 0x038A
     f2a:	30 e0       	ldi	r19, 0x00	; 0
     f2c:	90 e0       	ldi	r25, 0x00	; 0
     f2e:	01 96       	adiw	r24, 0x01	; 1
     f30:	8f 73       	andi	r24, 0x3F	; 63
     f32:	90 70       	andi	r25, 0x00	; 0
     f34:	28 17       	cp	r18, r24
     f36:	39 07       	cpc	r19, r25
     f38:	a1 f3       	breq	.-24     	; 0xf22 <UART_putchar+0x2>
     f3a:	43 30       	cpi	r20, 0x03	; 3
     f3c:	19 f4       	brne	.+6      	; 0xf44 <UART_putchar+0x24>
     f3e:	a1 e3       	ldi	r26, 0x31	; 49
     f40:	b1 e0       	ldi	r27, 0x01	; 1
     f42:	09 c0       	rjmp	.+18     	; 0xf56 <UART_putchar+0x36>
     f44:	a4 2f       	mov	r26, r20
     f46:	b0 e0       	ldi	r27, 0x00	; 0
     f48:	83 e0       	ldi	r24, 0x03	; 3
     f4a:	aa 0f       	add	r26, r26
     f4c:	bb 1f       	adc	r27, r27
     f4e:	8a 95       	dec	r24
     f50:	e1 f7       	brne	.-8      	; 0xf4a <UART_putchar+0x2a>
     f52:	af 53       	subi	r26, 0x3F	; 63
     f54:	bf 4f       	sbci	r27, 0xFF	; 255
     f56:	80 91 8a 03 	lds	r24, 0x038A
     f5a:	90 e0       	ldi	r25, 0x00	; 0
     f5c:	01 96       	adiw	r24, 0x01	; 1
     f5e:	8f 73       	andi	r24, 0x3F	; 63
     f60:	90 70       	andi	r25, 0x00	; 0
     f62:	80 93 8a 03 	sts	0x038A, r24
     f66:	e0 91 8a 03 	lds	r30, 0x038A
     f6a:	f0 e0       	ldi	r31, 0x00	; 0
     f6c:	e7 5b       	subi	r30, 0xB7	; 183
     f6e:	fc 4f       	sbci	r31, 0xFC	; 252
     f70:	60 83       	st	Z, r22
     f72:	8c 91       	ld	r24, X
     f74:	80 62       	ori	r24, 0x20	; 32
     f76:	8c 93       	st	X, r24
     f78:	08 95       	ret

00000f7a <UART_puts>:
     f7a:	1f 93       	push	r17
     f7c:	cf 93       	push	r28
     f7e:	df 93       	push	r29
     f80:	18 2f       	mov	r17, r24
     f82:	eb 01       	movw	r28, r22
     f84:	04 c0       	rjmp	.+8      	; 0xf8e <UART_puts+0x14>
     f86:	21 96       	adiw	r28, 0x01	; 1
     f88:	81 2f       	mov	r24, r17
     f8a:	0e 94 90 07 	call	0xf20	; 0xf20 <UART_putchar>
     f8e:	68 81       	ld	r22, Y
     f90:	66 23       	and	r22, r22
     f92:	c9 f7       	brne	.-14     	; 0xf86 <UART_puts+0xc>
     f94:	df 91       	pop	r29
     f96:	cf 91       	pop	r28
     f98:	1f 91       	pop	r17
     f9a:	08 95       	ret

00000f9c <UART_available>:
     f9c:	90 91 cb 03 	lds	r25, 0x03CB
     fa0:	80 91 cc 03 	lds	r24, 0x03CC
     fa4:	20 e0       	ldi	r18, 0x00	; 0
     fa6:	30 e0       	ldi	r19, 0x00	; 0
     fa8:	98 17       	cp	r25, r24
     faa:	11 f0       	breq	.+4      	; 0xfb0 <UART_available+0x14>
     fac:	21 e0       	ldi	r18, 0x01	; 1
     fae:	30 e0       	ldi	r19, 0x00	; 0
     fb0:	c9 01       	movw	r24, r18
     fb2:	08 95       	ret

00000fb4 <UART_getchar>:
     fb4:	1f 93       	push	r17
     fb6:	28 2f       	mov	r18, r24
     fb8:	90 91 cb 03 	lds	r25, 0x03CB
     fbc:	80 91 cc 03 	lds	r24, 0x03CC
     fc0:	98 17       	cp	r25, r24
     fc2:	d1 f3       	breq	.-12     	; 0xfb8 <UART_getchar+0x4>
     fc4:	80 91 cb 03 	lds	r24, 0x03CB
     fc8:	90 e0       	ldi	r25, 0x00	; 0
     fca:	01 96       	adiw	r24, 0x01	; 1
     fcc:	8f 73       	andi	r24, 0x3F	; 63
     fce:	90 70       	andi	r25, 0x00	; 0
     fd0:	80 93 cb 03 	sts	0x03CB, r24
     fd4:	e0 91 cb 03 	lds	r30, 0x03CB
     fd8:	f0 e0       	ldi	r31, 0x00	; 0
     fda:	e5 57       	subi	r30, 0x75	; 117
     fdc:	fc 4f       	sbci	r31, 0xFC	; 252
     fde:	10 81       	ld	r17, Z
     fe0:	10 93 40 03 	sts	0x0340, r17
     fe4:	61 2f       	mov	r22, r17
     fe6:	82 2f       	mov	r24, r18
     fe8:	0e 94 90 07 	call	0xf20	; 0xf20 <UART_putchar>
     fec:	81 2f       	mov	r24, r17
     fee:	90 e0       	ldi	r25, 0x00	; 0
     ff0:	1f 91       	pop	r17
     ff2:	08 95       	ret

00000ff4 <UART_gets>:
     ff4:	cf 92       	push	r12
     ff6:	df 92       	push	r13
     ff8:	ef 92       	push	r14
     ffa:	ff 92       	push	r15
     ffc:	1f 93       	push	r17
     ffe:	cf 93       	push	r28
    1000:	df 93       	push	r29
    1002:	18 2f       	mov	r17, r24
    1004:	7b 01       	movw	r14, r22
    1006:	0e 94 da 07 	call	0xfb4	; 0xfb4 <UART_getchar>
    100a:	e7 01       	movw	r28, r14
    100c:	93 e1       	ldi	r25, 0x13	; 19
    100e:	c9 2e       	mov	r12, r25
    1010:	d1 2c       	mov	r13, r1
    1012:	ce 0c       	add	r12, r14
    1014:	df 1c       	adc	r13, r15
    1016:	25 c0       	rjmp	.+74     	; 0x1062 <UART_gets+0x6e>
    1018:	88 30       	cpi	r24, 0x08	; 8
    101a:	79 f0       	breq	.+30     	; 0x103a <UART_gets+0x46>
    101c:	cc 15       	cp	r28, r12
    101e:	dd 05       	cpc	r29, r13
    1020:	10 f4       	brcc	.+4      	; 0x1026 <UART_gets+0x32>
    1022:	89 93       	st	Y+, r24
    1024:	1b c0       	rjmp	.+54     	; 0x105c <UART_gets+0x68>
    1026:	68 e0       	ldi	r22, 0x08	; 8
    1028:	81 2f       	mov	r24, r17
    102a:	0e 94 90 07 	call	0xf20	; 0xf20 <UART_putchar>
    102e:	60 e2       	ldi	r22, 0x20	; 32
    1030:	81 2f       	mov	r24, r17
    1032:	0e 94 90 07 	call	0xf20	; 0xf20 <UART_putchar>
    1036:	68 e0       	ldi	r22, 0x08	; 8
    1038:	04 c0       	rjmp	.+8      	; 0x1042 <UART_gets+0x4e>
    103a:	ce 15       	cp	r28, r14
    103c:	df 05       	cpc	r29, r15
    103e:	29 f4       	brne	.+10     	; 0x104a <UART_gets+0x56>
    1040:	60 e2       	ldi	r22, 0x20	; 32
    1042:	81 2f       	mov	r24, r17
    1044:	0e 94 90 07 	call	0xf20	; 0xf20 <UART_putchar>
    1048:	09 c0       	rjmp	.+18     	; 0x105c <UART_gets+0x68>
    104a:	60 e2       	ldi	r22, 0x20	; 32
    104c:	81 2f       	mov	r24, r17
    104e:	0e 94 90 07 	call	0xf20	; 0xf20 <UART_putchar>
    1052:	68 e0       	ldi	r22, 0x08	; 8
    1054:	81 2f       	mov	r24, r17
    1056:	0e 94 90 07 	call	0xf20	; 0xf20 <UART_putchar>
    105a:	21 97       	sbiw	r28, 0x01	; 1
    105c:	81 2f       	mov	r24, r17
    105e:	0e 94 da 07 	call	0xfb4	; 0xfb4 <UART_getchar>
    1062:	8d 30       	cpi	r24, 0x0D	; 13
    1064:	c9 f6       	brne	.-78     	; 0x1018 <UART_gets+0x24>
    1066:	80 93 3f 03 	sts	0x033F, r24
    106a:	6a e0       	ldi	r22, 0x0A	; 10
    106c:	81 2f       	mov	r24, r17
    106e:	0e 94 90 07 	call	0xf20	; 0xf20 <UART_putchar>
    1072:	18 82       	st	Y, r1
    1074:	df 91       	pop	r29
    1076:	cf 91       	pop	r28
    1078:	1f 91       	pop	r17
    107a:	ff 90       	pop	r15
    107c:	ef 90       	pop	r14
    107e:	df 90       	pop	r13
    1080:	cf 90       	pop	r12
    1082:	08 95       	ret

00001084 <UART_gotoxy>:
    1084:	38 2f       	mov	r19, r24
    1086:	26 2f       	mov	r18, r22
    1088:	84 2f       	mov	r24, r20
    108a:	6a e0       	ldi	r22, 0x0A	; 10
    108c:	0e 94 bf 17 	call	0x2f7e	; 0x2f7e <__udivmodqi4>
    1090:	90 5d       	subi	r25, 0xD0	; 208
    1092:	90 93 2e 02 	sts	0x022E, r25
    1096:	84 2f       	mov	r24, r20
    1098:	0e 94 bf 17 	call	0x2f7e	; 0x2f7e <__udivmodqi4>
    109c:	0e 94 bf 17 	call	0x2f7e	; 0x2f7e <__udivmodqi4>
    10a0:	90 5d       	subi	r25, 0xD0	; 208
    10a2:	90 93 2d 02 	sts	0x022D, r25
    10a6:	82 2f       	mov	r24, r18
    10a8:	0e 94 bf 17 	call	0x2f7e	; 0x2f7e <__udivmodqi4>
    10ac:	90 5d       	subi	r25, 0xD0	; 208
    10ae:	90 93 31 02 	sts	0x0231, r25
    10b2:	82 2f       	mov	r24, r18
    10b4:	0e 94 bf 17 	call	0x2f7e	; 0x2f7e <__udivmodqi4>
    10b8:	0e 94 bf 17 	call	0x2f7e	; 0x2f7e <__udivmodqi4>
    10bc:	90 5d       	subi	r25, 0xD0	; 208
    10be:	90 93 30 02 	sts	0x0230, r25
    10c2:	6b e2       	ldi	r22, 0x2B	; 43
    10c4:	72 e0       	ldi	r23, 0x02	; 2
    10c6:	83 2f       	mov	r24, r19
    10c8:	0e 94 bd 07 	call	0xf7a	; 0xf7a <UART_puts>
    10cc:	08 95       	ret

000010ce <UART_setColor>:
    10ce:	98 2f       	mov	r25, r24
    10d0:	61 32       	cpi	r22, 0x21	; 33
    10d2:	c1 f0       	breq	.+48     	; 0x1104 <UART_setColor+0x36>
    10d4:	62 32       	cpi	r22, 0x22	; 34
    10d6:	38 f4       	brcc	.+14     	; 0x10e6 <UART_setColor+0x18>
    10d8:	6f 31       	cpi	r22, 0x1F	; 31
    10da:	81 f0       	breq	.+32     	; 0x10fc <UART_setColor+0x2e>
    10dc:	60 32       	cpi	r22, 0x20	; 32
    10de:	80 f4       	brcc	.+32     	; 0x1100 <UART_setColor+0x32>
    10e0:	6e 31       	cpi	r22, 0x1E	; 30
    10e2:	d9 f4       	brne	.+54     	; 0x111a <UART_setColor+0x4c>
    10e4:	09 c0       	rjmp	.+18     	; 0x10f8 <UART_setColor+0x2a>
    10e6:	63 32       	cpi	r22, 0x23	; 35
    10e8:	89 f0       	breq	.+34     	; 0x110c <UART_setColor+0x3e>
    10ea:	63 32       	cpi	r22, 0x23	; 35
    10ec:	68 f0       	brcs	.+26     	; 0x1108 <UART_setColor+0x3a>
    10ee:	64 32       	cpi	r22, 0x24	; 36
    10f0:	79 f0       	breq	.+30     	; 0x1110 <UART_setColor+0x42>
    10f2:	65 32       	cpi	r22, 0x25	; 37
    10f4:	91 f4       	brne	.+36     	; 0x111a <UART_setColor+0x4c>
    10f6:	0e c0       	rjmp	.+28     	; 0x1114 <UART_setColor+0x46>
    10f8:	80 e3       	ldi	r24, 0x30	; 48
    10fa:	0d c0       	rjmp	.+26     	; 0x1116 <UART_setColor+0x48>
    10fc:	81 e3       	ldi	r24, 0x31	; 49
    10fe:	0b c0       	rjmp	.+22     	; 0x1116 <UART_setColor+0x48>
    1100:	82 e3       	ldi	r24, 0x32	; 50
    1102:	09 c0       	rjmp	.+18     	; 0x1116 <UART_setColor+0x48>
    1104:	83 e3       	ldi	r24, 0x33	; 51
    1106:	07 c0       	rjmp	.+14     	; 0x1116 <UART_setColor+0x48>
    1108:	84 e3       	ldi	r24, 0x34	; 52
    110a:	05 c0       	rjmp	.+10     	; 0x1116 <UART_setColor+0x48>
    110c:	85 e3       	ldi	r24, 0x35	; 53
    110e:	03 c0       	rjmp	.+6      	; 0x1116 <UART_setColor+0x48>
    1110:	86 e3       	ldi	r24, 0x36	; 54
    1112:	01 c0       	rjmp	.+2      	; 0x1116 <UART_setColor+0x48>
    1114:	87 e3       	ldi	r24, 0x37	; 55
    1116:	80 93 28 02 	sts	0x0228, r24
    111a:	65 e2       	ldi	r22, 0x25	; 37
    111c:	72 e0       	ldi	r23, 0x02	; 2
    111e:	89 2f       	mov	r24, r25
    1120:	0e 94 bd 07 	call	0xf7a	; 0xf7a <UART_puts>
    1124:	08 95       	ret

00001126 <UART_clrscr>:
    1126:	1f 93       	push	r17
    1128:	18 2f       	mov	r17, r24
    112a:	6c e1       	ldi	r22, 0x1C	; 28
    112c:	72 e0       	ldi	r23, 0x02	; 2
    112e:	0e 94 bd 07 	call	0xf7a	; 0xf7a <UART_puts>
    1132:	61 e2       	ldi	r22, 0x21	; 33
    1134:	72 e0       	ldi	r23, 0x02	; 2
    1136:	81 2f       	mov	r24, r17
    1138:	0e 94 bd 07 	call	0xf7a	; 0xf7a <UART_puts>
    113c:	1f 91       	pop	r17
    113e:	08 95       	ret

00001140 <UART_init>:
    1140:	cf 92       	push	r12
    1142:	df 92       	push	r13
    1144:	ef 92       	push	r14
    1146:	ff 92       	push	r15
    1148:	0f 93       	push	r16
    114a:	1f 93       	push	r17
    114c:	cf 93       	push	r28
    114e:	df 93       	push	r29
    1150:	f4 2e       	mov	r15, r20
    1152:	e2 2e       	mov	r14, r18
    1154:	83 30       	cpi	r24, 0x03	; 3
    1156:	19 f4       	brne	.+6      	; 0x115e <UART_init+0x1e>
    1158:	c0 e3       	ldi	r28, 0x30	; 48
    115a:	d1 e0       	ldi	r29, 0x01	; 1
    115c:	09 c0       	rjmp	.+18     	; 0x1170 <UART_init+0x30>
    115e:	c8 2f       	mov	r28, r24
    1160:	d0 e0       	ldi	r29, 0x00	; 0
    1162:	23 e0       	ldi	r18, 0x03	; 3
    1164:	cc 0f       	add	r28, r28
    1166:	dd 1f       	adc	r29, r29
    1168:	2a 95       	dec	r18
    116a:	e1 f7       	brne	.-8      	; 0x1164 <UART_init+0x24>
    116c:	c0 54       	subi	r28, 0x40	; 64
    116e:	df 4f       	sbci	r29, 0xFF	; 255
    1170:	6e 01       	movw	r12, r28
    1172:	08 94       	sec
    1174:	c1 1c       	adc	r12, r1
    1176:	d1 1c       	adc	r13, r1
    1178:	19 81       	ldd	r17, Y+1	; 0x01
    117a:	18 61       	ori	r17, 0x18	; 24
    117c:	1d 82       	std	Y+5, r1	; 0x05
    117e:	9b 01       	movw	r18, r22
    1180:	40 e0       	ldi	r20, 0x00	; 0
    1182:	50 e0       	ldi	r21, 0x00	; 0
    1184:	60 e4       	ldi	r22, 0x40	; 64
    1186:	72 e4       	ldi	r23, 0x42	; 66
    1188:	8f e0       	ldi	r24, 0x0F	; 15
    118a:	90 e0       	ldi	r25, 0x00	; 0
    118c:	0e 94 f2 17 	call	0x2fe4	; 0x2fe4 <__divmodsi4>
    1190:	21 50       	subi	r18, 0x01	; 1
    1192:	30 40       	sbci	r19, 0x00	; 0
    1194:	2c 83       	std	Y+4, r18	; 0x04
    1196:	1b 7f       	andi	r17, 0xFB	; 251
    1198:	19 83       	std	Y+1, r17	; 0x01
    119a:	fe 01       	movw	r30, r28
    119c:	32 96       	adiw	r30, 0x02	; 2
    119e:	8a 81       	ldd	r24, Y+2	; 0x02
    11a0:	89 7f       	andi	r24, 0xF9	; 249
    11a2:	8a 83       	std	Y+2, r24	; 0x02
    11a4:	97 e0       	ldi	r25, 0x07	; 7
    11a6:	f9 16       	cp	r15, r25
    11a8:	41 f0       	breq	.+16     	; 0x11ba <UART_init+0x7a>
    11aa:	98 e0       	ldi	r25, 0x08	; 8
    11ac:	f9 16       	cp	r15, r25
    11ae:	39 f0       	breq	.+14     	; 0x11be <UART_init+0x7e>
    11b0:	96 e0       	ldi	r25, 0x06	; 6
    11b2:	f9 16       	cp	r15, r25
    11b4:	31 f4       	brne	.+12     	; 0x11c2 <UART_init+0x82>
    11b6:	82 60       	ori	r24, 0x02	; 2
    11b8:	03 c0       	rjmp	.+6      	; 0x11c0 <UART_init+0x80>
    11ba:	84 60       	ori	r24, 0x04	; 4
    11bc:	01 c0       	rjmp	.+2      	; 0x11c0 <UART_init+0x80>
    11be:	86 60       	ori	r24, 0x06	; 6
    11c0:	8a 83       	std	Y+2, r24	; 0x02
    11c2:	80 81       	ld	r24, Z
    11c4:	8f 7c       	andi	r24, 0xCF	; 207
    11c6:	80 83       	st	Z, r24
    11c8:	91 e0       	ldi	r25, 0x01	; 1
    11ca:	e9 16       	cp	r14, r25
    11cc:	21 f0       	breq	.+8      	; 0x11d6 <UART_init+0x96>
    11ce:	92 e0       	ldi	r25, 0x02	; 2
    11d0:	e9 16       	cp	r14, r25
    11d2:	29 f4       	brne	.+10     	; 0x11de <UART_init+0x9e>
    11d4:	02 c0       	rjmp	.+4      	; 0x11da <UART_init+0x9a>
    11d6:	80 63       	ori	r24, 0x30	; 48
    11d8:	01 c0       	rjmp	.+2      	; 0x11dc <UART_init+0x9c>
    11da:	80 62       	ori	r24, 0x20	; 32
    11dc:	80 83       	st	Z, r24
    11de:	02 30       	cpi	r16, 0x02	; 2
    11e0:	19 f4       	brne	.+6      	; 0x11e8 <UART_init+0xa8>
    11e2:	80 81       	ld	r24, Z
    11e4:	88 60       	ori	r24, 0x08	; 8
    11e6:	80 83       	st	Z, r24
    11e8:	f6 01       	movw	r30, r12
    11ea:	80 81       	ld	r24, Z
    11ec:	80 6a       	ori	r24, 0xA0	; 160
    11ee:	80 83       	st	Z, r24
    11f0:	10 92 cb 03 	sts	0x03CB, r1
    11f4:	10 92 cc 03 	sts	0x03CC, r1
    11f8:	10 92 89 03 	sts	0x0389, r1
    11fc:	10 92 8a 03 	sts	0x038A, r1
    1200:	df 91       	pop	r29
    1202:	cf 91       	pop	r28
    1204:	1f 91       	pop	r17
    1206:	0f 91       	pop	r16
    1208:	ff 90       	pop	r15
    120a:	ef 90       	pop	r14
    120c:	df 90       	pop	r13
    120e:	cf 90       	pop	r12
    1210:	08 95       	ret

00001212 <atoi>:
    1212:	fc 01       	movw	r30, r24
    1214:	20 e0       	ldi	r18, 0x00	; 0
    1216:	30 e0       	ldi	r19, 0x00	; 0
    1218:	16 c0       	rjmp	.+44     	; 0x1246 <atoi+0x34>
    121a:	90 e0       	ldi	r25, 0x00	; 0
    121c:	c0 97       	sbiw	r24, 0x30	; 48
    121e:	8a 30       	cpi	r24, 0x0A	; 10
    1220:	91 05       	cpc	r25, r1
    1222:	a0 f4       	brcc	.+40     	; 0x124c <atoi+0x3a>
    1224:	28 0f       	add	r18, r24
    1226:	39 1f       	adc	r19, r25
    1228:	31 96       	adiw	r30, 0x01	; 1
    122a:	80 81       	ld	r24, Z
    122c:	80 53       	subi	r24, 0x30	; 48
    122e:	8a 30       	cpi	r24, 0x0A	; 10
    1230:	50 f4       	brcc	.+20     	; 0x1246 <atoi+0x34>
    1232:	c9 01       	movw	r24, r18
    1234:	88 0f       	add	r24, r24
    1236:	99 1f       	adc	r25, r25
    1238:	43 e0       	ldi	r20, 0x03	; 3
    123a:	22 0f       	add	r18, r18
    123c:	33 1f       	adc	r19, r19
    123e:	4a 95       	dec	r20
    1240:	e1 f7       	brne	.-8      	; 0x123a <atoi+0x28>
    1242:	28 0f       	add	r18, r24
    1244:	39 1f       	adc	r19, r25
    1246:	80 81       	ld	r24, Z
    1248:	88 23       	and	r24, r24
    124a:	39 f7       	brne	.-50     	; 0x121a <atoi+0x8>
    124c:	c9 01       	movw	r24, r18
    124e:	08 95       	ret

00001250 <itoa>:
    1250:	2f 92       	push	r2
    1252:	3f 92       	push	r3
    1254:	4f 92       	push	r4
    1256:	5f 92       	push	r5
    1258:	6f 92       	push	r6
    125a:	7f 92       	push	r7
    125c:	8f 92       	push	r8
    125e:	9f 92       	push	r9
    1260:	af 92       	push	r10
    1262:	bf 92       	push	r11
    1264:	cf 92       	push	r12
    1266:	df 92       	push	r13
    1268:	ef 92       	push	r14
    126a:	ff 92       	push	r15
    126c:	0f 93       	push	r16
    126e:	1f 93       	push	r17
    1270:	cf 93       	push	r28
    1272:	df 93       	push	r29
    1274:	cd b7       	in	r28, 0x3d	; 61
    1276:	de b7       	in	r29, 0x3e	; 62
    1278:	2c 97       	sbiw	r28, 0x0c	; 12
    127a:	0f b6       	in	r0, 0x3f	; 63
    127c:	f8 94       	cli
    127e:	de bf       	out	0x3e, r29	; 62
    1280:	0f be       	out	0x3f, r0	; 63
    1282:	cd bf       	out	0x3d, r28	; 61
    1284:	9a 83       	std	Y+2, r25	; 0x02
    1286:	89 83       	std	Y+1, r24	; 0x01
    1288:	20 2e       	mov	r2, r16
    128a:	31 2e       	mov	r3, r17
    128c:	42 2e       	mov	r4, r18
    128e:	53 2e       	mov	r5, r19
    1290:	64 2e       	mov	r6, r20
    1292:	75 2e       	mov	r7, r21
    1294:	86 2e       	mov	r8, r22
    1296:	97 2e       	mov	r9, r23
    1298:	9c 87       	std	Y+12, r25	; 0x0c
    129a:	8b 87       	std	Y+11, r24	; 0x0b
    129c:	30 e0       	ldi	r19, 0x00	; 0
    129e:	40 e0       	ldi	r20, 0x00	; 0
    12a0:	50 e0       	ldi	r21, 0x00	; 0
    12a2:	60 e0       	ldi	r22, 0x00	; 0
    12a4:	70 e0       	ldi	r23, 0x00	; 0
    12a6:	80 e0       	ldi	r24, 0x00	; 0
    12a8:	90 e0       	ldi	r25, 0x00	; 0
    12aa:	eb 82       	std	Y+3, r14	; 0x03
    12ac:	3c 83       	std	Y+4, r19	; 0x04
    12ae:	4d 83       	std	Y+5, r20	; 0x05
    12b0:	5e 83       	std	Y+6, r21	; 0x06
    12b2:	6f 83       	std	Y+7, r22	; 0x07
    12b4:	78 87       	std	Y+8, r23	; 0x08
    12b6:	89 87       	std	Y+9, r24	; 0x09
    12b8:	9a 87       	std	Y+10, r25	; 0x0a
    12ba:	ab 80       	ldd	r10, Y+3	; 0x03
    12bc:	bb 24       	eor	r11, r11
    12be:	cc 24       	eor	r12, r12
    12c0:	dd 24       	eor	r13, r13
    12c2:	ee 24       	eor	r14, r14
    12c4:	ff 24       	eor	r15, r15
    12c6:	00 e0       	ldi	r16, 0x00	; 0
    12c8:	10 e0       	ldi	r17, 0x00	; 0
    12ca:	22 2d       	mov	r18, r2
    12cc:	33 2d       	mov	r19, r3
    12ce:	44 2d       	mov	r20, r4
    12d0:	55 2d       	mov	r21, r5
    12d2:	66 2d       	mov	r22, r6
    12d4:	77 2d       	mov	r23, r7
    12d6:	88 2d       	mov	r24, r8
    12d8:	99 2d       	mov	r25, r9
    12da:	0e 94 6d 11 	call	0x22da	; 0x22da <__umoddi3>
    12de:	82 2f       	mov	r24, r18
    12e0:	80 5d       	subi	r24, 0xD0	; 208
    12e2:	8a 33       	cpi	r24, 0x3A	; 58
    12e4:	08 f0       	brcs	.+2      	; 0x12e8 <itoa+0x98>
    12e6:	89 5f       	subi	r24, 0xF9	; 249
    12e8:	eb 85       	ldd	r30, Y+11	; 0x0b
    12ea:	fc 85       	ldd	r31, Y+12	; 0x0c
    12ec:	81 93       	st	Z+, r24
    12ee:	fc 87       	std	Y+12, r31	; 0x0c
    12f0:	eb 87       	std	Y+11, r30	; 0x0b
    12f2:	ab 80       	ldd	r10, Y+3	; 0x03
    12f4:	bb 24       	eor	r11, r11
    12f6:	cc 24       	eor	r12, r12
    12f8:	dd 24       	eor	r13, r13
    12fa:	ee 24       	eor	r14, r14
    12fc:	ff 24       	eor	r15, r15
    12fe:	00 e0       	ldi	r16, 0x00	; 0
    1300:	10 e0       	ldi	r17, 0x00	; 0
    1302:	22 2d       	mov	r18, r2
    1304:	33 2d       	mov	r19, r3
    1306:	44 2d       	mov	r20, r4
    1308:	55 2d       	mov	r21, r5
    130a:	66 2d       	mov	r22, r6
    130c:	77 2d       	mov	r23, r7
    130e:	88 2d       	mov	r24, r8
    1310:	99 2d       	mov	r25, r9
    1312:	0e 94 e0 0a 	call	0x15c0	; 0x15c0 <__udivdi3>
    1316:	b3 2e       	mov	r11, r19
    1318:	c4 2e       	mov	r12, r20
    131a:	d5 2e       	mov	r13, r21
    131c:	e6 2e       	mov	r14, r22
    131e:	f7 2e       	mov	r15, r23
    1320:	08 2f       	mov	r16, r24
    1322:	19 2f       	mov	r17, r25
    1324:	22 2e       	mov	r2, r18
    1326:	33 2e       	mov	r3, r19
    1328:	44 2e       	mov	r4, r20
    132a:	55 2e       	mov	r5, r21
    132c:	66 2e       	mov	r6, r22
    132e:	77 2e       	mov	r7, r23
    1330:	88 2e       	mov	r8, r24
    1332:	99 2e       	mov	r9, r25
    1334:	82 2f       	mov	r24, r18
    1336:	8b 29       	or	r24, r11
    1338:	8c 29       	or	r24, r12
    133a:	8d 29       	or	r24, r13
    133c:	8e 29       	or	r24, r14
    133e:	8f 29       	or	r24, r15
    1340:	80 2b       	or	r24, r16
    1342:	81 2b       	or	r24, r17
    1344:	09 f0       	breq	.+2      	; 0x1348 <itoa+0xf8>
    1346:	b9 cf       	rjmp	.-142    	; 0x12ba <itoa+0x6a>
    1348:	eb 85       	ldd	r30, Y+11	; 0x0b
    134a:	fc 85       	ldd	r31, Y+12	; 0x0c
    134c:	10 82       	st	Z, r1
    134e:	9f 01       	movw	r18, r30
    1350:	21 50       	subi	r18, 0x01	; 1
    1352:	30 40       	sbci	r19, 0x00	; 0
    1354:	a9 81       	ldd	r26, Y+1	; 0x01
    1356:	ba 81       	ldd	r27, Y+2	; 0x02
    1358:	07 c0       	rjmp	.+14     	; 0x1368 <itoa+0x118>
    135a:	9c 91       	ld	r25, X
    135c:	f9 01       	movw	r30, r18
    135e:	80 81       	ld	r24, Z
    1360:	8d 93       	st	X+, r24
    1362:	90 83       	st	Z, r25
    1364:	21 50       	subi	r18, 0x01	; 1
    1366:	30 40       	sbci	r19, 0x00	; 0
    1368:	a2 17       	cp	r26, r18
    136a:	b3 07       	cpc	r27, r19
    136c:	b0 f3       	brcs	.-20     	; 0x135a <itoa+0x10a>
    136e:	2c 96       	adiw	r28, 0x0c	; 12
    1370:	0f b6       	in	r0, 0x3f	; 63
    1372:	f8 94       	cli
    1374:	de bf       	out	0x3e, r29	; 62
    1376:	0f be       	out	0x3f, r0	; 63
    1378:	cd bf       	out	0x3d, r28	; 61
    137a:	df 91       	pop	r29
    137c:	cf 91       	pop	r28
    137e:	1f 91       	pop	r17
    1380:	0f 91       	pop	r16
    1382:	ff 90       	pop	r15
    1384:	ef 90       	pop	r14
    1386:	df 90       	pop	r13
    1388:	cf 90       	pop	r12
    138a:	bf 90       	pop	r11
    138c:	af 90       	pop	r10
    138e:	9f 90       	pop	r9
    1390:	8f 90       	pop	r8
    1392:	7f 90       	pop	r7
    1394:	6f 90       	pop	r6
    1396:	5f 90       	pop	r5
    1398:	4f 90       	pop	r4
    139a:	3f 90       	pop	r3
    139c:	2f 90       	pop	r2
    139e:	08 95       	ret

000013a0 <__muldi3>:
    13a0:	a0 e3       	ldi	r26, 0x30	; 48
    13a2:	b0 e0       	ldi	r27, 0x00	; 0
    13a4:	e6 ed       	ldi	r30, 0xD6	; 214
    13a6:	f9 e0       	ldi	r31, 0x09	; 9
    13a8:	0c 94 4e 18 	jmp	0x309c	; 0x309c <__prologue_saves__>
    13ac:	22 2e       	mov	r2, r18
    13ae:	33 2e       	mov	r3, r19
    13b0:	44 2e       	mov	r4, r20
    13b2:	55 2e       	mov	r5, r21
    13b4:	66 2e       	mov	r6, r22
    13b6:	77 2e       	mov	r7, r23
    13b8:	88 2e       	mov	r8, r24
    13ba:	99 2e       	mov	r9, r25
    13bc:	2a 2d       	mov	r18, r10
    13be:	3b 2d       	mov	r19, r11
    13c0:	fe 01       	movw	r30, r28
    13c2:	31 96       	adiw	r30, 0x01	; 1
    13c4:	b8 e0       	ldi	r27, 0x08	; 8
    13c6:	ab 2e       	mov	r10, r27
    13c8:	11 92       	st	Z+, r1
    13ca:	aa 94       	dec	r10
    13cc:	e9 f7       	brne	.-6      	; 0x13c8 <__muldi3+0x28>
    13ce:	29 82       	std	Y+1, r2	; 0x01
    13d0:	3a 82       	std	Y+2, r3	; 0x02
    13d2:	4b 82       	std	Y+3, r4	; 0x03
    13d4:	5c 82       	std	Y+4, r5	; 0x04
    13d6:	6d 82       	std	Y+5, r6	; 0x05
    13d8:	7e 82       	std	Y+6, r7	; 0x06
    13da:	8f 82       	std	Y+7, r8	; 0x07
    13dc:	98 86       	std	Y+8, r9	; 0x08
    13de:	fe 01       	movw	r30, r28
    13e0:	39 96       	adiw	r30, 0x09	; 9
    13e2:	a8 e0       	ldi	r26, 0x08	; 8
    13e4:	ba 2e       	mov	r11, r26
    13e6:	11 92       	st	Z+, r1
    13e8:	ba 94       	dec	r11
    13ea:	e9 f7       	brne	.-6      	; 0x13e6 <__muldi3+0x46>
    13ec:	29 87       	std	Y+9, r18	; 0x09
    13ee:	3a 87       	std	Y+10, r19	; 0x0a
    13f0:	cb 86       	std	Y+11, r12	; 0x0b
    13f2:	dc 86       	std	Y+12, r13	; 0x0c
    13f4:	ed 86       	std	Y+13, r14	; 0x0d
    13f6:	fe 86       	std	Y+14, r15	; 0x0e
    13f8:	0f 87       	std	Y+15, r16	; 0x0f
    13fa:	18 8b       	std	Y+16, r17	; 0x10
    13fc:	c9 80       	ldd	r12, Y+1	; 0x01
    13fe:	da 80       	ldd	r13, Y+2	; 0x02
    1400:	eb 80       	ldd	r14, Y+3	; 0x03
    1402:	fc 80       	ldd	r15, Y+4	; 0x04
    1404:	cd a6       	std	Y+45, r12	; 0x2d
    1406:	de a6       	std	Y+46, r13	; 0x2e
    1408:	ef a6       	std	Y+47, r14	; 0x2f
    140a:	f8 aa       	std	Y+48, r15	; 0x30
    140c:	87 01       	movw	r16, r14
    140e:	76 01       	movw	r14, r12
    1410:	8f ef       	ldi	r24, 0xFF	; 255
    1412:	9f ef       	ldi	r25, 0xFF	; 255
    1414:	a0 e0       	ldi	r26, 0x00	; 0
    1416:	b0 e0       	ldi	r27, 0x00	; 0
    1418:	e8 22       	and	r14, r24
    141a:	f9 22       	and	r15, r25
    141c:	0a 23       	and	r16, r26
    141e:	1b 23       	and	r17, r27
    1420:	ad a4       	ldd	r10, Y+45	; 0x2d
    1422:	be a4       	ldd	r11, Y+46	; 0x2e
    1424:	cf a4       	ldd	r12, Y+47	; 0x2f
    1426:	d8 a8       	ldd	r13, Y+48	; 0x30
    1428:	16 01       	movw	r2, r12
    142a:	44 24       	eor	r4, r4
    142c:	55 24       	eor	r5, r5
    142e:	89 85       	ldd	r24, Y+9	; 0x09
    1430:	9a 85       	ldd	r25, Y+10	; 0x0a
    1432:	ab 85       	ldd	r26, Y+11	; 0x0b
    1434:	bc 85       	ldd	r27, Y+12	; 0x0c
    1436:	89 a7       	std	Y+41, r24	; 0x29
    1438:	9a a7       	std	Y+42, r25	; 0x2a
    143a:	ab a7       	std	Y+43, r26	; 0x2b
    143c:	bc a7       	std	Y+44, r27	; 0x2c
    143e:	5c 01       	movw	r10, r24
    1440:	6d 01       	movw	r12, r26
    1442:	8f ef       	ldi	r24, 0xFF	; 255
    1444:	9f ef       	ldi	r25, 0xFF	; 255
    1446:	a0 e0       	ldi	r26, 0x00	; 0
    1448:	b0 e0       	ldi	r27, 0x00	; 0
    144a:	a8 22       	and	r10, r24
    144c:	b9 22       	and	r11, r25
    144e:	ca 22       	and	r12, r26
    1450:	db 22       	and	r13, r27
    1452:	89 a5       	ldd	r24, Y+41	; 0x29
    1454:	9a a5       	ldd	r25, Y+42	; 0x2a
    1456:	ab a5       	ldd	r26, Y+43	; 0x2b
    1458:	bc a5       	ldd	r27, Y+44	; 0x2c
    145a:	3d 01       	movw	r6, r26
    145c:	88 24       	eor	r8, r8
    145e:	99 24       	eor	r9, r9
    1460:	c6 01       	movw	r24, r12
    1462:	b5 01       	movw	r22, r10
    1464:	a8 01       	movw	r20, r16
    1466:	97 01       	movw	r18, r14
    1468:	0e 94 0d 18 	call	0x301a	; 0x301a <__mulsi3>
    146c:	6d a3       	std	Y+37, r22	; 0x25
    146e:	7e a3       	std	Y+38, r23	; 0x26
    1470:	8f a3       	std	Y+39, r24	; 0x27
    1472:	98 a7       	std	Y+40, r25	; 0x28
    1474:	c4 01       	movw	r24, r8
    1476:	b3 01       	movw	r22, r6
    1478:	0e 94 0d 18 	call	0x301a	; 0x301a <__mulsi3>
    147c:	69 a3       	std	Y+33, r22	; 0x21
    147e:	7a a3       	std	Y+34, r23	; 0x22
    1480:	8b a3       	std	Y+35, r24	; 0x23
    1482:	9c a3       	std	Y+36, r25	; 0x24
    1484:	c6 01       	movw	r24, r12
    1486:	b5 01       	movw	r22, r10
    1488:	a2 01       	movw	r20, r4
    148a:	91 01       	movw	r18, r2
    148c:	0e 94 0d 18 	call	0x301a	; 0x301a <__mulsi3>
    1490:	7b 01       	movw	r14, r22
    1492:	8c 01       	movw	r16, r24
    1494:	c4 01       	movw	r24, r8
    1496:	b3 01       	movw	r22, r6
    1498:	0e 94 0d 18 	call	0x301a	; 0x301a <__mulsi3>
    149c:	9b 01       	movw	r18, r22
    149e:	ac 01       	movw	r20, r24
    14a0:	a9 a0       	ldd	r10, Y+33	; 0x21
    14a2:	ba a0       	ldd	r11, Y+34	; 0x22
    14a4:	cb a0       	ldd	r12, Y+35	; 0x23
    14a6:	dc a0       	ldd	r13, Y+36	; 0x24
    14a8:	ae 0c       	add	r10, r14
    14aa:	bf 1c       	adc	r11, r15
    14ac:	c0 1e       	adc	r12, r16
    14ae:	d1 1e       	adc	r13, r17
    14b0:	a9 a2       	std	Y+33, r10	; 0x21
    14b2:	ba a2       	std	Y+34, r11	; 0x22
    14b4:	cb a2       	std	Y+35, r12	; 0x23
    14b6:	dc a2       	std	Y+36, r13	; 0x24
    14b8:	ad a0       	ldd	r10, Y+37	; 0x25
    14ba:	be a0       	ldd	r11, Y+38	; 0x26
    14bc:	cf a0       	ldd	r12, Y+39	; 0x27
    14be:	d8 a4       	ldd	r13, Y+40	; 0x28
    14c0:	c6 01       	movw	r24, r12
    14c2:	aa 27       	eor	r26, r26
    14c4:	bb 27       	eor	r27, r27
    14c6:	a9 a0       	ldd	r10, Y+33	; 0x21
    14c8:	ba a0       	ldd	r11, Y+34	; 0x22
    14ca:	cb a0       	ldd	r12, Y+35	; 0x23
    14cc:	dc a0       	ldd	r13, Y+36	; 0x24
    14ce:	a8 0e       	add	r10, r24
    14d0:	b9 1e       	adc	r11, r25
    14d2:	ca 1e       	adc	r12, r26
    14d4:	db 1e       	adc	r13, r27
    14d6:	a9 a2       	std	Y+33, r10	; 0x21
    14d8:	ba a2       	std	Y+34, r11	; 0x22
    14da:	cb a2       	std	Y+35, r12	; 0x23
    14dc:	dc a2       	std	Y+36, r13	; 0x24
    14de:	ae 14       	cp	r10, r14
    14e0:	bf 04       	cpc	r11, r15
    14e2:	c0 06       	cpc	r12, r16
    14e4:	d1 06       	cpc	r13, r17
    14e6:	20 f4       	brcc	.+8      	; 0x14f0 <__muldi3+0x150>
    14e8:	20 50       	subi	r18, 0x00	; 0
    14ea:	30 40       	sbci	r19, 0x00	; 0
    14ec:	4f 4f       	sbci	r20, 0xFF	; 255
    14ee:	5f 4f       	sbci	r21, 0xFF	; 255
    14f0:	c9 a0       	ldd	r12, Y+33	; 0x21
    14f2:	da a0       	ldd	r13, Y+34	; 0x22
    14f4:	eb a0       	ldd	r14, Y+35	; 0x23
    14f6:	fc a0       	ldd	r15, Y+36	; 0x24
    14f8:	c7 01       	movw	r24, r14
    14fa:	aa 27       	eor	r26, r26
    14fc:	bb 27       	eor	r27, r27
    14fe:	82 0f       	add	r24, r18
    1500:	93 1f       	adc	r25, r19
    1502:	a4 1f       	adc	r26, r20
    1504:	b5 1f       	adc	r27, r21
    1506:	8d 8f       	std	Y+29, r24	; 0x1d
    1508:	9e 8f       	std	Y+30, r25	; 0x1e
    150a:	af 8f       	std	Y+31, r26	; 0x1f
    150c:	b8 a3       	std	Y+32, r27	; 0x20
    150e:	a6 01       	movw	r20, r12
    1510:	33 27       	eor	r19, r19
    1512:	22 27       	eor	r18, r18
    1514:	8d a1       	ldd	r24, Y+37	; 0x25
    1516:	9e a1       	ldd	r25, Y+38	; 0x26
    1518:	af a1       	ldd	r26, Y+39	; 0x27
    151a:	b8 a5       	ldd	r27, Y+40	; 0x28
    151c:	a0 70       	andi	r26, 0x00	; 0
    151e:	b0 70       	andi	r27, 0x00	; 0
    1520:	28 0f       	add	r18, r24
    1522:	39 1f       	adc	r19, r25
    1524:	4a 1f       	adc	r20, r26
    1526:	5b 1f       	adc	r21, r27
    1528:	29 8f       	std	Y+25, r18	; 0x19
    152a:	3a 8f       	std	Y+26, r19	; 0x1a
    152c:	4b 8f       	std	Y+27, r20	; 0x1b
    152e:	5c 8f       	std	Y+28, r21	; 0x1c
    1530:	a9 8c       	ldd	r10, Y+25	; 0x19
    1532:	ba 8c       	ldd	r11, Y+26	; 0x1a
    1534:	cb 8c       	ldd	r12, Y+27	; 0x1b
    1536:	dc 8c       	ldd	r13, Y+28	; 0x1c
    1538:	ed 8c       	ldd	r14, Y+29	; 0x1d
    153a:	fe 8c       	ldd	r15, Y+30	; 0x1e
    153c:	0f 8d       	ldd	r16, Y+31	; 0x1f
    153e:	18 a1       	ldd	r17, Y+32	; 0x20
    1540:	fe 01       	movw	r30, r28
    1542:	71 96       	adiw	r30, 0x11	; 17
    1544:	88 e0       	ldi	r24, 0x08	; 8
    1546:	11 92       	st	Z+, r1
    1548:	8a 95       	dec	r24
    154a:	e9 f7       	brne	.-6      	; 0x1546 <__muldi3+0x1a6>
    154c:	ed 8a       	std	Y+21, r14	; 0x15
    154e:	fe 8a       	std	Y+22, r15	; 0x16
    1550:	0f 8b       	std	Y+23, r16	; 0x17
    1552:	18 8f       	std	Y+24, r17	; 0x18
    1554:	2d 85       	ldd	r18, Y+13	; 0x0d
    1556:	3e 85       	ldd	r19, Y+14	; 0x0e
    1558:	4f 85       	ldd	r20, Y+15	; 0x0f
    155a:	58 89       	ldd	r21, Y+16	; 0x10
    155c:	6d a5       	ldd	r22, Y+45	; 0x2d
    155e:	7e a5       	ldd	r23, Y+46	; 0x2e
    1560:	8f a5       	ldd	r24, Y+47	; 0x2f
    1562:	98 a9       	ldd	r25, Y+48	; 0x30
    1564:	0e 94 0d 18 	call	0x301a	; 0x301a <__mulsi3>
    1568:	3b 01       	movw	r6, r22
    156a:	4c 01       	movw	r8, r24
    156c:	2d 81       	ldd	r18, Y+5	; 0x05
    156e:	3e 81       	ldd	r19, Y+6	; 0x06
    1570:	4f 81       	ldd	r20, Y+7	; 0x07
    1572:	58 85       	ldd	r21, Y+8	; 0x08
    1574:	69 a5       	ldd	r22, Y+41	; 0x29
    1576:	7a a5       	ldd	r23, Y+42	; 0x2a
    1578:	8b a5       	ldd	r24, Y+43	; 0x2b
    157a:	9c a5       	ldd	r25, Y+44	; 0x2c
    157c:	0e 94 0d 18 	call	0x301a	; 0x301a <__mulsi3>
    1580:	66 0e       	add	r6, r22
    1582:	77 1e       	adc	r7, r23
    1584:	88 1e       	adc	r8, r24
    1586:	99 1e       	adc	r9, r25
    1588:	8d 89       	ldd	r24, Y+21	; 0x15
    158a:	9e 89       	ldd	r25, Y+22	; 0x16
    158c:	af 89       	ldd	r26, Y+23	; 0x17
    158e:	b8 8d       	ldd	r27, Y+24	; 0x18
    1590:	86 0d       	add	r24, r6
    1592:	97 1d       	adc	r25, r7
    1594:	a8 1d       	adc	r26, r8
    1596:	b9 1d       	adc	r27, r9
    1598:	8d 8b       	std	Y+21, r24	; 0x15
    159a:	9e 8b       	std	Y+22, r25	; 0x16
    159c:	af 8b       	std	Y+23, r26	; 0x17
    159e:	b8 8f       	std	Y+24, r27	; 0x18
    15a0:	6d 88       	ldd	r6, Y+21	; 0x15
    15a2:	7e 88       	ldd	r7, Y+22	; 0x16
    15a4:	8f 88       	ldd	r8, Y+23	; 0x17
    15a6:	98 8c       	ldd	r9, Y+24	; 0x18
    15a8:	2a 2d       	mov	r18, r10
    15aa:	3b 2d       	mov	r19, r11
    15ac:	4c 2d       	mov	r20, r12
    15ae:	5d 2d       	mov	r21, r13
    15b0:	66 2d       	mov	r22, r6
    15b2:	77 2d       	mov	r23, r7
    15b4:	88 2d       	mov	r24, r8
    15b6:	99 2d       	mov	r25, r9
    15b8:	e2 e1       	ldi	r30, 0x12	; 18
    15ba:	e0 96       	adiw	r28, 0x30	; 48
    15bc:	0c 94 6a 18 	jmp	0x30d4	; 0x30d4 <__epilogue_restores__>

000015c0 <__udivdi3>:
    15c0:	ac e6       	ldi	r26, 0x6C	; 108
    15c2:	b0 e0       	ldi	r27, 0x00	; 0
    15c4:	e6 ee       	ldi	r30, 0xE6	; 230
    15c6:	fa e0       	ldi	r31, 0x0A	; 10
    15c8:	0c 94 4e 18 	jmp	0x309c	; 0x309c <__prologue_saves__>
    15cc:	22 2e       	mov	r2, r18
    15ce:	33 2e       	mov	r3, r19
    15d0:	44 2e       	mov	r4, r20
    15d2:	55 2e       	mov	r5, r21
    15d4:	66 2e       	mov	r6, r22
    15d6:	77 2e       	mov	r7, r23
    15d8:	88 2e       	mov	r8, r24
    15da:	99 2e       	mov	r9, r25
    15dc:	6e 2d       	mov	r22, r14
    15de:	a8 e0       	ldi	r26, 0x08	; 8
    15e0:	fe 01       	movw	r30, r28
    15e2:	31 96       	adiw	r30, 0x01	; 1
    15e4:	ea 2e       	mov	r14, r26
    15e6:	11 92       	st	Z+, r1
    15e8:	ea 94       	dec	r14
    15ea:	e9 f7       	brne	.-6      	; 0x15e6 <__udivdi3+0x26>
    15ec:	29 82       	std	Y+1, r2	; 0x01
    15ee:	3a 82       	std	Y+2, r3	; 0x02
    15f0:	4b 82       	std	Y+3, r4	; 0x03
    15f2:	5c 82       	std	Y+4, r5	; 0x04
    15f4:	6d 82       	std	Y+5, r6	; 0x05
    15f6:	7e 82       	std	Y+6, r7	; 0x06
    15f8:	8f 82       	std	Y+7, r8	; 0x07
    15fa:	98 86       	std	Y+8, r9	; 0x08
    15fc:	fe 01       	movw	r30, r28
    15fe:	39 96       	adiw	r30, 0x09	; 9
    1600:	11 92       	st	Z+, r1
    1602:	aa 95       	dec	r26
    1604:	e9 f7       	brne	.-6      	; 0x1600 <__udivdi3+0x40>
    1606:	a9 86       	std	Y+9, r10	; 0x09
    1608:	ba 86       	std	Y+10, r11	; 0x0a
    160a:	cb 86       	std	Y+11, r12	; 0x0b
    160c:	dc 86       	std	Y+12, r13	; 0x0c
    160e:	6d 87       	std	Y+13, r22	; 0x0d
    1610:	fe 86       	std	Y+14, r15	; 0x0e
    1612:	0f 87       	std	Y+15, r16	; 0x0f
    1614:	18 8b       	std	Y+16, r17	; 0x10
    1616:	a9 84       	ldd	r10, Y+9	; 0x09
    1618:	ba 84       	ldd	r11, Y+10	; 0x0a
    161a:	cb 84       	ldd	r12, Y+11	; 0x0b
    161c:	dc 84       	ldd	r13, Y+12	; 0x0c
    161e:	6d 84       	ldd	r6, Y+13	; 0x0d
    1620:	7e 84       	ldd	r7, Y+14	; 0x0e
    1622:	8f 84       	ldd	r8, Y+15	; 0x0f
    1624:	98 88       	ldd	r9, Y+16	; 0x10
    1626:	09 81       	ldd	r16, Y+1	; 0x01
    1628:	1a 81       	ldd	r17, Y+2	; 0x02
    162a:	2b 81       	ldd	r18, Y+3	; 0x03
    162c:	3c 81       	ldd	r19, Y+4	; 0x04
    162e:	09 ab       	std	Y+49, r16	; 0x31
    1630:	1a ab       	std	Y+50, r17	; 0x32
    1632:	2b ab       	std	Y+51, r18	; 0x33
    1634:	3c ab       	std	Y+52, r19	; 0x34
    1636:	2d 80       	ldd	r2, Y+5	; 0x05
    1638:	3e 80       	ldd	r3, Y+6	; 0x06
    163a:	4f 80       	ldd	r4, Y+7	; 0x07
    163c:	58 84       	ldd	r5, Y+8	; 0x08
    163e:	61 14       	cp	r6, r1
    1640:	71 04       	cpc	r7, r1
    1642:	81 04       	cpc	r8, r1
    1644:	91 04       	cpc	r9, r1
    1646:	09 f0       	breq	.+2      	; 0x164a <__udivdi3+0x8a>
    1648:	b8 c3       	rjmp	.+1904   	; 0x1dba <__udivdi3+0x7fa>
    164a:	2a 14       	cp	r2, r10
    164c:	3b 04       	cpc	r3, r11
    164e:	4c 04       	cpc	r4, r12
    1650:	5d 04       	cpc	r5, r13
    1652:	08 f0       	brcs	.+2      	; 0x1656 <__udivdi3+0x96>
    1654:	61 c1       	rjmp	.+706    	; 0x1918 <__udivdi3+0x358>
    1656:	10 e0       	ldi	r17, 0x00	; 0
    1658:	a1 16       	cp	r10, r17
    165a:	10 e0       	ldi	r17, 0x00	; 0
    165c:	b1 06       	cpc	r11, r17
    165e:	11 e0       	ldi	r17, 0x01	; 1
    1660:	c1 06       	cpc	r12, r17
    1662:	10 e0       	ldi	r17, 0x00	; 0
    1664:	d1 06       	cpc	r13, r17
    1666:	88 f4       	brcc	.+34     	; 0x168a <__udivdi3+0xca>
    1668:	2f ef       	ldi	r18, 0xFF	; 255
    166a:	a2 16       	cp	r10, r18
    166c:	b1 04       	cpc	r11, r1
    166e:	c1 04       	cpc	r12, r1
    1670:	d1 04       	cpc	r13, r1
    1672:	09 f0       	breq	.+2      	; 0x1676 <__udivdi3+0xb6>
    1674:	28 f4       	brcc	.+10     	; 0x1680 <__udivdi3+0xc0>
    1676:	20 e0       	ldi	r18, 0x00	; 0
    1678:	30 e0       	ldi	r19, 0x00	; 0
    167a:	40 e0       	ldi	r20, 0x00	; 0
    167c:	50 e0       	ldi	r21, 0x00	; 0
    167e:	17 c0       	rjmp	.+46     	; 0x16ae <__udivdi3+0xee>
    1680:	28 e0       	ldi	r18, 0x08	; 8
    1682:	30 e0       	ldi	r19, 0x00	; 0
    1684:	40 e0       	ldi	r20, 0x00	; 0
    1686:	50 e0       	ldi	r21, 0x00	; 0
    1688:	12 c0       	rjmp	.+36     	; 0x16ae <__udivdi3+0xee>
    168a:	30 e0       	ldi	r19, 0x00	; 0
    168c:	a3 16       	cp	r10, r19
    168e:	30 e0       	ldi	r19, 0x00	; 0
    1690:	b3 06       	cpc	r11, r19
    1692:	30 e0       	ldi	r19, 0x00	; 0
    1694:	c3 06       	cpc	r12, r19
    1696:	31 e0       	ldi	r19, 0x01	; 1
    1698:	d3 06       	cpc	r13, r19
    169a:	28 f4       	brcc	.+10     	; 0x16a6 <__udivdi3+0xe6>
    169c:	20 e1       	ldi	r18, 0x10	; 16
    169e:	30 e0       	ldi	r19, 0x00	; 0
    16a0:	40 e0       	ldi	r20, 0x00	; 0
    16a2:	50 e0       	ldi	r21, 0x00	; 0
    16a4:	04 c0       	rjmp	.+8      	; 0x16ae <__udivdi3+0xee>
    16a6:	28 e1       	ldi	r18, 0x18	; 24
    16a8:	30 e0       	ldi	r19, 0x00	; 0
    16aa:	40 e0       	ldi	r20, 0x00	; 0
    16ac:	50 e0       	ldi	r21, 0x00	; 0
    16ae:	80 e2       	ldi	r24, 0x20	; 32
    16b0:	90 e0       	ldi	r25, 0x00	; 0
    16b2:	a0 e0       	ldi	r26, 0x00	; 0
    16b4:	b0 e0       	ldi	r27, 0x00	; 0
    16b6:	82 1b       	sub	r24, r18
    16b8:	93 0b       	sbc	r25, r19
    16ba:	a4 0b       	sbc	r26, r20
    16bc:	b5 0b       	sbc	r27, r21
    16be:	35 01       	movw	r6, r10
    16c0:	46 01       	movw	r8, r12
    16c2:	04 c0       	rjmp	.+8      	; 0x16cc <__udivdi3+0x10c>
    16c4:	96 94       	lsr	r9
    16c6:	87 94       	ror	r8
    16c8:	77 94       	ror	r7
    16ca:	67 94       	ror	r6
    16cc:	2a 95       	dec	r18
    16ce:	d2 f7       	brpl	.-12     	; 0x16c4 <__udivdi3+0x104>
    16d0:	a4 01       	movw	r20, r8
    16d2:	93 01       	movw	r18, r6
    16d4:	2c 5c       	subi	r18, 0xCC	; 204
    16d6:	3d 4f       	sbci	r19, 0xFD	; 253
    16d8:	f9 01       	movw	r30, r18
    16da:	20 81       	ld	r18, Z
    16dc:	ac 01       	movw	r20, r24
    16de:	bd 01       	movw	r22, r26
    16e0:	42 1b       	sub	r20, r18
    16e2:	51 09       	sbc	r21, r1
    16e4:	61 09       	sbc	r22, r1
    16e6:	71 09       	sbc	r23, r1
    16e8:	41 15       	cp	r20, r1
    16ea:	51 05       	cpc	r21, r1
    16ec:	61 05       	cpc	r22, r1
    16ee:	71 05       	cpc	r23, r1
    16f0:	b9 f1       	breq	.+110    	; 0x1760 <__udivdi3+0x1a0>
    16f2:	ca 01       	movw	r24, r20
    16f4:	04 2e       	mov	r0, r20
    16f6:	04 c0       	rjmp	.+8      	; 0x1700 <__udivdi3+0x140>
    16f8:	aa 0c       	add	r10, r10
    16fa:	bb 1c       	adc	r11, r11
    16fc:	cc 1c       	adc	r12, r12
    16fe:	dd 1c       	adc	r13, r13
    1700:	0a 94       	dec	r0
    1702:	d2 f7       	brpl	.-12     	; 0x16f8 <__udivdi3+0x138>
    1704:	20 e2       	ldi	r18, 0x20	; 32
    1706:	30 e0       	ldi	r19, 0x00	; 0
    1708:	24 1b       	sub	r18, r20
    170a:	35 0b       	sbc	r19, r21
    170c:	69 a8       	ldd	r6, Y+49	; 0x31
    170e:	7a a8       	ldd	r7, Y+50	; 0x32
    1710:	8b a8       	ldd	r8, Y+51	; 0x33
    1712:	9c a8       	ldd	r9, Y+52	; 0x34
    1714:	04 c0       	rjmp	.+8      	; 0x171e <__udivdi3+0x15e>
    1716:	96 94       	lsr	r9
    1718:	87 94       	ror	r8
    171a:	77 94       	ror	r7
    171c:	67 94       	ror	r6
    171e:	2a 95       	dec	r18
    1720:	d2 f7       	brpl	.-12     	; 0x1716 <__udivdi3+0x156>
    1722:	82 01       	movw	r16, r4
    1724:	71 01       	movw	r14, r2
    1726:	08 2e       	mov	r0, r24
    1728:	04 c0       	rjmp	.+8      	; 0x1732 <__udivdi3+0x172>
    172a:	ee 0c       	add	r14, r14
    172c:	ff 1c       	adc	r15, r15
    172e:	00 1f       	adc	r16, r16
    1730:	11 1f       	adc	r17, r17
    1732:	0a 94       	dec	r0
    1734:	d2 f7       	brpl	.-12     	; 0x172a <__udivdi3+0x16a>
    1736:	13 01       	movw	r2, r6
    1738:	24 01       	movw	r4, r8
    173a:	2e 28       	or	r2, r14
    173c:	3f 28       	or	r3, r15
    173e:	40 2a       	or	r4, r16
    1740:	51 2a       	or	r5, r17
    1742:	e9 a8       	ldd	r14, Y+49	; 0x31
    1744:	fa a8       	ldd	r15, Y+50	; 0x32
    1746:	0b a9       	ldd	r16, Y+51	; 0x33
    1748:	1c a9       	ldd	r17, Y+52	; 0x34
    174a:	04 c0       	rjmp	.+8      	; 0x1754 <__udivdi3+0x194>
    174c:	ee 0c       	add	r14, r14
    174e:	ff 1c       	adc	r15, r15
    1750:	00 1f       	adc	r16, r16
    1752:	11 1f       	adc	r17, r17
    1754:	8a 95       	dec	r24
    1756:	d2 f7       	brpl	.-12     	; 0x174c <__udivdi3+0x18c>
    1758:	e9 aa       	std	Y+49, r14	; 0x31
    175a:	fa aa       	std	Y+50, r15	; 0x32
    175c:	0b ab       	std	Y+51, r16	; 0x33
    175e:	1c ab       	std	Y+52, r17	; 0x34
    1760:	86 01       	movw	r16, r12
    1762:	22 27       	eor	r18, r18
    1764:	33 27       	eor	r19, r19
    1766:	21 96       	adiw	r28, 0x01	; 1
    1768:	0c af       	std	Y+60, r16	; 0x3c
    176a:	1d af       	std	Y+61, r17	; 0x3d
    176c:	2e af       	std	Y+62, r18	; 0x3e
    176e:	3f af       	std	Y+63, r19	; 0x3f
    1770:	21 97       	sbiw	r28, 0x01	; 1
    1772:	a6 01       	movw	r20, r12
    1774:	95 01       	movw	r18, r10
    1776:	40 70       	andi	r20, 0x00	; 0
    1778:	50 70       	andi	r21, 0x00	; 0
    177a:	25 96       	adiw	r28, 0x05	; 5
    177c:	2c af       	std	Y+60, r18	; 0x3c
    177e:	3d af       	std	Y+61, r19	; 0x3d
    1780:	4e af       	std	Y+62, r20	; 0x3e
    1782:	5f af       	std	Y+63, r21	; 0x3f
    1784:	25 97       	sbiw	r28, 0x05	; 5
    1786:	c2 01       	movw	r24, r4
    1788:	b1 01       	movw	r22, r2
    178a:	21 96       	adiw	r28, 0x01	; 1
    178c:	2c ad       	ldd	r18, Y+60	; 0x3c
    178e:	3d ad       	ldd	r19, Y+61	; 0x3d
    1790:	4e ad       	ldd	r20, Y+62	; 0x3e
    1792:	5f ad       	ldd	r21, Y+63	; 0x3f
    1794:	21 97       	sbiw	r28, 0x01	; 1
    1796:	0e 94 2c 18 	call	0x3058	; 0x3058 <__udivmodsi4>
    179a:	29 96       	adiw	r28, 0x09	; 9
    179c:	2c af       	std	Y+60, r18	; 0x3c
    179e:	3d af       	std	Y+61, r19	; 0x3d
    17a0:	4e af       	std	Y+62, r20	; 0x3e
    17a2:	5f af       	std	Y+63, r21	; 0x3f
    17a4:	29 97       	sbiw	r28, 0x09	; 9
    17a6:	ca 01       	movw	r24, r20
    17a8:	b9 01       	movw	r22, r18
    17aa:	25 96       	adiw	r28, 0x05	; 5
    17ac:	2c ad       	ldd	r18, Y+60	; 0x3c
    17ae:	3d ad       	ldd	r19, Y+61	; 0x3d
    17b0:	4e ad       	ldd	r20, Y+62	; 0x3e
    17b2:	5f ad       	ldd	r21, Y+63	; 0x3f
    17b4:	25 97       	sbiw	r28, 0x05	; 5
    17b6:	0e 94 0d 18 	call	0x301a	; 0x301a <__mulsi3>
    17ba:	3b 01       	movw	r6, r22
    17bc:	4c 01       	movw	r8, r24
    17be:	c2 01       	movw	r24, r4
    17c0:	b1 01       	movw	r22, r2
    17c2:	21 96       	adiw	r28, 0x01	; 1
    17c4:	2c ad       	ldd	r18, Y+60	; 0x3c
    17c6:	3d ad       	ldd	r19, Y+61	; 0x3d
    17c8:	4e ad       	ldd	r20, Y+62	; 0x3e
    17ca:	5f ad       	ldd	r21, Y+63	; 0x3f
    17cc:	21 97       	sbiw	r28, 0x01	; 1
    17ce:	0e 94 2c 18 	call	0x3058	; 0x3058 <__udivmodsi4>
    17d2:	cb 01       	movw	r24, r22
    17d4:	77 27       	eor	r23, r23
    17d6:	66 27       	eor	r22, r22
    17d8:	e9 a8       	ldd	r14, Y+49	; 0x31
    17da:	fa a8       	ldd	r15, Y+50	; 0x32
    17dc:	0b a9       	ldd	r16, Y+51	; 0x33
    17de:	1c a9       	ldd	r17, Y+52	; 0x34
    17e0:	98 01       	movw	r18, r16
    17e2:	44 27       	eor	r20, r20
    17e4:	55 27       	eor	r21, r21
    17e6:	7b 01       	movw	r14, r22
    17e8:	8c 01       	movw	r16, r24
    17ea:	e2 2a       	or	r14, r18
    17ec:	f3 2a       	or	r15, r19
    17ee:	04 2b       	or	r16, r20
    17f0:	15 2b       	or	r17, r21
    17f2:	e6 14       	cp	r14, r6
    17f4:	f7 04       	cpc	r15, r7
    17f6:	08 05       	cpc	r16, r8
    17f8:	19 05       	cpc	r17, r9
    17fa:	60 f5       	brcc	.+88     	; 0x1854 <__udivdi3+0x294>
    17fc:	29 96       	adiw	r28, 0x09	; 9
    17fe:	2c ad       	ldd	r18, Y+60	; 0x3c
    1800:	3d ad       	ldd	r19, Y+61	; 0x3d
    1802:	4e ad       	ldd	r20, Y+62	; 0x3e
    1804:	5f ad       	ldd	r21, Y+63	; 0x3f
    1806:	29 97       	sbiw	r28, 0x09	; 9
    1808:	21 50       	subi	r18, 0x01	; 1
    180a:	30 40       	sbci	r19, 0x00	; 0
    180c:	40 40       	sbci	r20, 0x00	; 0
    180e:	50 40       	sbci	r21, 0x00	; 0
    1810:	29 96       	adiw	r28, 0x09	; 9
    1812:	2c af       	std	Y+60, r18	; 0x3c
    1814:	3d af       	std	Y+61, r19	; 0x3d
    1816:	4e af       	std	Y+62, r20	; 0x3e
    1818:	5f af       	std	Y+63, r21	; 0x3f
    181a:	29 97       	sbiw	r28, 0x09	; 9
    181c:	ea 0c       	add	r14, r10
    181e:	fb 1c       	adc	r15, r11
    1820:	0c 1d       	adc	r16, r12
    1822:	1d 1d       	adc	r17, r13
    1824:	ea 14       	cp	r14, r10
    1826:	fb 04       	cpc	r15, r11
    1828:	0c 05       	cpc	r16, r12
    182a:	1d 05       	cpc	r17, r13
    182c:	98 f0       	brcs	.+38     	; 0x1854 <__udivdi3+0x294>
    182e:	e6 14       	cp	r14, r6
    1830:	f7 04       	cpc	r15, r7
    1832:	08 05       	cpc	r16, r8
    1834:	19 05       	cpc	r17, r9
    1836:	70 f4       	brcc	.+28     	; 0x1854 <__udivdi3+0x294>
    1838:	21 50       	subi	r18, 0x01	; 1
    183a:	30 40       	sbci	r19, 0x00	; 0
    183c:	40 40       	sbci	r20, 0x00	; 0
    183e:	50 40       	sbci	r21, 0x00	; 0
    1840:	29 96       	adiw	r28, 0x09	; 9
    1842:	2c af       	std	Y+60, r18	; 0x3c
    1844:	3d af       	std	Y+61, r19	; 0x3d
    1846:	4e af       	std	Y+62, r20	; 0x3e
    1848:	5f af       	std	Y+63, r21	; 0x3f
    184a:	29 97       	sbiw	r28, 0x09	; 9
    184c:	ea 0c       	add	r14, r10
    184e:	fb 1c       	adc	r15, r11
    1850:	0c 1d       	adc	r16, r12
    1852:	1d 1d       	adc	r17, r13
    1854:	e6 18       	sub	r14, r6
    1856:	f7 08       	sbc	r15, r7
    1858:	08 09       	sbc	r16, r8
    185a:	19 09       	sbc	r17, r9
    185c:	c8 01       	movw	r24, r16
    185e:	b7 01       	movw	r22, r14
    1860:	21 96       	adiw	r28, 0x01	; 1
    1862:	2c ad       	ldd	r18, Y+60	; 0x3c
    1864:	3d ad       	ldd	r19, Y+61	; 0x3d
    1866:	4e ad       	ldd	r20, Y+62	; 0x3e
    1868:	5f ad       	ldd	r21, Y+63	; 0x3f
    186a:	21 97       	sbiw	r28, 0x01	; 1
    186c:	0e 94 2c 18 	call	0x3058	; 0x3058 <__udivmodsi4>
    1870:	39 01       	movw	r6, r18
    1872:	4a 01       	movw	r8, r20
    1874:	ca 01       	movw	r24, r20
    1876:	b9 01       	movw	r22, r18
    1878:	25 96       	adiw	r28, 0x05	; 5
    187a:	2c ad       	ldd	r18, Y+60	; 0x3c
    187c:	3d ad       	ldd	r19, Y+61	; 0x3d
    187e:	4e ad       	ldd	r20, Y+62	; 0x3e
    1880:	5f ad       	ldd	r21, Y+63	; 0x3f
    1882:	25 97       	sbiw	r28, 0x05	; 5
    1884:	0e 94 0d 18 	call	0x301a	; 0x301a <__mulsi3>
    1888:	1b 01       	movw	r2, r22
    188a:	2c 01       	movw	r4, r24
    188c:	c8 01       	movw	r24, r16
    188e:	b7 01       	movw	r22, r14
    1890:	21 96       	adiw	r28, 0x01	; 1
    1892:	2c ad       	ldd	r18, Y+60	; 0x3c
    1894:	3d ad       	ldd	r19, Y+61	; 0x3d
    1896:	4e ad       	ldd	r20, Y+62	; 0x3e
    1898:	5f ad       	ldd	r21, Y+63	; 0x3f
    189a:	21 97       	sbiw	r28, 0x01	; 1
    189c:	0e 94 2c 18 	call	0x3058	; 0x3058 <__udivmodsi4>
    18a0:	cb 01       	movw	r24, r22
    18a2:	77 27       	eor	r23, r23
    18a4:	66 27       	eor	r22, r22
    18a6:	29 a9       	ldd	r18, Y+49	; 0x31
    18a8:	3a a9       	ldd	r19, Y+50	; 0x32
    18aa:	4b a9       	ldd	r20, Y+51	; 0x33
    18ac:	5c a9       	ldd	r21, Y+52	; 0x34
    18ae:	40 70       	andi	r20, 0x00	; 0
    18b0:	50 70       	andi	r21, 0x00	; 0
    18b2:	26 2b       	or	r18, r22
    18b4:	37 2b       	or	r19, r23
    18b6:	48 2b       	or	r20, r24
    18b8:	59 2b       	or	r21, r25
    18ba:	22 15       	cp	r18, r2
    18bc:	33 05       	cpc	r19, r3
    18be:	44 05       	cpc	r20, r4
    18c0:	55 05       	cpc	r21, r5
    18c2:	c0 f4       	brcc	.+48     	; 0x18f4 <__udivdi3+0x334>
    18c4:	08 94       	sec
    18c6:	61 08       	sbc	r6, r1
    18c8:	71 08       	sbc	r7, r1
    18ca:	81 08       	sbc	r8, r1
    18cc:	91 08       	sbc	r9, r1
    18ce:	2a 0d       	add	r18, r10
    18d0:	3b 1d       	adc	r19, r11
    18d2:	4c 1d       	adc	r20, r12
    18d4:	5d 1d       	adc	r21, r13
    18d6:	2a 15       	cp	r18, r10
    18d8:	3b 05       	cpc	r19, r11
    18da:	4c 05       	cpc	r20, r12
    18dc:	5d 05       	cpc	r21, r13
    18de:	50 f0       	brcs	.+20     	; 0x18f4 <__udivdi3+0x334>
    18e0:	22 15       	cp	r18, r2
    18e2:	33 05       	cpc	r19, r3
    18e4:	44 05       	cpc	r20, r4
    18e6:	55 05       	cpc	r21, r5
    18e8:	28 f4       	brcc	.+10     	; 0x18f4 <__udivdi3+0x334>
    18ea:	08 94       	sec
    18ec:	61 08       	sbc	r6, r1
    18ee:	71 08       	sbc	r7, r1
    18f0:	81 08       	sbc	r8, r1
    18f2:	91 08       	sbc	r9, r1
    18f4:	29 96       	adiw	r28, 0x09	; 9
    18f6:	ec ac       	ldd	r14, Y+60	; 0x3c
    18f8:	fd ac       	ldd	r15, Y+61	; 0x3d
    18fa:	0e ad       	ldd	r16, Y+62	; 0x3e
    18fc:	1f ad       	ldd	r17, Y+63	; 0x3f
    18fe:	29 97       	sbiw	r28, 0x09	; 9
    1900:	d7 01       	movw	r26, r14
    1902:	99 27       	eor	r25, r25
    1904:	88 27       	eor	r24, r24
    1906:	68 2a       	or	r6, r24
    1908:	79 2a       	or	r7, r25
    190a:	8a 2a       	or	r8, r26
    190c:	9b 2a       	or	r9, r27
    190e:	6d aa       	std	Y+53, r6	; 0x35
    1910:	7e aa       	std	Y+54, r7	; 0x36
    1912:	8f aa       	std	Y+55, r8	; 0x37
    1914:	98 ae       	std	Y+56, r9	; 0x38
    1916:	b2 c4       	rjmp	.+2404   	; 0x227c <__stack+0x7d>
    1918:	a1 14       	cp	r10, r1
    191a:	b1 04       	cpc	r11, r1
    191c:	c1 04       	cpc	r12, r1
    191e:	d1 04       	cpc	r13, r1
    1920:	61 f4       	brne	.+24     	; 0x193a <__udivdi3+0x37a>
    1922:	61 e0       	ldi	r22, 0x01	; 1
    1924:	70 e0       	ldi	r23, 0x00	; 0
    1926:	80 e0       	ldi	r24, 0x00	; 0
    1928:	90 e0       	ldi	r25, 0x00	; 0
    192a:	20 e0       	ldi	r18, 0x00	; 0
    192c:	30 e0       	ldi	r19, 0x00	; 0
    192e:	40 e0       	ldi	r20, 0x00	; 0
    1930:	50 e0       	ldi	r21, 0x00	; 0
    1932:	0e 94 2c 18 	call	0x3058	; 0x3058 <__udivmodsi4>
    1936:	59 01       	movw	r10, r18
    1938:	6a 01       	movw	r12, r20
    193a:	00 e0       	ldi	r16, 0x00	; 0
    193c:	a0 16       	cp	r10, r16
    193e:	00 e0       	ldi	r16, 0x00	; 0
    1940:	b0 06       	cpc	r11, r16
    1942:	01 e0       	ldi	r16, 0x01	; 1
    1944:	c0 06       	cpc	r12, r16
    1946:	00 e0       	ldi	r16, 0x00	; 0
    1948:	d0 06       	cpc	r13, r16
    194a:	88 f4       	brcc	.+34     	; 0x196e <__udivdi3+0x3ae>
    194c:	1f ef       	ldi	r17, 0xFF	; 255
    194e:	a1 16       	cp	r10, r17
    1950:	b1 04       	cpc	r11, r1
    1952:	c1 04       	cpc	r12, r1
    1954:	d1 04       	cpc	r13, r1
    1956:	09 f0       	breq	.+2      	; 0x195a <__udivdi3+0x39a>
    1958:	28 f4       	brcc	.+10     	; 0x1964 <__udivdi3+0x3a4>
    195a:	20 e0       	ldi	r18, 0x00	; 0
    195c:	30 e0       	ldi	r19, 0x00	; 0
    195e:	40 e0       	ldi	r20, 0x00	; 0
    1960:	50 e0       	ldi	r21, 0x00	; 0
    1962:	17 c0       	rjmp	.+46     	; 0x1992 <__udivdi3+0x3d2>
    1964:	28 e0       	ldi	r18, 0x08	; 8
    1966:	30 e0       	ldi	r19, 0x00	; 0
    1968:	40 e0       	ldi	r20, 0x00	; 0
    196a:	50 e0       	ldi	r21, 0x00	; 0
    196c:	12 c0       	rjmp	.+36     	; 0x1992 <__udivdi3+0x3d2>
    196e:	20 e0       	ldi	r18, 0x00	; 0
    1970:	a2 16       	cp	r10, r18
    1972:	20 e0       	ldi	r18, 0x00	; 0
    1974:	b2 06       	cpc	r11, r18
    1976:	20 e0       	ldi	r18, 0x00	; 0
    1978:	c2 06       	cpc	r12, r18
    197a:	21 e0       	ldi	r18, 0x01	; 1
    197c:	d2 06       	cpc	r13, r18
    197e:	28 f4       	brcc	.+10     	; 0x198a <__udivdi3+0x3ca>
    1980:	20 e1       	ldi	r18, 0x10	; 16
    1982:	30 e0       	ldi	r19, 0x00	; 0
    1984:	40 e0       	ldi	r20, 0x00	; 0
    1986:	50 e0       	ldi	r21, 0x00	; 0
    1988:	04 c0       	rjmp	.+8      	; 0x1992 <__udivdi3+0x3d2>
    198a:	28 e1       	ldi	r18, 0x18	; 24
    198c:	30 e0       	ldi	r19, 0x00	; 0
    198e:	40 e0       	ldi	r20, 0x00	; 0
    1990:	50 e0       	ldi	r21, 0x00	; 0
    1992:	f0 e2       	ldi	r31, 0x20	; 32
    1994:	ef 2e       	mov	r14, r31
    1996:	f1 2c       	mov	r15, r1
    1998:	01 2d       	mov	r16, r1
    199a:	11 2d       	mov	r17, r1
    199c:	d8 01       	movw	r26, r16
    199e:	c7 01       	movw	r24, r14
    19a0:	82 1b       	sub	r24, r18
    19a2:	93 0b       	sbc	r25, r19
    19a4:	a4 0b       	sbc	r26, r20
    19a6:	b5 0b       	sbc	r27, r21
    19a8:	35 01       	movw	r6, r10
    19aa:	46 01       	movw	r8, r12
    19ac:	04 c0       	rjmp	.+8      	; 0x19b6 <__udivdi3+0x3f6>
    19ae:	96 94       	lsr	r9
    19b0:	87 94       	ror	r8
    19b2:	77 94       	ror	r7
    19b4:	67 94       	ror	r6
    19b6:	2a 95       	dec	r18
    19b8:	d2 f7       	brpl	.-12     	; 0x19ae <__udivdi3+0x3ee>
    19ba:	a4 01       	movw	r20, r8
    19bc:	93 01       	movw	r18, r6
    19be:	2c 5c       	subi	r18, 0xCC	; 204
    19c0:	3d 4f       	sbci	r19, 0xFD	; 253
    19c2:	f9 01       	movw	r30, r18
    19c4:	20 81       	ld	r18, Z
    19c6:	82 1b       	sub	r24, r18
    19c8:	91 09       	sbc	r25, r1
    19ca:	a1 09       	sbc	r26, r1
    19cc:	b1 09       	sbc	r27, r1
    19ce:	00 97       	sbiw	r24, 0x00	; 0
    19d0:	a1 05       	cpc	r26, r1
    19d2:	b1 05       	cpc	r27, r1
    19d4:	61 f4       	brne	.+24     	; 0x19ee <__udivdi3+0x42e>
    19d6:	82 01       	movw	r16, r4
    19d8:	71 01       	movw	r14, r2
    19da:	ea 18       	sub	r14, r10
    19dc:	fb 08       	sbc	r15, r11
    19de:	0c 09       	sbc	r16, r12
    19e0:	1d 09       	sbc	r17, r13
    19e2:	e1 e0       	ldi	r30, 0x01	; 1
    19e4:	6e 2e       	mov	r6, r30
    19e6:	71 2c       	mov	r7, r1
    19e8:	81 2c       	mov	r8, r1
    19ea:	91 2c       	mov	r9, r1
    19ec:	1a c1       	rjmp	.+564    	; 0x1c22 <__udivdi3+0x662>
    19ee:	98 a3       	std	Y+32, r25	; 0x20
    19f0:	8f 8f       	std	Y+31, r24	; 0x1f
    19f2:	0f 8c       	ldd	r0, Y+31	; 0x1f
    19f4:	04 c0       	rjmp	.+8      	; 0x19fe <__udivdi3+0x43e>
    19f6:	aa 0c       	add	r10, r10
    19f8:	bb 1c       	adc	r11, r11
    19fa:	cc 1c       	adc	r12, r12
    19fc:	dd 1c       	adc	r13, r13
    19fe:	0a 94       	dec	r0
    1a00:	d2 f7       	brpl	.-12     	; 0x19f6 <__udivdi3+0x436>
    1a02:	e8 1a       	sub	r14, r24
    1a04:	f9 0a       	sbc	r15, r25
    1a06:	0a 0b       	sbc	r16, r26
    1a08:	1b 0b       	sbc	r17, r27
    1a0a:	d8 01       	movw	r26, r16
    1a0c:	c7 01       	movw	r24, r14
    1a0e:	82 01       	movw	r16, r4
    1a10:	71 01       	movw	r14, r2
    1a12:	08 2e       	mov	r0, r24
    1a14:	04 c0       	rjmp	.+8      	; 0x1a1e <__udivdi3+0x45e>
    1a16:	16 95       	lsr	r17
    1a18:	07 95       	ror	r16
    1a1a:	f7 94       	ror	r15
    1a1c:	e7 94       	ror	r14
    1a1e:	0a 94       	dec	r0
    1a20:	d2 f7       	brpl	.-12     	; 0x1a16 <__udivdi3+0x456>
    1a22:	29 a9       	ldd	r18, Y+49	; 0x31
    1a24:	3a a9       	ldd	r19, Y+50	; 0x32
    1a26:	4b a9       	ldd	r20, Y+51	; 0x33
    1a28:	5c a9       	ldd	r21, Y+52	; 0x34
    1a2a:	04 c0       	rjmp	.+8      	; 0x1a34 <__udivdi3+0x474>
    1a2c:	56 95       	lsr	r21
    1a2e:	47 95       	ror	r20
    1a30:	37 95       	ror	r19
    1a32:	27 95       	ror	r18
    1a34:	8a 95       	dec	r24
    1a36:	d2 f7       	brpl	.-12     	; 0x1a2c <__udivdi3+0x46c>
    1a38:	d2 01       	movw	r26, r4
    1a3a:	c1 01       	movw	r24, r2
    1a3c:	0f 8c       	ldd	r0, Y+31	; 0x1f
    1a3e:	04 c0       	rjmp	.+8      	; 0x1a48 <__udivdi3+0x488>
    1a40:	88 0f       	add	r24, r24
    1a42:	99 1f       	adc	r25, r25
    1a44:	aa 1f       	adc	r26, r26
    1a46:	bb 1f       	adc	r27, r27
    1a48:	0a 94       	dec	r0
    1a4a:	d2 f7       	brpl	.-12     	; 0x1a40 <__udivdi3+0x480>
    1a4c:	28 2b       	or	r18, r24
    1a4e:	39 2b       	or	r19, r25
    1a50:	4a 2b       	or	r20, r26
    1a52:	5b 2b       	or	r21, r27
    1a54:	2d a7       	std	Y+45, r18	; 0x2d
    1a56:	3e a7       	std	Y+46, r19	; 0x2e
    1a58:	4f a7       	std	Y+47, r20	; 0x2f
    1a5a:	58 ab       	std	Y+48, r21	; 0x30
    1a5c:	96 01       	movw	r18, r12
    1a5e:	44 27       	eor	r20, r20
    1a60:	55 27       	eor	r21, r21
    1a62:	2d 96       	adiw	r28, 0x0d	; 13
    1a64:	2c af       	std	Y+60, r18	; 0x3c
    1a66:	3d af       	std	Y+61, r19	; 0x3d
    1a68:	4e af       	std	Y+62, r20	; 0x3e
    1a6a:	5f af       	std	Y+63, r21	; 0x3f
    1a6c:	2d 97       	sbiw	r28, 0x0d	; 13
    1a6e:	6f ef       	ldi	r22, 0xFF	; 255
    1a70:	26 2e       	mov	r2, r22
    1a72:	6f ef       	ldi	r22, 0xFF	; 255
    1a74:	36 2e       	mov	r3, r22
    1a76:	41 2c       	mov	r4, r1
    1a78:	51 2c       	mov	r5, r1
    1a7a:	2a 20       	and	r2, r10
    1a7c:	3b 20       	and	r3, r11
    1a7e:	4c 20       	and	r4, r12
    1a80:	5d 20       	and	r5, r13
    1a82:	c8 01       	movw	r24, r16
    1a84:	b7 01       	movw	r22, r14
    1a86:	0e 94 2c 18 	call	0x3058	; 0x3058 <__udivmodsi4>
    1a8a:	61 96       	adiw	r28, 0x11	; 17
    1a8c:	2c af       	std	Y+60, r18	; 0x3c
    1a8e:	3d af       	std	Y+61, r19	; 0x3d
    1a90:	4e af       	std	Y+62, r20	; 0x3e
    1a92:	5f af       	std	Y+63, r21	; 0x3f
    1a94:	61 97       	sbiw	r28, 0x11	; 17
    1a96:	ca 01       	movw	r24, r20
    1a98:	b9 01       	movw	r22, r18
    1a9a:	a2 01       	movw	r20, r4
    1a9c:	91 01       	movw	r18, r2
    1a9e:	0e 94 0d 18 	call	0x301a	; 0x301a <__mulsi3>
    1aa2:	3b 01       	movw	r6, r22
    1aa4:	4c 01       	movw	r8, r24
    1aa6:	c8 01       	movw	r24, r16
    1aa8:	b7 01       	movw	r22, r14
    1aaa:	2d 96       	adiw	r28, 0x0d	; 13
    1aac:	2c ad       	ldd	r18, Y+60	; 0x3c
    1aae:	3d ad       	ldd	r19, Y+61	; 0x3d
    1ab0:	4e ad       	ldd	r20, Y+62	; 0x3e
    1ab2:	5f ad       	ldd	r21, Y+63	; 0x3f
    1ab4:	2d 97       	sbiw	r28, 0x0d	; 13
    1ab6:	0e 94 2c 18 	call	0x3058	; 0x3058 <__udivmodsi4>
    1aba:	cb 01       	movw	r24, r22
    1abc:	77 27       	eor	r23, r23
    1abe:	66 27       	eor	r22, r22
    1ac0:	ed a4       	ldd	r14, Y+45	; 0x2d
    1ac2:	fe a4       	ldd	r15, Y+46	; 0x2e
    1ac4:	0f a5       	ldd	r16, Y+47	; 0x2f
    1ac6:	18 a9       	ldd	r17, Y+48	; 0x30
    1ac8:	98 01       	movw	r18, r16
    1aca:	44 27       	eor	r20, r20
    1acc:	55 27       	eor	r21, r21
    1ace:	79 01       	movw	r14, r18
    1ad0:	8a 01       	movw	r16, r20
    1ad2:	e6 2a       	or	r14, r22
    1ad4:	f7 2a       	or	r15, r23
    1ad6:	08 2b       	or	r16, r24
    1ad8:	19 2b       	or	r17, r25
    1ada:	e6 14       	cp	r14, r6
    1adc:	f7 04       	cpc	r15, r7
    1ade:	08 05       	cpc	r16, r8
    1ae0:	19 05       	cpc	r17, r9
    1ae2:	60 f5       	brcc	.+88     	; 0x1b3c <__udivdi3+0x57c>
    1ae4:	61 96       	adiw	r28, 0x11	; 17
    1ae6:	2c ad       	ldd	r18, Y+60	; 0x3c
    1ae8:	3d ad       	ldd	r19, Y+61	; 0x3d
    1aea:	4e ad       	ldd	r20, Y+62	; 0x3e
    1aec:	5f ad       	ldd	r21, Y+63	; 0x3f
    1aee:	61 97       	sbiw	r28, 0x11	; 17
    1af0:	21 50       	subi	r18, 0x01	; 1
    1af2:	30 40       	sbci	r19, 0x00	; 0
    1af4:	40 40       	sbci	r20, 0x00	; 0
    1af6:	50 40       	sbci	r21, 0x00	; 0
    1af8:	61 96       	adiw	r28, 0x11	; 17
    1afa:	2c af       	std	Y+60, r18	; 0x3c
    1afc:	3d af       	std	Y+61, r19	; 0x3d
    1afe:	4e af       	std	Y+62, r20	; 0x3e
    1b00:	5f af       	std	Y+63, r21	; 0x3f
    1b02:	61 97       	sbiw	r28, 0x11	; 17
    1b04:	ea 0c       	add	r14, r10
    1b06:	fb 1c       	adc	r15, r11
    1b08:	0c 1d       	adc	r16, r12
    1b0a:	1d 1d       	adc	r17, r13
    1b0c:	ea 14       	cp	r14, r10
    1b0e:	fb 04       	cpc	r15, r11
    1b10:	0c 05       	cpc	r16, r12
    1b12:	1d 05       	cpc	r17, r13
    1b14:	98 f0       	brcs	.+38     	; 0x1b3c <__udivdi3+0x57c>
    1b16:	e6 14       	cp	r14, r6
    1b18:	f7 04       	cpc	r15, r7
    1b1a:	08 05       	cpc	r16, r8
    1b1c:	19 05       	cpc	r17, r9
    1b1e:	70 f4       	brcc	.+28     	; 0x1b3c <__udivdi3+0x57c>
    1b20:	21 50       	subi	r18, 0x01	; 1
    1b22:	30 40       	sbci	r19, 0x00	; 0
    1b24:	40 40       	sbci	r20, 0x00	; 0
    1b26:	50 40       	sbci	r21, 0x00	; 0
    1b28:	61 96       	adiw	r28, 0x11	; 17
    1b2a:	2c af       	std	Y+60, r18	; 0x3c
    1b2c:	3d af       	std	Y+61, r19	; 0x3d
    1b2e:	4e af       	std	Y+62, r20	; 0x3e
    1b30:	5f af       	std	Y+63, r21	; 0x3f
    1b32:	61 97       	sbiw	r28, 0x11	; 17
    1b34:	ea 0c       	add	r14, r10
    1b36:	fb 1c       	adc	r15, r11
    1b38:	0c 1d       	adc	r16, r12
    1b3a:	1d 1d       	adc	r17, r13
    1b3c:	e6 18       	sub	r14, r6
    1b3e:	f7 08       	sbc	r15, r7
    1b40:	08 09       	sbc	r16, r8
    1b42:	19 09       	sbc	r17, r9
    1b44:	c8 01       	movw	r24, r16
    1b46:	b7 01       	movw	r22, r14
    1b48:	2d 96       	adiw	r28, 0x0d	; 13
    1b4a:	2c ad       	ldd	r18, Y+60	; 0x3c
    1b4c:	3d ad       	ldd	r19, Y+61	; 0x3d
    1b4e:	4e ad       	ldd	r20, Y+62	; 0x3e
    1b50:	5f ad       	ldd	r21, Y+63	; 0x3f
    1b52:	2d 97       	sbiw	r28, 0x0d	; 13
    1b54:	0e 94 2c 18 	call	0x3058	; 0x3058 <__udivmodsi4>
    1b58:	39 01       	movw	r6, r18
    1b5a:	4a 01       	movw	r8, r20
    1b5c:	ca 01       	movw	r24, r20
    1b5e:	b9 01       	movw	r22, r18
    1b60:	a2 01       	movw	r20, r4
    1b62:	91 01       	movw	r18, r2
    1b64:	0e 94 0d 18 	call	0x301a	; 0x301a <__mulsi3>
    1b68:	1b 01       	movw	r2, r22
    1b6a:	2c 01       	movw	r4, r24
    1b6c:	c8 01       	movw	r24, r16
    1b6e:	b7 01       	movw	r22, r14
    1b70:	2d 96       	adiw	r28, 0x0d	; 13
    1b72:	2c ad       	ldd	r18, Y+60	; 0x3c
    1b74:	3d ad       	ldd	r19, Y+61	; 0x3d
    1b76:	4e ad       	ldd	r20, Y+62	; 0x3e
    1b78:	5f ad       	ldd	r21, Y+63	; 0x3f
    1b7a:	2d 97       	sbiw	r28, 0x0d	; 13
    1b7c:	0e 94 2c 18 	call	0x3058	; 0x3058 <__udivmodsi4>
    1b80:	cb 01       	movw	r24, r22
    1b82:	77 27       	eor	r23, r23
    1b84:	66 27       	eor	r22, r22
    1b86:	2d a5       	ldd	r18, Y+45	; 0x2d
    1b88:	3e a5       	ldd	r19, Y+46	; 0x2e
    1b8a:	4f a5       	ldd	r20, Y+47	; 0x2f
    1b8c:	58 a9       	ldd	r21, Y+48	; 0x30
    1b8e:	40 70       	andi	r20, 0x00	; 0
    1b90:	50 70       	andi	r21, 0x00	; 0
    1b92:	7b 01       	movw	r14, r22
    1b94:	8c 01       	movw	r16, r24
    1b96:	e2 2a       	or	r14, r18
    1b98:	f3 2a       	or	r15, r19
    1b9a:	04 2b       	or	r16, r20
    1b9c:	15 2b       	or	r17, r21
    1b9e:	e2 14       	cp	r14, r2
    1ba0:	f3 04       	cpc	r15, r3
    1ba2:	04 05       	cpc	r16, r4
    1ba4:	15 05       	cpc	r17, r5
    1ba6:	e0 f4       	brcc	.+56     	; 0x1be0 <__udivdi3+0x620>
    1ba8:	08 94       	sec
    1baa:	61 08       	sbc	r6, r1
    1bac:	71 08       	sbc	r7, r1
    1bae:	81 08       	sbc	r8, r1
    1bb0:	91 08       	sbc	r9, r1
    1bb2:	ea 0c       	add	r14, r10
    1bb4:	fb 1c       	adc	r15, r11
    1bb6:	0c 1d       	adc	r16, r12
    1bb8:	1d 1d       	adc	r17, r13
    1bba:	ea 14       	cp	r14, r10
    1bbc:	fb 04       	cpc	r15, r11
    1bbe:	0c 05       	cpc	r16, r12
    1bc0:	1d 05       	cpc	r17, r13
    1bc2:	70 f0       	brcs	.+28     	; 0x1be0 <__udivdi3+0x620>
    1bc4:	e2 14       	cp	r14, r2
    1bc6:	f3 04       	cpc	r15, r3
    1bc8:	04 05       	cpc	r16, r4
    1bca:	15 05       	cpc	r17, r5
    1bcc:	48 f4       	brcc	.+18     	; 0x1be0 <__udivdi3+0x620>
    1bce:	08 94       	sec
    1bd0:	61 08       	sbc	r6, r1
    1bd2:	71 08       	sbc	r7, r1
    1bd4:	81 08       	sbc	r8, r1
    1bd6:	91 08       	sbc	r9, r1
    1bd8:	ea 0c       	add	r14, r10
    1bda:	fb 1c       	adc	r15, r11
    1bdc:	0c 1d       	adc	r16, r12
    1bde:	1d 1d       	adc	r17, r13
    1be0:	89 a9       	ldd	r24, Y+49	; 0x31
    1be2:	9a a9       	ldd	r25, Y+50	; 0x32
    1be4:	ab a9       	ldd	r26, Y+51	; 0x33
    1be6:	bc a9       	ldd	r27, Y+52	; 0x34
    1be8:	0f 8c       	ldd	r0, Y+31	; 0x1f
    1bea:	04 c0       	rjmp	.+8      	; 0x1bf4 <__udivdi3+0x634>
    1bec:	88 0f       	add	r24, r24
    1bee:	99 1f       	adc	r25, r25
    1bf0:	aa 1f       	adc	r26, r26
    1bf2:	bb 1f       	adc	r27, r27
    1bf4:	0a 94       	dec	r0
    1bf6:	d2 f7       	brpl	.-12     	; 0x1bec <__udivdi3+0x62c>
    1bf8:	89 ab       	std	Y+49, r24	; 0x31
    1bfa:	9a ab       	std	Y+50, r25	; 0x32
    1bfc:	ab ab       	std	Y+51, r26	; 0x33
    1bfe:	bc ab       	std	Y+52, r27	; 0x34
    1c00:	e2 18       	sub	r14, r2
    1c02:	f3 08       	sbc	r15, r3
    1c04:	04 09       	sbc	r16, r4
    1c06:	15 09       	sbc	r17, r5
    1c08:	61 96       	adiw	r28, 0x11	; 17
    1c0a:	2c ad       	ldd	r18, Y+60	; 0x3c
    1c0c:	3d ad       	ldd	r19, Y+61	; 0x3d
    1c0e:	4e ad       	ldd	r20, Y+62	; 0x3e
    1c10:	5f ad       	ldd	r21, Y+63	; 0x3f
    1c12:	61 97       	sbiw	r28, 0x11	; 17
    1c14:	d9 01       	movw	r26, r18
    1c16:	99 27       	eor	r25, r25
    1c18:	88 27       	eor	r24, r24
    1c1a:	68 2a       	or	r6, r24
    1c1c:	79 2a       	or	r7, r25
    1c1e:	8a 2a       	or	r8, r26
    1c20:	9b 2a       	or	r9, r27
    1c22:	69 ae       	std	Y+57, r6	; 0x39
    1c24:	7a ae       	std	Y+58, r7	; 0x3a
    1c26:	8b ae       	std	Y+59, r8	; 0x3b
    1c28:	9c ae       	std	Y+60, r9	; 0x3c
    1c2a:	c6 01       	movw	r24, r12
    1c2c:	aa 27       	eor	r26, r26
    1c2e:	bb 27       	eor	r27, r27
    1c30:	65 96       	adiw	r28, 0x15	; 21
    1c32:	8c af       	std	Y+60, r24	; 0x3c
    1c34:	9d af       	std	Y+61, r25	; 0x3d
    1c36:	ae af       	std	Y+62, r26	; 0x3e
    1c38:	bf af       	std	Y+63, r27	; 0x3f
    1c3a:	65 97       	sbiw	r28, 0x15	; 21
    1c3c:	a6 01       	movw	r20, r12
    1c3e:	95 01       	movw	r18, r10
    1c40:	40 70       	andi	r20, 0x00	; 0
    1c42:	50 70       	andi	r21, 0x00	; 0
    1c44:	69 96       	adiw	r28, 0x19	; 25
    1c46:	2c af       	std	Y+60, r18	; 0x3c
    1c48:	3d af       	std	Y+61, r19	; 0x3d
    1c4a:	4e af       	std	Y+62, r20	; 0x3e
    1c4c:	5f af       	std	Y+63, r21	; 0x3f
    1c4e:	69 97       	sbiw	r28, 0x19	; 25
    1c50:	c8 01       	movw	r24, r16
    1c52:	b7 01       	movw	r22, r14
    1c54:	65 96       	adiw	r28, 0x15	; 21
    1c56:	2c ad       	ldd	r18, Y+60	; 0x3c
    1c58:	3d ad       	ldd	r19, Y+61	; 0x3d
    1c5a:	4e ad       	ldd	r20, Y+62	; 0x3e
    1c5c:	5f ad       	ldd	r21, Y+63	; 0x3f
    1c5e:	65 97       	sbiw	r28, 0x15	; 21
    1c60:	0e 94 2c 18 	call	0x3058	; 0x3058 <__udivmodsi4>
    1c64:	19 01       	movw	r2, r18
    1c66:	2a 01       	movw	r4, r20
    1c68:	ca 01       	movw	r24, r20
    1c6a:	b9 01       	movw	r22, r18
    1c6c:	69 96       	adiw	r28, 0x19	; 25
    1c6e:	2c ad       	ldd	r18, Y+60	; 0x3c
    1c70:	3d ad       	ldd	r19, Y+61	; 0x3d
    1c72:	4e ad       	ldd	r20, Y+62	; 0x3e
    1c74:	5f ad       	ldd	r21, Y+63	; 0x3f
    1c76:	69 97       	sbiw	r28, 0x19	; 25
    1c78:	0e 94 0d 18 	call	0x301a	; 0x301a <__mulsi3>
    1c7c:	3b 01       	movw	r6, r22
    1c7e:	4c 01       	movw	r8, r24
    1c80:	c8 01       	movw	r24, r16
    1c82:	b7 01       	movw	r22, r14
    1c84:	65 96       	adiw	r28, 0x15	; 21
    1c86:	2c ad       	ldd	r18, Y+60	; 0x3c
    1c88:	3d ad       	ldd	r19, Y+61	; 0x3d
    1c8a:	4e ad       	ldd	r20, Y+62	; 0x3e
    1c8c:	5f ad       	ldd	r21, Y+63	; 0x3f
    1c8e:	65 97       	sbiw	r28, 0x15	; 21
    1c90:	0e 94 2c 18 	call	0x3058	; 0x3058 <__udivmodsi4>
    1c94:	cb 01       	movw	r24, r22
    1c96:	77 27       	eor	r23, r23
    1c98:	66 27       	eor	r22, r22
    1c9a:	e9 a8       	ldd	r14, Y+49	; 0x31
    1c9c:	fa a8       	ldd	r15, Y+50	; 0x32
    1c9e:	0b a9       	ldd	r16, Y+51	; 0x33
    1ca0:	1c a9       	ldd	r17, Y+52	; 0x34
    1ca2:	98 01       	movw	r18, r16
    1ca4:	44 27       	eor	r20, r20
    1ca6:	55 27       	eor	r21, r21
    1ca8:	7b 01       	movw	r14, r22
    1caa:	8c 01       	movw	r16, r24
    1cac:	e2 2a       	or	r14, r18
    1cae:	f3 2a       	or	r15, r19
    1cb0:	04 2b       	or	r16, r20
    1cb2:	15 2b       	or	r17, r21
    1cb4:	e6 14       	cp	r14, r6
    1cb6:	f7 04       	cpc	r15, r7
    1cb8:	08 05       	cpc	r16, r8
    1cba:	19 05       	cpc	r17, r9
    1cbc:	e0 f4       	brcc	.+56     	; 0x1cf6 <__udivdi3+0x736>
    1cbe:	08 94       	sec
    1cc0:	21 08       	sbc	r2, r1
    1cc2:	31 08       	sbc	r3, r1
    1cc4:	41 08       	sbc	r4, r1
    1cc6:	51 08       	sbc	r5, r1
    1cc8:	ea 0c       	add	r14, r10
    1cca:	fb 1c       	adc	r15, r11
    1ccc:	0c 1d       	adc	r16, r12
    1cce:	1d 1d       	adc	r17, r13
    1cd0:	ea 14       	cp	r14, r10
    1cd2:	fb 04       	cpc	r15, r11
    1cd4:	0c 05       	cpc	r16, r12
    1cd6:	1d 05       	cpc	r17, r13
    1cd8:	70 f0       	brcs	.+28     	; 0x1cf6 <__udivdi3+0x736>
    1cda:	e6 14       	cp	r14, r6
    1cdc:	f7 04       	cpc	r15, r7
    1cde:	08 05       	cpc	r16, r8
    1ce0:	19 05       	cpc	r17, r9
    1ce2:	48 f4       	brcc	.+18     	; 0x1cf6 <__udivdi3+0x736>
    1ce4:	08 94       	sec
    1ce6:	21 08       	sbc	r2, r1
    1ce8:	31 08       	sbc	r3, r1
    1cea:	41 08       	sbc	r4, r1
    1cec:	51 08       	sbc	r5, r1
    1cee:	ea 0c       	add	r14, r10
    1cf0:	fb 1c       	adc	r15, r11
    1cf2:	0c 1d       	adc	r16, r12
    1cf4:	1d 1d       	adc	r17, r13
    1cf6:	e6 18       	sub	r14, r6
    1cf8:	f7 08       	sbc	r15, r7
    1cfa:	08 09       	sbc	r16, r8
    1cfc:	19 09       	sbc	r17, r9
    1cfe:	c8 01       	movw	r24, r16
    1d00:	b7 01       	movw	r22, r14
    1d02:	65 96       	adiw	r28, 0x15	; 21
    1d04:	2c ad       	ldd	r18, Y+60	; 0x3c
    1d06:	3d ad       	ldd	r19, Y+61	; 0x3d
    1d08:	4e ad       	ldd	r20, Y+62	; 0x3e
    1d0a:	5f ad       	ldd	r21, Y+63	; 0x3f
    1d0c:	65 97       	sbiw	r28, 0x15	; 21
    1d0e:	0e 94 2c 18 	call	0x3058	; 0x3058 <__udivmodsi4>
    1d12:	39 01       	movw	r6, r18
    1d14:	4a 01       	movw	r8, r20
    1d16:	ca 01       	movw	r24, r20
    1d18:	b9 01       	movw	r22, r18
    1d1a:	69 96       	adiw	r28, 0x19	; 25
    1d1c:	2c ad       	ldd	r18, Y+60	; 0x3c
    1d1e:	3d ad       	ldd	r19, Y+61	; 0x3d
    1d20:	4e ad       	ldd	r20, Y+62	; 0x3e
    1d22:	5f ad       	ldd	r21, Y+63	; 0x3f
    1d24:	69 97       	sbiw	r28, 0x19	; 25
    1d26:	0e 94 0d 18 	call	0x301a	; 0x301a <__mulsi3>
    1d2a:	69 8f       	std	Y+25, r22	; 0x19
    1d2c:	7a 8f       	std	Y+26, r23	; 0x1a
    1d2e:	8b 8f       	std	Y+27, r24	; 0x1b
    1d30:	9c 8f       	std	Y+28, r25	; 0x1c
    1d32:	c8 01       	movw	r24, r16
    1d34:	b7 01       	movw	r22, r14
    1d36:	65 96       	adiw	r28, 0x15	; 21
    1d38:	2c ad       	ldd	r18, Y+60	; 0x3c
    1d3a:	3d ad       	ldd	r19, Y+61	; 0x3d
    1d3c:	4e ad       	ldd	r20, Y+62	; 0x3e
    1d3e:	5f ad       	ldd	r21, Y+63	; 0x3f
    1d40:	65 97       	sbiw	r28, 0x15	; 21
    1d42:	0e 94 2c 18 	call	0x3058	; 0x3058 <__udivmodsi4>
    1d46:	cb 01       	movw	r24, r22
    1d48:	77 27       	eor	r23, r23
    1d4a:	66 27       	eor	r22, r22
    1d4c:	29 a9       	ldd	r18, Y+49	; 0x31
    1d4e:	3a a9       	ldd	r19, Y+50	; 0x32
    1d50:	4b a9       	ldd	r20, Y+51	; 0x33
    1d52:	5c a9       	ldd	r21, Y+52	; 0x34
    1d54:	40 70       	andi	r20, 0x00	; 0
    1d56:	50 70       	andi	r21, 0x00	; 0
    1d58:	26 2b       	or	r18, r22
    1d5a:	37 2b       	or	r19, r23
    1d5c:	48 2b       	or	r20, r24
    1d5e:	59 2b       	or	r21, r25
    1d60:	89 8d       	ldd	r24, Y+25	; 0x19
    1d62:	9a 8d       	ldd	r25, Y+26	; 0x1a
    1d64:	ab 8d       	ldd	r26, Y+27	; 0x1b
    1d66:	bc 8d       	ldd	r27, Y+28	; 0x1c
    1d68:	28 17       	cp	r18, r24
    1d6a:	39 07       	cpc	r19, r25
    1d6c:	4a 07       	cpc	r20, r26
    1d6e:	5b 07       	cpc	r21, r27
    1d70:	c0 f4       	brcc	.+48     	; 0x1da2 <__udivdi3+0x7e2>
    1d72:	08 94       	sec
    1d74:	61 08       	sbc	r6, r1
    1d76:	71 08       	sbc	r7, r1
    1d78:	81 08       	sbc	r8, r1
    1d7a:	91 08       	sbc	r9, r1
    1d7c:	2a 0d       	add	r18, r10
    1d7e:	3b 1d       	adc	r19, r11
    1d80:	4c 1d       	adc	r20, r12
    1d82:	5d 1d       	adc	r21, r13
    1d84:	2a 15       	cp	r18, r10
    1d86:	3b 05       	cpc	r19, r11
    1d88:	4c 05       	cpc	r20, r12
    1d8a:	5d 05       	cpc	r21, r13
    1d8c:	50 f0       	brcs	.+20     	; 0x1da2 <__udivdi3+0x7e2>
    1d8e:	28 17       	cp	r18, r24
    1d90:	39 07       	cpc	r19, r25
    1d92:	4a 07       	cpc	r20, r26
    1d94:	5b 07       	cpc	r21, r27
    1d96:	28 f4       	brcc	.+10     	; 0x1da2 <__udivdi3+0x7e2>
    1d98:	08 94       	sec
    1d9a:	61 08       	sbc	r6, r1
    1d9c:	71 08       	sbc	r7, r1
    1d9e:	81 08       	sbc	r8, r1
    1da0:	91 08       	sbc	r9, r1
    1da2:	d1 01       	movw	r26, r2
    1da4:	99 27       	eor	r25, r25
    1da6:	88 27       	eor	r24, r24
    1da8:	68 2a       	or	r6, r24
    1daa:	79 2a       	or	r7, r25
    1dac:	8a 2a       	or	r8, r26
    1dae:	9b 2a       	or	r9, r27
    1db0:	6d aa       	std	Y+53, r6	; 0x35
    1db2:	7e aa       	std	Y+54, r7	; 0x36
    1db4:	8f aa       	std	Y+55, r8	; 0x37
    1db6:	98 ae       	std	Y+56, r9	; 0x38
    1db8:	65 c2       	rjmp	.+1226   	; 0x2284 <__stack+0x85>
    1dba:	26 14       	cp	r2, r6
    1dbc:	37 04       	cpc	r3, r7
    1dbe:	48 04       	cpc	r4, r8
    1dc0:	59 04       	cpc	r5, r9
    1dc2:	08 f4       	brcc	.+2      	; 0x1dc6 <__udivdi3+0x806>
    1dc4:	4e c2       	rjmp	.+1180   	; 0x2262 <__stack+0x63>
    1dc6:	90 e0       	ldi	r25, 0x00	; 0
    1dc8:	69 16       	cp	r6, r25
    1dca:	90 e0       	ldi	r25, 0x00	; 0
    1dcc:	79 06       	cpc	r7, r25
    1dce:	91 e0       	ldi	r25, 0x01	; 1
    1dd0:	89 06       	cpc	r8, r25
    1dd2:	90 e0       	ldi	r25, 0x00	; 0
    1dd4:	99 06       	cpc	r9, r25
    1dd6:	88 f4       	brcc	.+34     	; 0x1dfa <__udivdi3+0x83a>
    1dd8:	af ef       	ldi	r26, 0xFF	; 255
    1dda:	6a 16       	cp	r6, r26
    1ddc:	71 04       	cpc	r7, r1
    1dde:	81 04       	cpc	r8, r1
    1de0:	91 04       	cpc	r9, r1
    1de2:	09 f0       	breq	.+2      	; 0x1de6 <__udivdi3+0x826>
    1de4:	28 f4       	brcc	.+10     	; 0x1df0 <__udivdi3+0x830>
    1de6:	20 e0       	ldi	r18, 0x00	; 0
    1de8:	30 e0       	ldi	r19, 0x00	; 0
    1dea:	40 e0       	ldi	r20, 0x00	; 0
    1dec:	50 e0       	ldi	r21, 0x00	; 0
    1dee:	17 c0       	rjmp	.+46     	; 0x1e1e <__udivdi3+0x85e>
    1df0:	28 e0       	ldi	r18, 0x08	; 8
    1df2:	30 e0       	ldi	r19, 0x00	; 0
    1df4:	40 e0       	ldi	r20, 0x00	; 0
    1df6:	50 e0       	ldi	r21, 0x00	; 0
    1df8:	12 c0       	rjmp	.+36     	; 0x1e1e <__udivdi3+0x85e>
    1dfa:	b0 e0       	ldi	r27, 0x00	; 0
    1dfc:	6b 16       	cp	r6, r27
    1dfe:	b0 e0       	ldi	r27, 0x00	; 0
    1e00:	7b 06       	cpc	r7, r27
    1e02:	b0 e0       	ldi	r27, 0x00	; 0
    1e04:	8b 06       	cpc	r8, r27
    1e06:	b1 e0       	ldi	r27, 0x01	; 1
    1e08:	9b 06       	cpc	r9, r27
    1e0a:	28 f4       	brcc	.+10     	; 0x1e16 <__udivdi3+0x856>
    1e0c:	20 e1       	ldi	r18, 0x10	; 16
    1e0e:	30 e0       	ldi	r19, 0x00	; 0
    1e10:	40 e0       	ldi	r20, 0x00	; 0
    1e12:	50 e0       	ldi	r21, 0x00	; 0
    1e14:	04 c0       	rjmp	.+8      	; 0x1e1e <__udivdi3+0x85e>
    1e16:	28 e1       	ldi	r18, 0x18	; 24
    1e18:	30 e0       	ldi	r19, 0x00	; 0
    1e1a:	40 e0       	ldi	r20, 0x00	; 0
    1e1c:	50 e0       	ldi	r21, 0x00	; 0
    1e1e:	e0 e2       	ldi	r30, 0x20	; 32
    1e20:	ee 2e       	mov	r14, r30
    1e22:	f1 2c       	mov	r15, r1
    1e24:	01 2d       	mov	r16, r1
    1e26:	11 2d       	mov	r17, r1
    1e28:	d8 01       	movw	r26, r16
    1e2a:	c7 01       	movw	r24, r14
    1e2c:	82 1b       	sub	r24, r18
    1e2e:	93 0b       	sbc	r25, r19
    1e30:	a4 0b       	sbc	r26, r20
    1e32:	b5 0b       	sbc	r27, r21
    1e34:	ad 96       	adiw	r28, 0x2d	; 45
    1e36:	8c af       	std	Y+60, r24	; 0x3c
    1e38:	9d af       	std	Y+61, r25	; 0x3d
    1e3a:	ae af       	std	Y+62, r26	; 0x3e
    1e3c:	bf af       	std	Y+63, r27	; 0x3f
    1e3e:	ad 97       	sbiw	r28, 0x2d	; 45
    1e40:	d4 01       	movw	r26, r8
    1e42:	c3 01       	movw	r24, r6
    1e44:	04 c0       	rjmp	.+8      	; 0x1e4e <__udivdi3+0x88e>
    1e46:	b6 95       	lsr	r27
    1e48:	a7 95       	ror	r26
    1e4a:	97 95       	ror	r25
    1e4c:	87 95       	ror	r24
    1e4e:	2a 95       	dec	r18
    1e50:	d2 f7       	brpl	.-12     	; 0x1e46 <__udivdi3+0x886>
    1e52:	9c 01       	movw	r18, r24
    1e54:	ad 01       	movw	r20, r26
    1e56:	2c 5c       	subi	r18, 0xCC	; 204
    1e58:	3d 4f       	sbci	r19, 0xFD	; 253
    1e5a:	d9 01       	movw	r26, r18
    1e5c:	2c 91       	ld	r18, X
    1e5e:	ad 96       	adiw	r28, 0x2d	; 45
    1e60:	8c ad       	ldd	r24, Y+60	; 0x3c
    1e62:	9d ad       	ldd	r25, Y+61	; 0x3d
    1e64:	ae ad       	ldd	r26, Y+62	; 0x3e
    1e66:	bf ad       	ldd	r27, Y+63	; 0x3f
    1e68:	ad 97       	sbiw	r28, 0x2d	; 45
    1e6a:	82 1b       	sub	r24, r18
    1e6c:	91 09       	sbc	r25, r1
    1e6e:	a1 09       	sbc	r26, r1
    1e70:	b1 09       	sbc	r27, r1
    1e72:	00 97       	sbiw	r24, 0x00	; 0
    1e74:	a1 05       	cpc	r26, r1
    1e76:	b1 05       	cpc	r27, r1
    1e78:	89 f4       	brne	.+34     	; 0x1e9c <__udivdi3+0x8dc>
    1e7a:	62 14       	cp	r6, r2
    1e7c:	73 04       	cpc	r7, r3
    1e7e:	84 04       	cpc	r8, r4
    1e80:	95 04       	cpc	r9, r5
    1e82:	08 f4       	brcc	.+2      	; 0x1e86 <__udivdi3+0x8c6>
    1e84:	f3 c1       	rjmp	.+998    	; 0x226c <__stack+0x6d>
    1e86:	69 a8       	ldd	r6, Y+49	; 0x31
    1e88:	7a a8       	ldd	r7, Y+50	; 0x32
    1e8a:	8b a8       	ldd	r8, Y+51	; 0x33
    1e8c:	9c a8       	ldd	r9, Y+52	; 0x34
    1e8e:	6a 14       	cp	r6, r10
    1e90:	7b 04       	cpc	r7, r11
    1e92:	8c 04       	cpc	r8, r12
    1e94:	9d 04       	cpc	r9, r13
    1e96:	08 f0       	brcs	.+2      	; 0x1e9a <__udivdi3+0x8da>
    1e98:	e9 c1       	rjmp	.+978    	; 0x226c <__stack+0x6d>
    1e9a:	e3 c1       	rjmp	.+966    	; 0x2262 <__stack+0x63>
    1e9c:	9e 8f       	std	Y+30, r25	; 0x1e
    1e9e:	8d 8f       	std	Y+29, r24	; 0x1d
    1ea0:	e8 1a       	sub	r14, r24
    1ea2:	f9 0a       	sbc	r15, r25
    1ea4:	0a 0b       	sbc	r16, r26
    1ea6:	1b 0b       	sbc	r17, r27
    1ea8:	a8 01       	movw	r20, r16
    1eaa:	97 01       	movw	r18, r14
    1eac:	86 01       	movw	r16, r12
    1eae:	75 01       	movw	r14, r10
    1eb0:	02 2e       	mov	r0, r18
    1eb2:	04 c0       	rjmp	.+8      	; 0x1ebc <__udivdi3+0x8fc>
    1eb4:	16 95       	lsr	r17
    1eb6:	07 95       	ror	r16
    1eb8:	f7 94       	ror	r15
    1eba:	e7 94       	ror	r14
    1ebc:	0a 94       	dec	r0
    1ebe:	d2 f7       	brpl	.-12     	; 0x1eb4 <__udivdi3+0x8f4>
    1ec0:	d4 01       	movw	r26, r8
    1ec2:	c3 01       	movw	r24, r6
    1ec4:	0d 8c       	ldd	r0, Y+29	; 0x1d
    1ec6:	04 c0       	rjmp	.+8      	; 0x1ed0 <__udivdi3+0x910>
    1ec8:	88 0f       	add	r24, r24
    1eca:	99 1f       	adc	r25, r25
    1ecc:	aa 1f       	adc	r26, r26
    1ece:	bb 1f       	adc	r27, r27
    1ed0:	0a 94       	dec	r0
    1ed2:	d2 f7       	brpl	.-12     	; 0x1ec8 <__udivdi3+0x908>
    1ed4:	37 01       	movw	r6, r14
    1ed6:	48 01       	movw	r8, r16
    1ed8:	68 2a       	or	r6, r24
    1eda:	79 2a       	or	r7, r25
    1edc:	8a 2a       	or	r8, r26
    1ede:	9b 2a       	or	r9, r27
    1ee0:	0d 8c       	ldd	r0, Y+29	; 0x1d
    1ee2:	04 c0       	rjmp	.+8      	; 0x1eec <__udivdi3+0x92c>
    1ee4:	aa 0c       	add	r10, r10
    1ee6:	bb 1c       	adc	r11, r11
    1ee8:	cc 1c       	adc	r12, r12
    1eea:	dd 1c       	adc	r13, r13
    1eec:	0a 94       	dec	r0
    1eee:	d2 f7       	brpl	.-12     	; 0x1ee4 <__udivdi3+0x924>
    1ef0:	a9 a2       	std	Y+33, r10	; 0x21
    1ef2:	ba a2       	std	Y+34, r11	; 0x22
    1ef4:	cb a2       	std	Y+35, r12	; 0x23
    1ef6:	dc a2       	std	Y+36, r13	; 0x24
    1ef8:	82 01       	movw	r16, r4
    1efa:	71 01       	movw	r14, r2
    1efc:	02 2e       	mov	r0, r18
    1efe:	04 c0       	rjmp	.+8      	; 0x1f08 <__udivdi3+0x948>
    1f00:	16 95       	lsr	r17
    1f02:	07 95       	ror	r16
    1f04:	f7 94       	ror	r15
    1f06:	e7 94       	ror	r14
    1f08:	0a 94       	dec	r0
    1f0a:	d2 f7       	brpl	.-12     	; 0x1f00 <__udivdi3+0x940>
    1f0c:	89 a9       	ldd	r24, Y+49	; 0x31
    1f0e:	9a a9       	ldd	r25, Y+50	; 0x32
    1f10:	ab a9       	ldd	r26, Y+51	; 0x33
    1f12:	bc a9       	ldd	r27, Y+52	; 0x34
    1f14:	04 c0       	rjmp	.+8      	; 0x1f1e <__udivdi3+0x95e>
    1f16:	b6 95       	lsr	r27
    1f18:	a7 95       	ror	r26
    1f1a:	97 95       	ror	r25
    1f1c:	87 95       	ror	r24
    1f1e:	2a 95       	dec	r18
    1f20:	d2 f7       	brpl	.-12     	; 0x1f16 <__udivdi3+0x956>
    1f22:	9c 01       	movw	r18, r24
    1f24:	ad 01       	movw	r20, r26
    1f26:	d2 01       	movw	r26, r4
    1f28:	c1 01       	movw	r24, r2
    1f2a:	0d 8c       	ldd	r0, Y+29	; 0x1d
    1f2c:	04 c0       	rjmp	.+8      	; 0x1f36 <__udivdi3+0x976>
    1f2e:	88 0f       	add	r24, r24
    1f30:	99 1f       	adc	r25, r25
    1f32:	aa 1f       	adc	r26, r26
    1f34:	bb 1f       	adc	r27, r27
    1f36:	0a 94       	dec	r0
    1f38:	d2 f7       	brpl	.-12     	; 0x1f2e <__udivdi3+0x96e>
    1f3a:	28 2b       	or	r18, r24
    1f3c:	39 2b       	or	r19, r25
    1f3e:	4a 2b       	or	r20, r26
    1f40:	5b 2b       	or	r21, r27
    1f42:	29 a7       	std	Y+41, r18	; 0x29
    1f44:	3a a7       	std	Y+42, r19	; 0x2a
    1f46:	4b a7       	std	Y+43, r20	; 0x2b
    1f48:	5c a7       	std	Y+44, r21	; 0x2c
    1f4a:	94 01       	movw	r18, r8
    1f4c:	44 27       	eor	r20, r20
    1f4e:	55 27       	eor	r21, r21
    1f50:	6d 96       	adiw	r28, 0x1d	; 29
    1f52:	2c af       	std	Y+60, r18	; 0x3c
    1f54:	3d af       	std	Y+61, r19	; 0x3d
    1f56:	4e af       	std	Y+62, r20	; 0x3e
    1f58:	5f af       	std	Y+63, r21	; 0x3f
    1f5a:	6d 97       	sbiw	r28, 0x1d	; 29
    1f5c:	6f ef       	ldi	r22, 0xFF	; 255
    1f5e:	26 2e       	mov	r2, r22
    1f60:	6f ef       	ldi	r22, 0xFF	; 255
    1f62:	36 2e       	mov	r3, r22
    1f64:	41 2c       	mov	r4, r1
    1f66:	51 2c       	mov	r5, r1
    1f68:	26 20       	and	r2, r6
    1f6a:	37 20       	and	r3, r7
    1f6c:	48 20       	and	r4, r8
    1f6e:	59 20       	and	r5, r9
    1f70:	c8 01       	movw	r24, r16
    1f72:	b7 01       	movw	r22, r14
    1f74:	0e 94 2c 18 	call	0x3058	; 0x3058 <__udivmodsi4>
    1f78:	a1 96       	adiw	r28, 0x21	; 33
    1f7a:	2c af       	std	Y+60, r18	; 0x3c
    1f7c:	3d af       	std	Y+61, r19	; 0x3d
    1f7e:	4e af       	std	Y+62, r20	; 0x3e
    1f80:	5f af       	std	Y+63, r21	; 0x3f
    1f82:	a1 97       	sbiw	r28, 0x21	; 33
    1f84:	ca 01       	movw	r24, r20
    1f86:	b9 01       	movw	r22, r18
    1f88:	a2 01       	movw	r20, r4
    1f8a:	91 01       	movw	r18, r2
    1f8c:	0e 94 0d 18 	call	0x301a	; 0x301a <__mulsi3>
    1f90:	5b 01       	movw	r10, r22
    1f92:	6c 01       	movw	r12, r24
    1f94:	c8 01       	movw	r24, r16
    1f96:	b7 01       	movw	r22, r14
    1f98:	6d 96       	adiw	r28, 0x1d	; 29
    1f9a:	2c ad       	ldd	r18, Y+60	; 0x3c
    1f9c:	3d ad       	ldd	r19, Y+61	; 0x3d
    1f9e:	4e ad       	ldd	r20, Y+62	; 0x3e
    1fa0:	5f ad       	ldd	r21, Y+63	; 0x3f
    1fa2:	6d 97       	sbiw	r28, 0x1d	; 29
    1fa4:	0e 94 2c 18 	call	0x3058	; 0x3058 <__udivmodsi4>
    1fa8:	cb 01       	movw	r24, r22
    1faa:	77 27       	eor	r23, r23
    1fac:	66 27       	eor	r22, r22
    1fae:	e9 a4       	ldd	r14, Y+41	; 0x29
    1fb0:	fa a4       	ldd	r15, Y+42	; 0x2a
    1fb2:	0b a5       	ldd	r16, Y+43	; 0x2b
    1fb4:	1c a5       	ldd	r17, Y+44	; 0x2c
    1fb6:	98 01       	movw	r18, r16
    1fb8:	44 27       	eor	r20, r20
    1fba:	55 27       	eor	r21, r21
    1fbc:	7b 01       	movw	r14, r22
    1fbe:	8c 01       	movw	r16, r24
    1fc0:	e2 2a       	or	r14, r18
    1fc2:	f3 2a       	or	r15, r19
    1fc4:	04 2b       	or	r16, r20
    1fc6:	15 2b       	or	r17, r21
    1fc8:	ea 14       	cp	r14, r10
    1fca:	fb 04       	cpc	r15, r11
    1fcc:	0c 05       	cpc	r16, r12
    1fce:	1d 05       	cpc	r17, r13
    1fd0:	60 f5       	brcc	.+88     	; 0x202a <__udivdi3+0xa6a>
    1fd2:	a1 96       	adiw	r28, 0x21	; 33
    1fd4:	2c ad       	ldd	r18, Y+60	; 0x3c
    1fd6:	3d ad       	ldd	r19, Y+61	; 0x3d
    1fd8:	4e ad       	ldd	r20, Y+62	; 0x3e
    1fda:	5f ad       	ldd	r21, Y+63	; 0x3f
    1fdc:	a1 97       	sbiw	r28, 0x21	; 33
    1fde:	21 50       	subi	r18, 0x01	; 1
    1fe0:	30 40       	sbci	r19, 0x00	; 0
    1fe2:	40 40       	sbci	r20, 0x00	; 0
    1fe4:	50 40       	sbci	r21, 0x00	; 0
    1fe6:	a1 96       	adiw	r28, 0x21	; 33
    1fe8:	2c af       	std	Y+60, r18	; 0x3c
    1fea:	3d af       	std	Y+61, r19	; 0x3d
    1fec:	4e af       	std	Y+62, r20	; 0x3e
    1fee:	5f af       	std	Y+63, r21	; 0x3f
    1ff0:	a1 97       	sbiw	r28, 0x21	; 33
    1ff2:	e6 0c       	add	r14, r6
    1ff4:	f7 1c       	adc	r15, r7
    1ff6:	08 1d       	adc	r16, r8
    1ff8:	19 1d       	adc	r17, r9
    1ffa:	e6 14       	cp	r14, r6
    1ffc:	f7 04       	cpc	r15, r7
    1ffe:	08 05       	cpc	r16, r8
    2000:	19 05       	cpc	r17, r9
    2002:	98 f0       	brcs	.+38     	; 0x202a <__udivdi3+0xa6a>
    2004:	ea 14       	cp	r14, r10
    2006:	fb 04       	cpc	r15, r11
    2008:	0c 05       	cpc	r16, r12
    200a:	1d 05       	cpc	r17, r13
    200c:	70 f4       	brcc	.+28     	; 0x202a <__udivdi3+0xa6a>
    200e:	21 50       	subi	r18, 0x01	; 1
    2010:	30 40       	sbci	r19, 0x00	; 0
    2012:	40 40       	sbci	r20, 0x00	; 0
    2014:	50 40       	sbci	r21, 0x00	; 0
    2016:	a1 96       	adiw	r28, 0x21	; 33
    2018:	2c af       	std	Y+60, r18	; 0x3c
    201a:	3d af       	std	Y+61, r19	; 0x3d
    201c:	4e af       	std	Y+62, r20	; 0x3e
    201e:	5f af       	std	Y+63, r21	; 0x3f
    2020:	a1 97       	sbiw	r28, 0x21	; 33
    2022:	e6 0c       	add	r14, r6
    2024:	f7 1c       	adc	r15, r7
    2026:	08 1d       	adc	r16, r8
    2028:	19 1d       	adc	r17, r9
    202a:	ea 18       	sub	r14, r10
    202c:	fb 08       	sbc	r15, r11
    202e:	0c 09       	sbc	r16, r12
    2030:	1d 09       	sbc	r17, r13
    2032:	c8 01       	movw	r24, r16
    2034:	b7 01       	movw	r22, r14
    2036:	6d 96       	adiw	r28, 0x1d	; 29
    2038:	2c ad       	ldd	r18, Y+60	; 0x3c
    203a:	3d ad       	ldd	r19, Y+61	; 0x3d
    203c:	4e ad       	ldd	r20, Y+62	; 0x3e
    203e:	5f ad       	ldd	r21, Y+63	; 0x3f
    2040:	6d 97       	sbiw	r28, 0x1d	; 29
    2042:	0e 94 2c 18 	call	0x3058	; 0x3058 <__udivmodsi4>
    2046:	59 01       	movw	r10, r18
    2048:	6a 01       	movw	r12, r20
    204a:	ca 01       	movw	r24, r20
    204c:	b9 01       	movw	r22, r18
    204e:	a2 01       	movw	r20, r4
    2050:	91 01       	movw	r18, r2
    2052:	0e 94 0d 18 	call	0x301a	; 0x301a <__mulsi3>
    2056:	1b 01       	movw	r2, r22
    2058:	2c 01       	movw	r4, r24
    205a:	c8 01       	movw	r24, r16
    205c:	b7 01       	movw	r22, r14
    205e:	6d 96       	adiw	r28, 0x1d	; 29
    2060:	2c ad       	ldd	r18, Y+60	; 0x3c
    2062:	3d ad       	ldd	r19, Y+61	; 0x3d
    2064:	4e ad       	ldd	r20, Y+62	; 0x3e
    2066:	5f ad       	ldd	r21, Y+63	; 0x3f
    2068:	6d 97       	sbiw	r28, 0x1d	; 29
    206a:	0e 94 2c 18 	call	0x3058	; 0x3058 <__udivmodsi4>
    206e:	cb 01       	movw	r24, r22
    2070:	77 27       	eor	r23, r23
    2072:	66 27       	eor	r22, r22
    2074:	29 a5       	ldd	r18, Y+41	; 0x29
    2076:	3a a5       	ldd	r19, Y+42	; 0x2a
    2078:	4b a5       	ldd	r20, Y+43	; 0x2b
    207a:	5c a5       	ldd	r21, Y+44	; 0x2c
    207c:	40 70       	andi	r20, 0x00	; 0
    207e:	50 70       	andi	r21, 0x00	; 0
    2080:	7b 01       	movw	r14, r22
    2082:	8c 01       	movw	r16, r24
    2084:	e2 2a       	or	r14, r18
    2086:	f3 2a       	or	r15, r19
    2088:	04 2b       	or	r16, r20
    208a:	15 2b       	or	r17, r21
    208c:	e2 14       	cp	r14, r2
    208e:	f3 04       	cpc	r15, r3
    2090:	04 05       	cpc	r16, r4
    2092:	15 05       	cpc	r17, r5
    2094:	e0 f4       	brcc	.+56     	; 0x20ce <__udivdi3+0xb0e>
    2096:	08 94       	sec
    2098:	a1 08       	sbc	r10, r1
    209a:	b1 08       	sbc	r11, r1
    209c:	c1 08       	sbc	r12, r1
    209e:	d1 08       	sbc	r13, r1
    20a0:	e6 0c       	add	r14, r6
    20a2:	f7 1c       	adc	r15, r7
    20a4:	08 1d       	adc	r16, r8
    20a6:	19 1d       	adc	r17, r9
    20a8:	e6 14       	cp	r14, r6
    20aa:	f7 04       	cpc	r15, r7
    20ac:	08 05       	cpc	r16, r8
    20ae:	19 05       	cpc	r17, r9
    20b0:	70 f0       	brcs	.+28     	; 0x20ce <__udivdi3+0xb0e>
    20b2:	e2 14       	cp	r14, r2
    20b4:	f3 04       	cpc	r15, r3
    20b6:	04 05       	cpc	r16, r4
    20b8:	15 05       	cpc	r17, r5
    20ba:	48 f4       	brcc	.+18     	; 0x20ce <__udivdi3+0xb0e>
    20bc:	08 94       	sec
    20be:	a1 08       	sbc	r10, r1
    20c0:	b1 08       	sbc	r11, r1
    20c2:	c1 08       	sbc	r12, r1
    20c4:	d1 08       	sbc	r13, r1
    20c6:	e6 0c       	add	r14, r6
    20c8:	f7 1c       	adc	r15, r7
    20ca:	08 1d       	adc	r16, r8
    20cc:	19 1d       	adc	r17, r9
    20ce:	e2 18       	sub	r14, r2
    20d0:	f3 08       	sbc	r15, r3
    20d2:	04 09       	sbc	r16, r4
    20d4:	15 09       	sbc	r17, r5
    20d6:	ed a2       	std	Y+37, r14	; 0x25
    20d8:	fe a2       	std	Y+38, r15	; 0x26
    20da:	0f a3       	std	Y+39, r16	; 0x27
    20dc:	18 a7       	std	Y+40, r17	; 0x28
    20de:	a1 96       	adiw	r28, 0x21	; 33
    20e0:	6c ac       	ldd	r6, Y+60	; 0x3c
    20e2:	7d ac       	ldd	r7, Y+61	; 0x3d
    20e4:	8e ac       	ldd	r8, Y+62	; 0x3e
    20e6:	9f ac       	ldd	r9, Y+63	; 0x3f
    20e8:	a1 97       	sbiw	r28, 0x21	; 33
    20ea:	d3 01       	movw	r26, r6
    20ec:	99 27       	eor	r25, r25
    20ee:	88 27       	eor	r24, r24
    20f0:	a8 2a       	or	r10, r24
    20f2:	b9 2a       	or	r11, r25
    20f4:	ca 2a       	or	r12, r26
    20f6:	db 2a       	or	r13, r27
    20f8:	ad aa       	std	Y+53, r10	; 0x35
    20fa:	be aa       	std	Y+54, r11	; 0x36
    20fc:	cf aa       	std	Y+55, r12	; 0x37
    20fe:	d8 ae       	std	Y+56, r13	; 0x38
    2100:	86 01       	movw	r16, r12
    2102:	75 01       	movw	r14, r10
    2104:	2f ef       	ldi	r18, 0xFF	; 255
    2106:	3f ef       	ldi	r19, 0xFF	; 255
    2108:	40 e0       	ldi	r20, 0x00	; 0
    210a:	50 e0       	ldi	r21, 0x00	; 0
    210c:	e2 22       	and	r14, r18
    210e:	f3 22       	and	r15, r19
    2110:	04 23       	and	r16, r20
    2112:	15 23       	and	r17, r21
    2114:	c6 01       	movw	r24, r12
    2116:	aa 27       	eor	r26, r26
    2118:	bb 27       	eor	r27, r27
    211a:	a9 96       	adiw	r28, 0x29	; 41
    211c:	8c af       	std	Y+60, r24	; 0x3c
    211e:	9d af       	std	Y+61, r25	; 0x3d
    2120:	ae af       	std	Y+62, r26	; 0x3e
    2122:	bf af       	std	Y+63, r27	; 0x3f
    2124:	a9 97       	sbiw	r28, 0x29	; 41
    2126:	a9 a0       	ldd	r10, Y+33	; 0x21
    2128:	ba a0       	ldd	r11, Y+34	; 0x22
    212a:	cb a0       	ldd	r12, Y+35	; 0x23
    212c:	dc a0       	ldd	r13, Y+36	; 0x24
    212e:	a2 22       	and	r10, r18
    2130:	b3 22       	and	r11, r19
    2132:	c4 22       	and	r12, r20
    2134:	d5 22       	and	r13, r21
    2136:	69 a0       	ldd	r6, Y+33	; 0x21
    2138:	7a a0       	ldd	r7, Y+34	; 0x22
    213a:	8b a0       	ldd	r8, Y+35	; 0x23
    213c:	9c a0       	ldd	r9, Y+36	; 0x24
    213e:	14 01       	movw	r2, r8
    2140:	44 24       	eor	r4, r4
    2142:	55 24       	eor	r5, r5
    2144:	c8 01       	movw	r24, r16
    2146:	b7 01       	movw	r22, r14
    2148:	a6 01       	movw	r20, r12
    214a:	95 01       	movw	r18, r10
    214c:	0e 94 0d 18 	call	0x301a	; 0x301a <__mulsi3>
    2150:	a5 96       	adiw	r28, 0x25	; 37
    2152:	6c af       	std	Y+60, r22	; 0x3c
    2154:	7d af       	std	Y+61, r23	; 0x3d
    2156:	8e af       	std	Y+62, r24	; 0x3e
    2158:	9f af       	std	Y+63, r25	; 0x3f
    215a:	a5 97       	sbiw	r28, 0x25	; 37
    215c:	c8 01       	movw	r24, r16
    215e:	b7 01       	movw	r22, r14
    2160:	a2 01       	movw	r20, r4
    2162:	91 01       	movw	r18, r2
    2164:	0e 94 0d 18 	call	0x301a	; 0x301a <__mulsi3>
    2168:	3b 01       	movw	r6, r22
    216a:	4c 01       	movw	r8, r24
    216c:	a9 96       	adiw	r28, 0x29	; 41
    216e:	6c ad       	ldd	r22, Y+60	; 0x3c
    2170:	7d ad       	ldd	r23, Y+61	; 0x3d
    2172:	8e ad       	ldd	r24, Y+62	; 0x3e
    2174:	9f ad       	ldd	r25, Y+63	; 0x3f
    2176:	a9 97       	sbiw	r28, 0x29	; 41
    2178:	a6 01       	movw	r20, r12
    217a:	95 01       	movw	r18, r10
    217c:	0e 94 0d 18 	call	0x301a	; 0x301a <__mulsi3>
    2180:	7b 01       	movw	r14, r22
    2182:	8c 01       	movw	r16, r24
    2184:	a9 96       	adiw	r28, 0x29	; 41
    2186:	6c ad       	ldd	r22, Y+60	; 0x3c
    2188:	7d ad       	ldd	r23, Y+61	; 0x3d
    218a:	8e ad       	ldd	r24, Y+62	; 0x3e
    218c:	9f ad       	ldd	r25, Y+63	; 0x3f
    218e:	a9 97       	sbiw	r28, 0x29	; 41
    2190:	a2 01       	movw	r20, r4
    2192:	91 01       	movw	r18, r2
    2194:	0e 94 0d 18 	call	0x301a	; 0x301a <__mulsi3>
    2198:	5b 01       	movw	r10, r22
    219a:	6c 01       	movw	r12, r24
    219c:	a8 01       	movw	r20, r16
    219e:	97 01       	movw	r18, r14
    21a0:	26 0d       	add	r18, r6
    21a2:	37 1d       	adc	r19, r7
    21a4:	48 1d       	adc	r20, r8
    21a6:	59 1d       	adc	r21, r9
    21a8:	a5 96       	adiw	r28, 0x25	; 37
    21aa:	6c ac       	ldd	r6, Y+60	; 0x3c
    21ac:	7d ac       	ldd	r7, Y+61	; 0x3d
    21ae:	8e ac       	ldd	r8, Y+62	; 0x3e
    21b0:	9f ac       	ldd	r9, Y+63	; 0x3f
    21b2:	a5 97       	sbiw	r28, 0x25	; 37
    21b4:	c4 01       	movw	r24, r8
    21b6:	aa 27       	eor	r26, r26
    21b8:	bb 27       	eor	r27, r27
    21ba:	28 0f       	add	r18, r24
    21bc:	39 1f       	adc	r19, r25
    21be:	4a 1f       	adc	r20, r26
    21c0:	5b 1f       	adc	r21, r27
    21c2:	2e 15       	cp	r18, r14
    21c4:	3f 05       	cpc	r19, r15
    21c6:	40 07       	cpc	r20, r16
    21c8:	51 07       	cpc	r21, r17
    21ca:	48 f4       	brcc	.+18     	; 0x21de <__udivdi3+0xc1e>
    21cc:	e1 2c       	mov	r14, r1
    21ce:	f1 2c       	mov	r15, r1
    21d0:	61 e0       	ldi	r22, 0x01	; 1
    21d2:	06 2f       	mov	r16, r22
    21d4:	11 2d       	mov	r17, r1
    21d6:	ae 0c       	add	r10, r14
    21d8:	bf 1c       	adc	r11, r15
    21da:	c0 1e       	adc	r12, r16
    21dc:	d1 1e       	adc	r13, r17
    21de:	ca 01       	movw	r24, r20
    21e0:	aa 27       	eor	r26, r26
    21e2:	bb 27       	eor	r27, r27
    21e4:	a8 0e       	add	r10, r24
    21e6:	b9 1e       	adc	r11, r25
    21e8:	ca 1e       	adc	r12, r26
    21ea:	db 1e       	adc	r13, r27
    21ec:	6d a0       	ldd	r6, Y+37	; 0x25
    21ee:	7e a0       	ldd	r7, Y+38	; 0x26
    21f0:	8f a0       	ldd	r8, Y+39	; 0x27
    21f2:	98 a4       	ldd	r9, Y+40	; 0x28
    21f4:	6a 14       	cp	r6, r10
    21f6:	7b 04       	cpc	r7, r11
    21f8:	8c 04       	cpc	r8, r12
    21fa:	9d 04       	cpc	r9, r13
    21fc:	28 f1       	brcs	.+74     	; 0x2248 <__stack+0x49>
    21fe:	a6 14       	cp	r10, r6
    2200:	b7 04       	cpc	r11, r7
    2202:	c8 04       	cpc	r12, r8
    2204:	d9 04       	cpc	r13, r9
    2206:	d1 f5       	brne	.+116    	; 0x227c <__stack+0x7d>
    2208:	d9 01       	movw	r26, r18
    220a:	99 27       	eor	r25, r25
    220c:	88 27       	eor	r24, r24
    220e:	a5 96       	adiw	r28, 0x25	; 37
    2210:	2c ad       	ldd	r18, Y+60	; 0x3c
    2212:	3d ad       	ldd	r19, Y+61	; 0x3d
    2214:	4e ad       	ldd	r20, Y+62	; 0x3e
    2216:	5f ad       	ldd	r21, Y+63	; 0x3f
    2218:	a5 97       	sbiw	r28, 0x25	; 37
    221a:	40 70       	andi	r20, 0x00	; 0
    221c:	50 70       	andi	r21, 0x00	; 0
    221e:	82 0f       	add	r24, r18
    2220:	93 1f       	adc	r25, r19
    2222:	a4 1f       	adc	r26, r20
    2224:	b5 1f       	adc	r27, r21
    2226:	29 a9       	ldd	r18, Y+49	; 0x31
    2228:	3a a9       	ldd	r19, Y+50	; 0x32
    222a:	4b a9       	ldd	r20, Y+51	; 0x33
    222c:	5c a9       	ldd	r21, Y+52	; 0x34
    222e:	0d 8c       	ldd	r0, Y+29	; 0x1d
    2230:	04 c0       	rjmp	.+8      	; 0x223a <__stack+0x3b>
    2232:	22 0f       	add	r18, r18
    2234:	33 1f       	adc	r19, r19
    2236:	44 1f       	adc	r20, r20
    2238:	55 1f       	adc	r21, r21
    223a:	0a 94       	dec	r0
    223c:	d2 f7       	brpl	.-12     	; 0x2232 <__stack+0x33>
    223e:	28 17       	cp	r18, r24
    2240:	39 07       	cpc	r19, r25
    2242:	4a 07       	cpc	r20, r26
    2244:	5b 07       	cpc	r21, r27
    2246:	d0 f4       	brcc	.+52     	; 0x227c <__stack+0x7d>
    2248:	0d a9       	ldd	r16, Y+53	; 0x35
    224a:	1e a9       	ldd	r17, Y+54	; 0x36
    224c:	2f a9       	ldd	r18, Y+55	; 0x37
    224e:	38 ad       	ldd	r19, Y+56	; 0x38
    2250:	01 50       	subi	r16, 0x01	; 1
    2252:	10 40       	sbci	r17, 0x00	; 0
    2254:	20 40       	sbci	r18, 0x00	; 0
    2256:	30 40       	sbci	r19, 0x00	; 0
    2258:	0d ab       	std	Y+53, r16	; 0x35
    225a:	1e ab       	std	Y+54, r17	; 0x36
    225c:	2f ab       	std	Y+55, r18	; 0x37
    225e:	38 af       	std	Y+56, r19	; 0x38
    2260:	0d c0       	rjmp	.+26     	; 0x227c <__stack+0x7d>
    2262:	1d aa       	std	Y+53, r1	; 0x35
    2264:	1e aa       	std	Y+54, r1	; 0x36
    2266:	1f aa       	std	Y+55, r1	; 0x37
    2268:	18 ae       	std	Y+56, r1	; 0x38
    226a:	08 c0       	rjmp	.+16     	; 0x227c <__stack+0x7d>
    226c:	21 e0       	ldi	r18, 0x01	; 1
    226e:	30 e0       	ldi	r19, 0x00	; 0
    2270:	40 e0       	ldi	r20, 0x00	; 0
    2272:	50 e0       	ldi	r21, 0x00	; 0
    2274:	2d ab       	std	Y+53, r18	; 0x35
    2276:	3e ab       	std	Y+54, r19	; 0x36
    2278:	4f ab       	std	Y+55, r20	; 0x37
    227a:	58 af       	std	Y+56, r21	; 0x38
    227c:	19 ae       	std	Y+57, r1	; 0x39
    227e:	1a ae       	std	Y+58, r1	; 0x3a
    2280:	1b ae       	std	Y+59, r1	; 0x3b
    2282:	1c ae       	std	Y+60, r1	; 0x3c
    2284:	88 e0       	ldi	r24, 0x08	; 8
    2286:	fe 01       	movw	r30, r28
    2288:	71 96       	adiw	r30, 0x11	; 17
    228a:	11 92       	st	Z+, r1
    228c:	8a 95       	dec	r24
    228e:	e9 f7       	brne	.-6      	; 0x228a <__stack+0x8b>
    2290:	8d a9       	ldd	r24, Y+53	; 0x35
    2292:	9e a9       	ldd	r25, Y+54	; 0x36
    2294:	af a9       	ldd	r26, Y+55	; 0x37
    2296:	b8 ad       	ldd	r27, Y+56	; 0x38
    2298:	89 8b       	std	Y+17, r24	; 0x11
    229a:	9a 8b       	std	Y+18, r25	; 0x12
    229c:	ab 8b       	std	Y+19, r26	; 0x13
    229e:	bc 8b       	std	Y+20, r27	; 0x14
    22a0:	69 ac       	ldd	r6, Y+57	; 0x39
    22a2:	7a ac       	ldd	r7, Y+58	; 0x3a
    22a4:	8b ac       	ldd	r8, Y+59	; 0x3b
    22a6:	9c ac       	ldd	r9, Y+60	; 0x3c
    22a8:	6d 8a       	std	Y+21, r6	; 0x15
    22aa:	7e 8a       	std	Y+22, r7	; 0x16
    22ac:	8f 8a       	std	Y+23, r8	; 0x17
    22ae:	98 8e       	std	Y+24, r9	; 0x18
    22b0:	29 88       	ldd	r2, Y+17	; 0x11
    22b2:	3a 88       	ldd	r3, Y+18	; 0x12
    22b4:	4b 88       	ldd	r4, Y+19	; 0x13
    22b6:	5c 88       	ldd	r5, Y+20	; 0x14
    22b8:	6d 88       	ldd	r6, Y+21	; 0x15
    22ba:	7e 88       	ldd	r7, Y+22	; 0x16
    22bc:	8f 88       	ldd	r8, Y+23	; 0x17
    22be:	98 8c       	ldd	r9, Y+24	; 0x18
    22c0:	22 2d       	mov	r18, r2
    22c2:	33 2d       	mov	r19, r3
    22c4:	44 2d       	mov	r20, r4
    22c6:	55 2d       	mov	r21, r5
    22c8:	66 2d       	mov	r22, r6
    22ca:	77 2d       	mov	r23, r7
    22cc:	88 2d       	mov	r24, r8
    22ce:	99 2d       	mov	r25, r9
    22d0:	e2 e1       	ldi	r30, 0x12	; 18
    22d2:	c4 59       	subi	r28, 0x94	; 148
    22d4:	df 4f       	sbci	r29, 0xFF	; 255
    22d6:	0c 94 6a 18 	jmp	0x30d4	; 0x30d4 <__epilogue_restores__>

000022da <__umoddi3>:
    22da:	ae e5       	ldi	r26, 0x5E	; 94
    22dc:	b0 e0       	ldi	r27, 0x00	; 0
    22de:	e3 e7       	ldi	r30, 0x73	; 115
    22e0:	f1 e1       	ldi	r31, 0x11	; 17
    22e2:	0c 94 4e 18 	jmp	0x309c	; 0x309c <__prologue_saves__>
    22e6:	22 2e       	mov	r2, r18
    22e8:	33 2e       	mov	r3, r19
    22ea:	44 2e       	mov	r4, r20
    22ec:	55 2e       	mov	r5, r21
    22ee:	66 2e       	mov	r6, r22
    22f0:	77 2e       	mov	r7, r23
    22f2:	88 2e       	mov	r8, r24
    22f4:	99 2e       	mov	r9, r25
    22f6:	2a 2d       	mov	r18, r10
    22f8:	a8 e0       	ldi	r26, 0x08	; 8
    22fa:	fe 01       	movw	r30, r28
    22fc:	31 96       	adiw	r30, 0x01	; 1
    22fe:	aa 2e       	mov	r10, r26
    2300:	11 92       	st	Z+, r1
    2302:	aa 94       	dec	r10
    2304:	e9 f7       	brne	.-6      	; 0x2300 <__umoddi3+0x26>
    2306:	29 82       	std	Y+1, r2	; 0x01
    2308:	3a 82       	std	Y+2, r3	; 0x02
    230a:	4b 82       	std	Y+3, r4	; 0x03
    230c:	5c 82       	std	Y+4, r5	; 0x04
    230e:	6d 82       	std	Y+5, r6	; 0x05
    2310:	7e 82       	std	Y+6, r7	; 0x06
    2312:	8f 82       	std	Y+7, r8	; 0x07
    2314:	98 86       	std	Y+8, r9	; 0x08
    2316:	fe 01       	movw	r30, r28
    2318:	39 96       	adiw	r30, 0x09	; 9
    231a:	11 92       	st	Z+, r1
    231c:	aa 95       	dec	r26
    231e:	e9 f7       	brne	.-6      	; 0x231a <__umoddi3+0x40>
    2320:	29 87       	std	Y+9, r18	; 0x09
    2322:	ba 86       	std	Y+10, r11	; 0x0a
    2324:	cb 86       	std	Y+11, r12	; 0x0b
    2326:	dc 86       	std	Y+12, r13	; 0x0c
    2328:	ed 86       	std	Y+13, r14	; 0x0d
    232a:	fe 86       	std	Y+14, r15	; 0x0e
    232c:	0f 87       	std	Y+15, r16	; 0x0f
    232e:	18 8b       	std	Y+16, r17	; 0x10
    2330:	a9 84       	ldd	r10, Y+9	; 0x09
    2332:	ba 84       	ldd	r11, Y+10	; 0x0a
    2334:	cb 84       	ldd	r12, Y+11	; 0x0b
    2336:	dc 84       	ldd	r13, Y+12	; 0x0c
    2338:	ed 84       	ldd	r14, Y+13	; 0x0d
    233a:	fe 84       	ldd	r15, Y+14	; 0x0e
    233c:	0f 85       	ldd	r16, Y+15	; 0x0f
    233e:	18 89       	ldd	r17, Y+16	; 0x10
    2340:	29 81       	ldd	r18, Y+1	; 0x01
    2342:	3a 81       	ldd	r19, Y+2	; 0x02
    2344:	4b 81       	ldd	r20, Y+3	; 0x03
    2346:	5c 81       	ldd	r21, Y+4	; 0x04
    2348:	2f a3       	std	Y+39, r18	; 0x27
    234a:	38 a7       	std	Y+40, r19	; 0x28
    234c:	49 a7       	std	Y+41, r20	; 0x29
    234e:	5a a7       	std	Y+42, r21	; 0x2a
    2350:	6d 80       	ldd	r6, Y+5	; 0x05
    2352:	7e 80       	ldd	r7, Y+6	; 0x06
    2354:	8f 80       	ldd	r8, Y+7	; 0x07
    2356:	98 84       	ldd	r9, Y+8	; 0x08
    2358:	e1 14       	cp	r14, r1
    235a:	f1 04       	cpc	r15, r1
    235c:	01 05       	cpc	r16, r1
    235e:	11 05       	cpc	r17, r1
    2360:	09 f0       	breq	.+2      	; 0x2364 <__umoddi3+0x8a>
    2362:	f2 c2       	rjmp	.+1508   	; 0x2948 <__umoddi3+0x66e>
    2364:	6a 14       	cp	r6, r10
    2366:	7b 04       	cpc	r7, r11
    2368:	8c 04       	cpc	r8, r12
    236a:	9d 04       	cpc	r9, r13
    236c:	08 f0       	brcs	.+2      	; 0x2370 <__umoddi3+0x96>
    236e:	00 c1       	rjmp	.+512    	; 0x2570 <__umoddi3+0x296>
    2370:	30 e0       	ldi	r19, 0x00	; 0
    2372:	a3 16       	cp	r10, r19
    2374:	30 e0       	ldi	r19, 0x00	; 0
    2376:	b3 06       	cpc	r11, r19
    2378:	31 e0       	ldi	r19, 0x01	; 1
    237a:	c3 06       	cpc	r12, r19
    237c:	30 e0       	ldi	r19, 0x00	; 0
    237e:	d3 06       	cpc	r13, r19
    2380:	88 f4       	brcc	.+34     	; 0x23a4 <__umoddi3+0xca>
    2382:	4f ef       	ldi	r20, 0xFF	; 255
    2384:	a4 16       	cp	r10, r20
    2386:	b1 04       	cpc	r11, r1
    2388:	c1 04       	cpc	r12, r1
    238a:	d1 04       	cpc	r13, r1
    238c:	09 f0       	breq	.+2      	; 0x2390 <__umoddi3+0xb6>
    238e:	28 f4       	brcc	.+10     	; 0x239a <__umoddi3+0xc0>
    2390:	20 e0       	ldi	r18, 0x00	; 0
    2392:	30 e0       	ldi	r19, 0x00	; 0
    2394:	40 e0       	ldi	r20, 0x00	; 0
    2396:	50 e0       	ldi	r21, 0x00	; 0
    2398:	17 c0       	rjmp	.+46     	; 0x23c8 <__umoddi3+0xee>
    239a:	28 e0       	ldi	r18, 0x08	; 8
    239c:	30 e0       	ldi	r19, 0x00	; 0
    239e:	40 e0       	ldi	r20, 0x00	; 0
    23a0:	50 e0       	ldi	r21, 0x00	; 0
    23a2:	12 c0       	rjmp	.+36     	; 0x23c8 <__umoddi3+0xee>
    23a4:	50 e0       	ldi	r21, 0x00	; 0
    23a6:	a5 16       	cp	r10, r21
    23a8:	50 e0       	ldi	r21, 0x00	; 0
    23aa:	b5 06       	cpc	r11, r21
    23ac:	50 e0       	ldi	r21, 0x00	; 0
    23ae:	c5 06       	cpc	r12, r21
    23b0:	51 e0       	ldi	r21, 0x01	; 1
    23b2:	d5 06       	cpc	r13, r21
    23b4:	28 f4       	brcc	.+10     	; 0x23c0 <__umoddi3+0xe6>
    23b6:	20 e1       	ldi	r18, 0x10	; 16
    23b8:	30 e0       	ldi	r19, 0x00	; 0
    23ba:	40 e0       	ldi	r20, 0x00	; 0
    23bc:	50 e0       	ldi	r21, 0x00	; 0
    23be:	04 c0       	rjmp	.+8      	; 0x23c8 <__umoddi3+0xee>
    23c0:	28 e1       	ldi	r18, 0x18	; 24
    23c2:	30 e0       	ldi	r19, 0x00	; 0
    23c4:	40 e0       	ldi	r20, 0x00	; 0
    23c6:	50 e0       	ldi	r21, 0x00	; 0
    23c8:	80 e2       	ldi	r24, 0x20	; 32
    23ca:	90 e0       	ldi	r25, 0x00	; 0
    23cc:	a0 e0       	ldi	r26, 0x00	; 0
    23ce:	b0 e0       	ldi	r27, 0x00	; 0
    23d0:	82 1b       	sub	r24, r18
    23d2:	93 0b       	sbc	r25, r19
    23d4:	a4 0b       	sbc	r26, r20
    23d6:	b5 0b       	sbc	r27, r21
    23d8:	15 01       	movw	r2, r10
    23da:	26 01       	movw	r4, r12
    23dc:	04 c0       	rjmp	.+8      	; 0x23e6 <__umoddi3+0x10c>
    23de:	56 94       	lsr	r5
    23e0:	47 94       	ror	r4
    23e2:	37 94       	ror	r3
    23e4:	27 94       	ror	r2
    23e6:	2a 95       	dec	r18
    23e8:	d2 f7       	brpl	.-12     	; 0x23de <__umoddi3+0x104>
    23ea:	a2 01       	movw	r20, r4
    23ec:	91 01       	movw	r18, r2
    23ee:	2c 5c       	subi	r18, 0xCC	; 204
    23f0:	3d 4f       	sbci	r19, 0xFD	; 253
    23f2:	f9 01       	movw	r30, r18
    23f4:	20 81       	ld	r18, Z
    23f6:	82 1b       	sub	r24, r18
    23f8:	91 09       	sbc	r25, r1
    23fa:	a1 09       	sbc	r26, r1
    23fc:	b1 09       	sbc	r27, r1
    23fe:	8b af       	std	Y+59, r24	; 0x3b
    2400:	9c af       	std	Y+60, r25	; 0x3c
    2402:	ad af       	std	Y+61, r26	; 0x3d
    2404:	be af       	std	Y+62, r27	; 0x3e
    2406:	00 97       	sbiw	r24, 0x00	; 0
    2408:	a1 05       	cpc	r26, r1
    240a:	b1 05       	cpc	r27, r1
    240c:	d1 f1       	breq	.+116    	; 0x2482 <__umoddi3+0x1a8>
    240e:	8b ad       	ldd	r24, Y+59	; 0x3b
    2410:	9c ad       	ldd	r25, Y+60	; 0x3c
    2412:	08 2e       	mov	r0, r24
    2414:	04 c0       	rjmp	.+8      	; 0x241e <__umoddi3+0x144>
    2416:	aa 0c       	add	r10, r10
    2418:	bb 1c       	adc	r11, r11
    241a:	cc 1c       	adc	r12, r12
    241c:	dd 1c       	adc	r13, r13
    241e:	0a 94       	dec	r0
    2420:	d2 f7       	brpl	.-12     	; 0x2416 <__umoddi3+0x13c>
    2422:	20 e2       	ldi	r18, 0x20	; 32
    2424:	30 e0       	ldi	r19, 0x00	; 0
    2426:	28 1b       	sub	r18, r24
    2428:	39 0b       	sbc	r19, r25
    242a:	ef a0       	ldd	r14, Y+39	; 0x27
    242c:	f8 a4       	ldd	r15, Y+40	; 0x28
    242e:	09 a5       	ldd	r16, Y+41	; 0x29
    2430:	1a a5       	ldd	r17, Y+42	; 0x2a
    2432:	04 c0       	rjmp	.+8      	; 0x243c <__umoddi3+0x162>
    2434:	16 95       	lsr	r17
    2436:	07 95       	ror	r16
    2438:	f7 94       	ror	r15
    243a:	e7 94       	ror	r14
    243c:	2a 95       	dec	r18
    243e:	d2 f7       	brpl	.-12     	; 0x2434 <__umoddi3+0x15a>
    2440:	a8 01       	movw	r20, r16
    2442:	97 01       	movw	r18, r14
    2444:	84 01       	movw	r16, r8
    2446:	73 01       	movw	r14, r6
    2448:	08 2e       	mov	r0, r24
    244a:	04 c0       	rjmp	.+8      	; 0x2454 <__umoddi3+0x17a>
    244c:	ee 0c       	add	r14, r14
    244e:	ff 1c       	adc	r15, r15
    2450:	00 1f       	adc	r16, r16
    2452:	11 1f       	adc	r17, r17
    2454:	0a 94       	dec	r0
    2456:	d2 f7       	brpl	.-12     	; 0x244c <__umoddi3+0x172>
    2458:	39 01       	movw	r6, r18
    245a:	4a 01       	movw	r8, r20
    245c:	6e 28       	or	r6, r14
    245e:	7f 28       	or	r7, r15
    2460:	80 2a       	or	r8, r16
    2462:	91 2a       	or	r9, r17
    2464:	0f a1       	ldd	r16, Y+39	; 0x27
    2466:	18 a5       	ldd	r17, Y+40	; 0x28
    2468:	29 a5       	ldd	r18, Y+41	; 0x29
    246a:	3a a5       	ldd	r19, Y+42	; 0x2a
    246c:	04 c0       	rjmp	.+8      	; 0x2476 <__umoddi3+0x19c>
    246e:	00 0f       	add	r16, r16
    2470:	11 1f       	adc	r17, r17
    2472:	22 1f       	adc	r18, r18
    2474:	33 1f       	adc	r19, r19
    2476:	8a 95       	dec	r24
    2478:	d2 f7       	brpl	.-12     	; 0x246e <__umoddi3+0x194>
    247a:	0f a3       	std	Y+39, r16	; 0x27
    247c:	18 a7       	std	Y+40, r17	; 0x28
    247e:	29 a7       	std	Y+41, r18	; 0x29
    2480:	3a a7       	std	Y+42, r19	; 0x2a
    2482:	96 01       	movw	r18, r12
    2484:	44 27       	eor	r20, r20
    2486:	55 27       	eor	r21, r21
    2488:	23 96       	adiw	r28, 0x03	; 3
    248a:	2c af       	std	Y+60, r18	; 0x3c
    248c:	3d af       	std	Y+61, r19	; 0x3d
    248e:	4e af       	std	Y+62, r20	; 0x3e
    2490:	5f af       	std	Y+63, r21	; 0x3f
    2492:	23 97       	sbiw	r28, 0x03	; 3
    2494:	d6 01       	movw	r26, r12
    2496:	c5 01       	movw	r24, r10
    2498:	a0 70       	andi	r26, 0x00	; 0
    249a:	b0 70       	andi	r27, 0x00	; 0
    249c:	27 96       	adiw	r28, 0x07	; 7
    249e:	8c af       	std	Y+60, r24	; 0x3c
    24a0:	9d af       	std	Y+61, r25	; 0x3d
    24a2:	ae af       	std	Y+62, r26	; 0x3e
    24a4:	bf af       	std	Y+63, r27	; 0x3f
    24a6:	27 97       	sbiw	r28, 0x07	; 7
    24a8:	c4 01       	movw	r24, r8
    24aa:	b3 01       	movw	r22, r6
    24ac:	0e 94 2c 18 	call	0x3058	; 0x3058 <__udivmodsi4>
    24b0:	ca 01       	movw	r24, r20
    24b2:	b9 01       	movw	r22, r18
    24b4:	27 96       	adiw	r28, 0x07	; 7
    24b6:	2c ad       	ldd	r18, Y+60	; 0x3c
    24b8:	3d ad       	ldd	r19, Y+61	; 0x3d
    24ba:	4e ad       	ldd	r20, Y+62	; 0x3e
    24bc:	5f ad       	ldd	r21, Y+63	; 0x3f
    24be:	27 97       	sbiw	r28, 0x07	; 7
    24c0:	0e 94 0d 18 	call	0x301a	; 0x301a <__mulsi3>
    24c4:	1b 01       	movw	r2, r22
    24c6:	2c 01       	movw	r4, r24
    24c8:	c4 01       	movw	r24, r8
    24ca:	b3 01       	movw	r22, r6
    24cc:	23 96       	adiw	r28, 0x03	; 3
    24ce:	2c ad       	ldd	r18, Y+60	; 0x3c
    24d0:	3d ad       	ldd	r19, Y+61	; 0x3d
    24d2:	4e ad       	ldd	r20, Y+62	; 0x3e
    24d4:	5f ad       	ldd	r21, Y+63	; 0x3f
    24d6:	23 97       	sbiw	r28, 0x03	; 3
    24d8:	0e 94 2c 18 	call	0x3058	; 0x3058 <__udivmodsi4>
    24dc:	cb 01       	movw	r24, r22
    24de:	77 27       	eor	r23, r23
    24e0:	66 27       	eor	r22, r22
    24e2:	6f a0       	ldd	r6, Y+39	; 0x27
    24e4:	78 a4       	ldd	r7, Y+40	; 0x28
    24e6:	89 a4       	ldd	r8, Y+41	; 0x29
    24e8:	9a a4       	ldd	r9, Y+42	; 0x2a
    24ea:	94 01       	movw	r18, r8
    24ec:	44 27       	eor	r20, r20
    24ee:	55 27       	eor	r21, r21
    24f0:	7b 01       	movw	r14, r22
    24f2:	8c 01       	movw	r16, r24
    24f4:	e2 2a       	or	r14, r18
    24f6:	f3 2a       	or	r15, r19
    24f8:	04 2b       	or	r16, r20
    24fa:	15 2b       	or	r17, r21
    24fc:	e2 14       	cp	r14, r2
    24fe:	f3 04       	cpc	r15, r3
    2500:	04 05       	cpc	r16, r4
    2502:	15 05       	cpc	r17, r5
    2504:	90 f4       	brcc	.+36     	; 0x252a <__umoddi3+0x250>
    2506:	ea 0c       	add	r14, r10
    2508:	fb 1c       	adc	r15, r11
    250a:	0c 1d       	adc	r16, r12
    250c:	1d 1d       	adc	r17, r13
    250e:	ea 14       	cp	r14, r10
    2510:	fb 04       	cpc	r15, r11
    2512:	0c 05       	cpc	r16, r12
    2514:	1d 05       	cpc	r17, r13
    2516:	48 f0       	brcs	.+18     	; 0x252a <__umoddi3+0x250>
    2518:	e2 14       	cp	r14, r2
    251a:	f3 04       	cpc	r15, r3
    251c:	04 05       	cpc	r16, r4
    251e:	15 05       	cpc	r17, r5
    2520:	20 f4       	brcc	.+8      	; 0x252a <__umoddi3+0x250>
    2522:	ea 0c       	add	r14, r10
    2524:	fb 1c       	adc	r15, r11
    2526:	0c 1d       	adc	r16, r12
    2528:	1d 1d       	adc	r17, r13
    252a:	e2 18       	sub	r14, r2
    252c:	f3 08       	sbc	r15, r3
    252e:	04 09       	sbc	r16, r4
    2530:	15 09       	sbc	r17, r5
    2532:	c8 01       	movw	r24, r16
    2534:	b7 01       	movw	r22, r14
    2536:	23 96       	adiw	r28, 0x03	; 3
    2538:	2c ad       	ldd	r18, Y+60	; 0x3c
    253a:	3d ad       	ldd	r19, Y+61	; 0x3d
    253c:	4e ad       	ldd	r20, Y+62	; 0x3e
    253e:	5f ad       	ldd	r21, Y+63	; 0x3f
    2540:	23 97       	sbiw	r28, 0x03	; 3
    2542:	0e 94 2c 18 	call	0x3058	; 0x3058 <__udivmodsi4>
    2546:	ca 01       	movw	r24, r20
    2548:	b9 01       	movw	r22, r18
    254a:	27 96       	adiw	r28, 0x07	; 7
    254c:	2c ad       	ldd	r18, Y+60	; 0x3c
    254e:	3d ad       	ldd	r19, Y+61	; 0x3d
    2550:	4e ad       	ldd	r20, Y+62	; 0x3e
    2552:	5f ad       	ldd	r21, Y+63	; 0x3f
    2554:	27 97       	sbiw	r28, 0x07	; 7
    2556:	0e 94 0d 18 	call	0x301a	; 0x301a <__mulsi3>
    255a:	3b 01       	movw	r6, r22
    255c:	4c 01       	movw	r8, r24
    255e:	c8 01       	movw	r24, r16
    2560:	b7 01       	movw	r22, r14
    2562:	23 96       	adiw	r28, 0x03	; 3
    2564:	2c ad       	ldd	r18, Y+60	; 0x3c
    2566:	3d ad       	ldd	r19, Y+61	; 0x3d
    2568:	4e ad       	ldd	r20, Y+62	; 0x3e
    256a:	5f ad       	ldd	r21, Y+63	; 0x3f
    256c:	23 97       	sbiw	r28, 0x03	; 3
    256e:	af c1       	rjmp	.+862    	; 0x28ce <__umoddi3+0x5f4>
    2570:	a1 14       	cp	r10, r1
    2572:	b1 04       	cpc	r11, r1
    2574:	c1 04       	cpc	r12, r1
    2576:	d1 04       	cpc	r13, r1
    2578:	61 f4       	brne	.+24     	; 0x2592 <__umoddi3+0x2b8>
    257a:	61 e0       	ldi	r22, 0x01	; 1
    257c:	70 e0       	ldi	r23, 0x00	; 0
    257e:	80 e0       	ldi	r24, 0x00	; 0
    2580:	90 e0       	ldi	r25, 0x00	; 0
    2582:	20 e0       	ldi	r18, 0x00	; 0
    2584:	30 e0       	ldi	r19, 0x00	; 0
    2586:	40 e0       	ldi	r20, 0x00	; 0
    2588:	50 e0       	ldi	r21, 0x00	; 0
    258a:	0e 94 2c 18 	call	0x3058	; 0x3058 <__udivmodsi4>
    258e:	59 01       	movw	r10, r18
    2590:	6a 01       	movw	r12, r20
    2592:	00 e0       	ldi	r16, 0x00	; 0
    2594:	a0 16       	cp	r10, r16
    2596:	00 e0       	ldi	r16, 0x00	; 0
    2598:	b0 06       	cpc	r11, r16
    259a:	01 e0       	ldi	r16, 0x01	; 1
    259c:	c0 06       	cpc	r12, r16
    259e:	00 e0       	ldi	r16, 0x00	; 0
    25a0:	d0 06       	cpc	r13, r16
    25a2:	88 f4       	brcc	.+34     	; 0x25c6 <__umoddi3+0x2ec>
    25a4:	1f ef       	ldi	r17, 0xFF	; 255
    25a6:	a1 16       	cp	r10, r17
    25a8:	b1 04       	cpc	r11, r1
    25aa:	c1 04       	cpc	r12, r1
    25ac:	d1 04       	cpc	r13, r1
    25ae:	09 f0       	breq	.+2      	; 0x25b2 <__umoddi3+0x2d8>
    25b0:	28 f4       	brcc	.+10     	; 0x25bc <__umoddi3+0x2e2>
    25b2:	20 e0       	ldi	r18, 0x00	; 0
    25b4:	30 e0       	ldi	r19, 0x00	; 0
    25b6:	40 e0       	ldi	r20, 0x00	; 0
    25b8:	50 e0       	ldi	r21, 0x00	; 0
    25ba:	17 c0       	rjmp	.+46     	; 0x25ea <__umoddi3+0x310>
    25bc:	28 e0       	ldi	r18, 0x08	; 8
    25be:	30 e0       	ldi	r19, 0x00	; 0
    25c0:	40 e0       	ldi	r20, 0x00	; 0
    25c2:	50 e0       	ldi	r21, 0x00	; 0
    25c4:	12 c0       	rjmp	.+36     	; 0x25ea <__umoddi3+0x310>
    25c6:	20 e0       	ldi	r18, 0x00	; 0
    25c8:	a2 16       	cp	r10, r18
    25ca:	20 e0       	ldi	r18, 0x00	; 0
    25cc:	b2 06       	cpc	r11, r18
    25ce:	20 e0       	ldi	r18, 0x00	; 0
    25d0:	c2 06       	cpc	r12, r18
    25d2:	21 e0       	ldi	r18, 0x01	; 1
    25d4:	d2 06       	cpc	r13, r18
    25d6:	28 f4       	brcc	.+10     	; 0x25e2 <__umoddi3+0x308>
    25d8:	20 e1       	ldi	r18, 0x10	; 16
    25da:	30 e0       	ldi	r19, 0x00	; 0
    25dc:	40 e0       	ldi	r20, 0x00	; 0
    25de:	50 e0       	ldi	r21, 0x00	; 0
    25e0:	04 c0       	rjmp	.+8      	; 0x25ea <__umoddi3+0x310>
    25e2:	28 e1       	ldi	r18, 0x18	; 24
    25e4:	30 e0       	ldi	r19, 0x00	; 0
    25e6:	40 e0       	ldi	r20, 0x00	; 0
    25e8:	50 e0       	ldi	r21, 0x00	; 0
    25ea:	60 e2       	ldi	r22, 0x20	; 32
    25ec:	e6 2e       	mov	r14, r22
    25ee:	f1 2c       	mov	r15, r1
    25f0:	01 2d       	mov	r16, r1
    25f2:	11 2d       	mov	r17, r1
    25f4:	d8 01       	movw	r26, r16
    25f6:	c7 01       	movw	r24, r14
    25f8:	82 1b       	sub	r24, r18
    25fa:	93 0b       	sbc	r25, r19
    25fc:	a4 0b       	sbc	r26, r20
    25fe:	b5 0b       	sbc	r27, r21
    2600:	15 01       	movw	r2, r10
    2602:	26 01       	movw	r4, r12
    2604:	04 c0       	rjmp	.+8      	; 0x260e <__umoddi3+0x334>
    2606:	56 94       	lsr	r5
    2608:	47 94       	ror	r4
    260a:	37 94       	ror	r3
    260c:	27 94       	ror	r2
    260e:	2a 95       	dec	r18
    2610:	d2 f7       	brpl	.-12     	; 0x2606 <__umoddi3+0x32c>
    2612:	a2 01       	movw	r20, r4
    2614:	91 01       	movw	r18, r2
    2616:	2c 5c       	subi	r18, 0xCC	; 204
    2618:	3d 4f       	sbci	r19, 0xFD	; 253
    261a:	f9 01       	movw	r30, r18
    261c:	20 81       	ld	r18, Z
    261e:	82 1b       	sub	r24, r18
    2620:	91 09       	sbc	r25, r1
    2622:	a1 09       	sbc	r26, r1
    2624:	b1 09       	sbc	r27, r1
    2626:	8b af       	std	Y+59, r24	; 0x3b
    2628:	9c af       	std	Y+60, r25	; 0x3c
    262a:	ad af       	std	Y+61, r26	; 0x3d
    262c:	be af       	std	Y+62, r27	; 0x3e
    262e:	00 97       	sbiw	r24, 0x00	; 0
    2630:	a1 05       	cpc	r26, r1
    2632:	b1 05       	cpc	r27, r1
    2634:	39 f4       	brne	.+14     	; 0x2644 <__umoddi3+0x36a>
    2636:	84 01       	movw	r16, r8
    2638:	73 01       	movw	r14, r6
    263a:	ea 18       	sub	r14, r10
    263c:	fb 08       	sbc	r15, r11
    263e:	0c 09       	sbc	r16, r12
    2640:	1d 09       	sbc	r17, r13
    2642:	df c0       	rjmp	.+446    	; 0x2802 <__umoddi3+0x528>
    2644:	2b ac       	ldd	r2, Y+59	; 0x3b
    2646:	3c ac       	ldd	r3, Y+60	; 0x3c
    2648:	3c 8e       	std	Y+28, r3	; 0x1c
    264a:	2b 8e       	std	Y+27, r2	; 0x1b
    264c:	0b 8c       	ldd	r0, Y+27	; 0x1b
    264e:	04 c0       	rjmp	.+8      	; 0x2658 <__umoddi3+0x37e>
    2650:	aa 0c       	add	r10, r10
    2652:	bb 1c       	adc	r11, r11
    2654:	cc 1c       	adc	r12, r12
    2656:	dd 1c       	adc	r13, r13
    2658:	0a 94       	dec	r0
    265a:	d2 f7       	brpl	.-12     	; 0x2650 <__umoddi3+0x376>
    265c:	d8 01       	movw	r26, r16
    265e:	c7 01       	movw	r24, r14
    2660:	2b ad       	ldd	r18, Y+59	; 0x3b
    2662:	3c ad       	ldd	r19, Y+60	; 0x3c
    2664:	4d ad       	ldd	r20, Y+61	; 0x3d
    2666:	5e ad       	ldd	r21, Y+62	; 0x3e
    2668:	82 1b       	sub	r24, r18
    266a:	93 0b       	sbc	r25, r19
    266c:	a4 0b       	sbc	r26, r20
    266e:	b5 0b       	sbc	r27, r21
    2670:	84 01       	movw	r16, r8
    2672:	73 01       	movw	r14, r6
    2674:	08 2e       	mov	r0, r24
    2676:	04 c0       	rjmp	.+8      	; 0x2680 <__umoddi3+0x3a6>
    2678:	16 95       	lsr	r17
    267a:	07 95       	ror	r16
    267c:	f7 94       	ror	r15
    267e:	e7 94       	ror	r14
    2680:	0a 94       	dec	r0
    2682:	d2 f7       	brpl	.-12     	; 0x2678 <__umoddi3+0x39e>
    2684:	2f a1       	ldd	r18, Y+39	; 0x27
    2686:	38 a5       	ldd	r19, Y+40	; 0x28
    2688:	49 a5       	ldd	r20, Y+41	; 0x29
    268a:	5a a5       	ldd	r21, Y+42	; 0x2a
    268c:	04 c0       	rjmp	.+8      	; 0x2696 <__umoddi3+0x3bc>
    268e:	56 95       	lsr	r21
    2690:	47 95       	ror	r20
    2692:	37 95       	ror	r19
    2694:	27 95       	ror	r18
    2696:	8a 95       	dec	r24
    2698:	d2 f7       	brpl	.-12     	; 0x268e <__umoddi3+0x3b4>
    269a:	d4 01       	movw	r26, r8
    269c:	c3 01       	movw	r24, r6
    269e:	0b 8c       	ldd	r0, Y+27	; 0x1b
    26a0:	04 c0       	rjmp	.+8      	; 0x26aa <__umoddi3+0x3d0>
    26a2:	88 0f       	add	r24, r24
    26a4:	99 1f       	adc	r25, r25
    26a6:	aa 1f       	adc	r26, r26
    26a8:	bb 1f       	adc	r27, r27
    26aa:	0a 94       	dec	r0
    26ac:	d2 f7       	brpl	.-12     	; 0x26a2 <__umoddi3+0x3c8>
    26ae:	28 2b       	or	r18, r24
    26b0:	39 2b       	or	r19, r25
    26b2:	4a 2b       	or	r20, r26
    26b4:	5b 2b       	or	r21, r27
    26b6:	2b ab       	std	Y+51, r18	; 0x33
    26b8:	3c ab       	std	Y+52, r19	; 0x34
    26ba:	4d ab       	std	Y+53, r20	; 0x35
    26bc:	5e ab       	std	Y+54, r21	; 0x36
    26be:	16 01       	movw	r2, r12
    26c0:	44 24       	eor	r4, r4
    26c2:	55 24       	eor	r5, r5
    26c4:	d6 01       	movw	r26, r12
    26c6:	c5 01       	movw	r24, r10
    26c8:	a0 70       	andi	r26, 0x00	; 0
    26ca:	b0 70       	andi	r27, 0x00	; 0
    26cc:	2b 96       	adiw	r28, 0x0b	; 11
    26ce:	8c af       	std	Y+60, r24	; 0x3c
    26d0:	9d af       	std	Y+61, r25	; 0x3d
    26d2:	ae af       	std	Y+62, r26	; 0x3e
    26d4:	bf af       	std	Y+63, r27	; 0x3f
    26d6:	2b 97       	sbiw	r28, 0x0b	; 11
    26d8:	c8 01       	movw	r24, r16
    26da:	b7 01       	movw	r22, r14
    26dc:	a2 01       	movw	r20, r4
    26de:	91 01       	movw	r18, r2
    26e0:	0e 94 2c 18 	call	0x3058	; 0x3058 <__udivmodsi4>
    26e4:	ca 01       	movw	r24, r20
    26e6:	b9 01       	movw	r22, r18
    26e8:	2b 96       	adiw	r28, 0x0b	; 11
    26ea:	2c ad       	ldd	r18, Y+60	; 0x3c
    26ec:	3d ad       	ldd	r19, Y+61	; 0x3d
    26ee:	4e ad       	ldd	r20, Y+62	; 0x3e
    26f0:	5f ad       	ldd	r21, Y+63	; 0x3f
    26f2:	2b 97       	sbiw	r28, 0x0b	; 11
    26f4:	0e 94 0d 18 	call	0x301a	; 0x301a <__mulsi3>
    26f8:	3b 01       	movw	r6, r22
    26fa:	4c 01       	movw	r8, r24
    26fc:	c8 01       	movw	r24, r16
    26fe:	b7 01       	movw	r22, r14
    2700:	a2 01       	movw	r20, r4
    2702:	91 01       	movw	r18, r2
    2704:	0e 94 2c 18 	call	0x3058	; 0x3058 <__udivmodsi4>
    2708:	cb 01       	movw	r24, r22
    270a:	77 27       	eor	r23, r23
    270c:	66 27       	eor	r22, r22
    270e:	eb a8       	ldd	r14, Y+51	; 0x33
    2710:	fc a8       	ldd	r15, Y+52	; 0x34
    2712:	0d a9       	ldd	r16, Y+53	; 0x35
    2714:	1e a9       	ldd	r17, Y+54	; 0x36
    2716:	98 01       	movw	r18, r16
    2718:	44 27       	eor	r20, r20
    271a:	55 27       	eor	r21, r21
    271c:	79 01       	movw	r14, r18
    271e:	8a 01       	movw	r16, r20
    2720:	e6 2a       	or	r14, r22
    2722:	f7 2a       	or	r15, r23
    2724:	08 2b       	or	r16, r24
    2726:	19 2b       	or	r17, r25
    2728:	e6 14       	cp	r14, r6
    272a:	f7 04       	cpc	r15, r7
    272c:	08 05       	cpc	r16, r8
    272e:	19 05       	cpc	r17, r9
    2730:	90 f4       	brcc	.+36     	; 0x2756 <__umoddi3+0x47c>
    2732:	ea 0c       	add	r14, r10
    2734:	fb 1c       	adc	r15, r11
    2736:	0c 1d       	adc	r16, r12
    2738:	1d 1d       	adc	r17, r13
    273a:	ea 14       	cp	r14, r10
    273c:	fb 04       	cpc	r15, r11
    273e:	0c 05       	cpc	r16, r12
    2740:	1d 05       	cpc	r17, r13
    2742:	48 f0       	brcs	.+18     	; 0x2756 <__umoddi3+0x47c>
    2744:	e6 14       	cp	r14, r6
    2746:	f7 04       	cpc	r15, r7
    2748:	08 05       	cpc	r16, r8
    274a:	19 05       	cpc	r17, r9
    274c:	20 f4       	brcc	.+8      	; 0x2756 <__umoddi3+0x47c>
    274e:	ea 0c       	add	r14, r10
    2750:	fb 1c       	adc	r15, r11
    2752:	0c 1d       	adc	r16, r12
    2754:	1d 1d       	adc	r17, r13
    2756:	e6 18       	sub	r14, r6
    2758:	f7 08       	sbc	r15, r7
    275a:	08 09       	sbc	r16, r8
    275c:	19 09       	sbc	r17, r9
    275e:	c8 01       	movw	r24, r16
    2760:	b7 01       	movw	r22, r14
    2762:	a2 01       	movw	r20, r4
    2764:	91 01       	movw	r18, r2
    2766:	0e 94 2c 18 	call	0x3058	; 0x3058 <__udivmodsi4>
    276a:	ca 01       	movw	r24, r20
    276c:	b9 01       	movw	r22, r18
    276e:	2b 96       	adiw	r28, 0x0b	; 11
    2770:	2c ad       	ldd	r18, Y+60	; 0x3c
    2772:	3d ad       	ldd	r19, Y+61	; 0x3d
    2774:	4e ad       	ldd	r20, Y+62	; 0x3e
    2776:	5f ad       	ldd	r21, Y+63	; 0x3f
    2778:	2b 97       	sbiw	r28, 0x0b	; 11
    277a:	0e 94 0d 18 	call	0x301a	; 0x301a <__mulsi3>
    277e:	3b 01       	movw	r6, r22
    2780:	4c 01       	movw	r8, r24
    2782:	c8 01       	movw	r24, r16
    2784:	b7 01       	movw	r22, r14
    2786:	a2 01       	movw	r20, r4
    2788:	91 01       	movw	r18, r2
    278a:	0e 94 2c 18 	call	0x3058	; 0x3058 <__udivmodsi4>
    278e:	cb 01       	movw	r24, r22
    2790:	77 27       	eor	r23, r23
    2792:	66 27       	eor	r22, r22
    2794:	2b a9       	ldd	r18, Y+51	; 0x33
    2796:	3c a9       	ldd	r19, Y+52	; 0x34
    2798:	4d a9       	ldd	r20, Y+53	; 0x35
    279a:	5e a9       	ldd	r21, Y+54	; 0x36
    279c:	40 70       	andi	r20, 0x00	; 0
    279e:	50 70       	andi	r21, 0x00	; 0
    27a0:	7b 01       	movw	r14, r22
    27a2:	8c 01       	movw	r16, r24
    27a4:	e2 2a       	or	r14, r18
    27a6:	f3 2a       	or	r15, r19
    27a8:	04 2b       	or	r16, r20
    27aa:	15 2b       	or	r17, r21
    27ac:	e6 14       	cp	r14, r6
    27ae:	f7 04       	cpc	r15, r7
    27b0:	08 05       	cpc	r16, r8
    27b2:	19 05       	cpc	r17, r9
    27b4:	90 f4       	brcc	.+36     	; 0x27da <__umoddi3+0x500>
    27b6:	ea 0c       	add	r14, r10
    27b8:	fb 1c       	adc	r15, r11
    27ba:	0c 1d       	adc	r16, r12
    27bc:	1d 1d       	adc	r17, r13
    27be:	ea 14       	cp	r14, r10
    27c0:	fb 04       	cpc	r15, r11
    27c2:	0c 05       	cpc	r16, r12
    27c4:	1d 05       	cpc	r17, r13
    27c6:	48 f0       	brcs	.+18     	; 0x27da <__umoddi3+0x500>
    27c8:	e6 14       	cp	r14, r6
    27ca:	f7 04       	cpc	r15, r7
    27cc:	08 05       	cpc	r16, r8
    27ce:	19 05       	cpc	r17, r9
    27d0:	20 f4       	brcc	.+8      	; 0x27da <__umoddi3+0x500>
    27d2:	ea 0c       	add	r14, r10
    27d4:	fb 1c       	adc	r15, r11
    27d6:	0c 1d       	adc	r16, r12
    27d8:	1d 1d       	adc	r17, r13
    27da:	2f a1       	ldd	r18, Y+39	; 0x27
    27dc:	38 a5       	ldd	r19, Y+40	; 0x28
    27de:	49 a5       	ldd	r20, Y+41	; 0x29
    27e0:	5a a5       	ldd	r21, Y+42	; 0x2a
    27e2:	0b 8c       	ldd	r0, Y+27	; 0x1b
    27e4:	04 c0       	rjmp	.+8      	; 0x27ee <__umoddi3+0x514>
    27e6:	22 0f       	add	r18, r18
    27e8:	33 1f       	adc	r19, r19
    27ea:	44 1f       	adc	r20, r20
    27ec:	55 1f       	adc	r21, r21
    27ee:	0a 94       	dec	r0
    27f0:	d2 f7       	brpl	.-12     	; 0x27e6 <__umoddi3+0x50c>
    27f2:	2f a3       	std	Y+39, r18	; 0x27
    27f4:	38 a7       	std	Y+40, r19	; 0x28
    27f6:	49 a7       	std	Y+41, r20	; 0x29
    27f8:	5a a7       	std	Y+42, r21	; 0x2a
    27fa:	e6 18       	sub	r14, r6
    27fc:	f7 08       	sbc	r15, r7
    27fe:	08 09       	sbc	r16, r8
    2800:	19 09       	sbc	r17, r9
    2802:	16 01       	movw	r2, r12
    2804:	44 24       	eor	r4, r4
    2806:	55 24       	eor	r5, r5
    2808:	d6 01       	movw	r26, r12
    280a:	c5 01       	movw	r24, r10
    280c:	a0 70       	andi	r26, 0x00	; 0
    280e:	b0 70       	andi	r27, 0x00	; 0
    2810:	2f 96       	adiw	r28, 0x0f	; 15
    2812:	8c af       	std	Y+60, r24	; 0x3c
    2814:	9d af       	std	Y+61, r25	; 0x3d
    2816:	ae af       	std	Y+62, r26	; 0x3e
    2818:	bf af       	std	Y+63, r27	; 0x3f
    281a:	2f 97       	sbiw	r28, 0x0f	; 15
    281c:	c8 01       	movw	r24, r16
    281e:	b7 01       	movw	r22, r14
    2820:	a2 01       	movw	r20, r4
    2822:	91 01       	movw	r18, r2
    2824:	0e 94 2c 18 	call	0x3058	; 0x3058 <__udivmodsi4>
    2828:	ca 01       	movw	r24, r20
    282a:	b9 01       	movw	r22, r18
    282c:	2f 96       	adiw	r28, 0x0f	; 15
    282e:	2c ad       	ldd	r18, Y+60	; 0x3c
    2830:	3d ad       	ldd	r19, Y+61	; 0x3d
    2832:	4e ad       	ldd	r20, Y+62	; 0x3e
    2834:	5f ad       	ldd	r21, Y+63	; 0x3f
    2836:	2f 97       	sbiw	r28, 0x0f	; 15
    2838:	0e 94 0d 18 	call	0x301a	; 0x301a <__mulsi3>
    283c:	3b 01       	movw	r6, r22
    283e:	4c 01       	movw	r8, r24
    2840:	c8 01       	movw	r24, r16
    2842:	b7 01       	movw	r22, r14
    2844:	a2 01       	movw	r20, r4
    2846:	91 01       	movw	r18, r2
    2848:	0e 94 2c 18 	call	0x3058	; 0x3058 <__udivmodsi4>
    284c:	cb 01       	movw	r24, r22
    284e:	77 27       	eor	r23, r23
    2850:	66 27       	eor	r22, r22
    2852:	ef a0       	ldd	r14, Y+39	; 0x27
    2854:	f8 a4       	ldd	r15, Y+40	; 0x28
    2856:	09 a5       	ldd	r16, Y+41	; 0x29
    2858:	1a a5       	ldd	r17, Y+42	; 0x2a
    285a:	98 01       	movw	r18, r16
    285c:	44 27       	eor	r20, r20
    285e:	55 27       	eor	r21, r21
    2860:	7b 01       	movw	r14, r22
    2862:	8c 01       	movw	r16, r24
    2864:	e2 2a       	or	r14, r18
    2866:	f3 2a       	or	r15, r19
    2868:	04 2b       	or	r16, r20
    286a:	15 2b       	or	r17, r21
    286c:	e6 14       	cp	r14, r6
    286e:	f7 04       	cpc	r15, r7
    2870:	08 05       	cpc	r16, r8
    2872:	19 05       	cpc	r17, r9
    2874:	90 f4       	brcc	.+36     	; 0x289a <__umoddi3+0x5c0>
    2876:	ea 0c       	add	r14, r10
    2878:	fb 1c       	adc	r15, r11
    287a:	0c 1d       	adc	r16, r12
    287c:	1d 1d       	adc	r17, r13
    287e:	ea 14       	cp	r14, r10
    2880:	fb 04       	cpc	r15, r11
    2882:	0c 05       	cpc	r16, r12
    2884:	1d 05       	cpc	r17, r13
    2886:	48 f0       	brcs	.+18     	; 0x289a <__umoddi3+0x5c0>
    2888:	e6 14       	cp	r14, r6
    288a:	f7 04       	cpc	r15, r7
    288c:	08 05       	cpc	r16, r8
    288e:	19 05       	cpc	r17, r9
    2890:	20 f4       	brcc	.+8      	; 0x289a <__umoddi3+0x5c0>
    2892:	ea 0c       	add	r14, r10
    2894:	fb 1c       	adc	r15, r11
    2896:	0c 1d       	adc	r16, r12
    2898:	1d 1d       	adc	r17, r13
    289a:	e6 18       	sub	r14, r6
    289c:	f7 08       	sbc	r15, r7
    289e:	08 09       	sbc	r16, r8
    28a0:	19 09       	sbc	r17, r9
    28a2:	c8 01       	movw	r24, r16
    28a4:	b7 01       	movw	r22, r14
    28a6:	a2 01       	movw	r20, r4
    28a8:	91 01       	movw	r18, r2
    28aa:	0e 94 2c 18 	call	0x3058	; 0x3058 <__udivmodsi4>
    28ae:	ca 01       	movw	r24, r20
    28b0:	b9 01       	movw	r22, r18
    28b2:	2f 96       	adiw	r28, 0x0f	; 15
    28b4:	2c ad       	ldd	r18, Y+60	; 0x3c
    28b6:	3d ad       	ldd	r19, Y+61	; 0x3d
    28b8:	4e ad       	ldd	r20, Y+62	; 0x3e
    28ba:	5f ad       	ldd	r21, Y+63	; 0x3f
    28bc:	2f 97       	sbiw	r28, 0x0f	; 15
    28be:	0e 94 0d 18 	call	0x301a	; 0x301a <__mulsi3>
    28c2:	3b 01       	movw	r6, r22
    28c4:	4c 01       	movw	r8, r24
    28c6:	c8 01       	movw	r24, r16
    28c8:	b7 01       	movw	r22, r14
    28ca:	a2 01       	movw	r20, r4
    28cc:	91 01       	movw	r18, r2
    28ce:	0e 94 2c 18 	call	0x3058	; 0x3058 <__udivmodsi4>
    28d2:	cb 01       	movw	r24, r22
    28d4:	77 27       	eor	r23, r23
    28d6:	66 27       	eor	r22, r22
    28d8:	2f a1       	ldd	r18, Y+39	; 0x27
    28da:	38 a5       	ldd	r19, Y+40	; 0x28
    28dc:	49 a5       	ldd	r20, Y+41	; 0x29
    28de:	5a a5       	ldd	r21, Y+42	; 0x2a
    28e0:	40 70       	andi	r20, 0x00	; 0
    28e2:	50 70       	andi	r21, 0x00	; 0
    28e4:	26 2b       	or	r18, r22
    28e6:	37 2b       	or	r19, r23
    28e8:	48 2b       	or	r20, r24
    28ea:	59 2b       	or	r21, r25
    28ec:	26 15       	cp	r18, r6
    28ee:	37 05       	cpc	r19, r7
    28f0:	48 05       	cpc	r20, r8
    28f2:	59 05       	cpc	r21, r9
    28f4:	90 f4       	brcc	.+36     	; 0x291a <__umoddi3+0x640>
    28f6:	2a 0d       	add	r18, r10
    28f8:	3b 1d       	adc	r19, r11
    28fa:	4c 1d       	adc	r20, r12
    28fc:	5d 1d       	adc	r21, r13
    28fe:	2a 15       	cp	r18, r10
    2900:	3b 05       	cpc	r19, r11
    2902:	4c 05       	cpc	r20, r12
    2904:	5d 05       	cpc	r21, r13
    2906:	48 f0       	brcs	.+18     	; 0x291a <__umoddi3+0x640>
    2908:	26 15       	cp	r18, r6
    290a:	37 05       	cpc	r19, r7
    290c:	48 05       	cpc	r20, r8
    290e:	59 05       	cpc	r21, r9
    2910:	20 f4       	brcc	.+8      	; 0x291a <__umoddi3+0x640>
    2912:	2a 0d       	add	r18, r10
    2914:	3b 1d       	adc	r19, r11
    2916:	4c 1d       	adc	r20, r12
    2918:	5d 1d       	adc	r21, r13
    291a:	26 19       	sub	r18, r6
    291c:	37 09       	sbc	r19, r7
    291e:	48 09       	sbc	r20, r8
    2920:	59 09       	sbc	r21, r9
    2922:	da 01       	movw	r26, r20
    2924:	c9 01       	movw	r24, r18
    2926:	0b ac       	ldd	r0, Y+59	; 0x3b
    2928:	04 c0       	rjmp	.+8      	; 0x2932 <__umoddi3+0x658>
    292a:	b6 95       	lsr	r27
    292c:	a7 95       	ror	r26
    292e:	97 95       	ror	r25
    2930:	87 95       	ror	r24
    2932:	0a 94       	dec	r0
    2934:	d2 f7       	brpl	.-12     	; 0x292a <__umoddi3+0x650>
    2936:	89 8b       	std	Y+17, r24	; 0x11
    2938:	9a 8b       	std	Y+18, r25	; 0x12
    293a:	ab 8b       	std	Y+19, r26	; 0x13
    293c:	bc 8b       	std	Y+20, r27	; 0x14
    293e:	1d 8a       	std	Y+21, r1	; 0x15
    2940:	1e 8a       	std	Y+22, r1	; 0x16
    2942:	1f 8a       	std	Y+23, r1	; 0x17
    2944:	18 8e       	std	Y+24, r1	; 0x18
    2946:	06 c3       	rjmp	.+1548   	; 0x2f54 <__umoddi3+0xc7a>
    2948:	6e 14       	cp	r6, r14
    294a:	7f 04       	cpc	r7, r15
    294c:	80 06       	cpc	r8, r16
    294e:	91 06       	cpc	r9, r17
    2950:	48 f4       	brcc	.+18     	; 0x2964 <__umoddi3+0x68a>
    2952:	0f a1       	ldd	r16, Y+39	; 0x27
    2954:	18 a5       	ldd	r17, Y+40	; 0x28
    2956:	29 a5       	ldd	r18, Y+41	; 0x29
    2958:	3a a5       	ldd	r19, Y+42	; 0x2a
    295a:	09 8b       	std	Y+17, r16	; 0x11
    295c:	1a 8b       	std	Y+18, r17	; 0x12
    295e:	2b 8b       	std	Y+19, r18	; 0x13
    2960:	3c 8b       	std	Y+20, r19	; 0x14
    2962:	9a c0       	rjmp	.+308    	; 0x2a98 <__umoddi3+0x7be>
    2964:	20 e0       	ldi	r18, 0x00	; 0
    2966:	e2 16       	cp	r14, r18
    2968:	20 e0       	ldi	r18, 0x00	; 0
    296a:	f2 06       	cpc	r15, r18
    296c:	21 e0       	ldi	r18, 0x01	; 1
    296e:	02 07       	cpc	r16, r18
    2970:	20 e0       	ldi	r18, 0x00	; 0
    2972:	12 07       	cpc	r17, r18
    2974:	88 f4       	brcc	.+34     	; 0x2998 <__umoddi3+0x6be>
    2976:	3f ef       	ldi	r19, 0xFF	; 255
    2978:	e3 16       	cp	r14, r19
    297a:	f1 04       	cpc	r15, r1
    297c:	01 05       	cpc	r16, r1
    297e:	11 05       	cpc	r17, r1
    2980:	09 f0       	breq	.+2      	; 0x2984 <__umoddi3+0x6aa>
    2982:	28 f4       	brcc	.+10     	; 0x298e <__umoddi3+0x6b4>
    2984:	20 e0       	ldi	r18, 0x00	; 0
    2986:	30 e0       	ldi	r19, 0x00	; 0
    2988:	40 e0       	ldi	r20, 0x00	; 0
    298a:	50 e0       	ldi	r21, 0x00	; 0
    298c:	17 c0       	rjmp	.+46     	; 0x29bc <__umoddi3+0x6e2>
    298e:	28 e0       	ldi	r18, 0x08	; 8
    2990:	30 e0       	ldi	r19, 0x00	; 0
    2992:	40 e0       	ldi	r20, 0x00	; 0
    2994:	50 e0       	ldi	r21, 0x00	; 0
    2996:	12 c0       	rjmp	.+36     	; 0x29bc <__umoddi3+0x6e2>
    2998:	40 e0       	ldi	r20, 0x00	; 0
    299a:	e4 16       	cp	r14, r20
    299c:	40 e0       	ldi	r20, 0x00	; 0
    299e:	f4 06       	cpc	r15, r20
    29a0:	40 e0       	ldi	r20, 0x00	; 0
    29a2:	04 07       	cpc	r16, r20
    29a4:	41 e0       	ldi	r20, 0x01	; 1
    29a6:	14 07       	cpc	r17, r20
    29a8:	28 f4       	brcc	.+10     	; 0x29b4 <__umoddi3+0x6da>
    29aa:	20 e1       	ldi	r18, 0x10	; 16
    29ac:	30 e0       	ldi	r19, 0x00	; 0
    29ae:	40 e0       	ldi	r20, 0x00	; 0
    29b0:	50 e0       	ldi	r21, 0x00	; 0
    29b2:	04 c0       	rjmp	.+8      	; 0x29bc <__umoddi3+0x6e2>
    29b4:	28 e1       	ldi	r18, 0x18	; 24
    29b6:	30 e0       	ldi	r19, 0x00	; 0
    29b8:	40 e0       	ldi	r20, 0x00	; 0
    29ba:	50 e0       	ldi	r21, 0x00	; 0
    29bc:	60 e2       	ldi	r22, 0x20	; 32
    29be:	26 2e       	mov	r2, r22
    29c0:	31 2c       	mov	r3, r1
    29c2:	41 2c       	mov	r4, r1
    29c4:	51 2c       	mov	r5, r1
    29c6:	d2 01       	movw	r26, r4
    29c8:	c1 01       	movw	r24, r2
    29ca:	82 1b       	sub	r24, r18
    29cc:	93 0b       	sbc	r25, r19
    29ce:	a4 0b       	sbc	r26, r20
    29d0:	b5 0b       	sbc	r27, r21
    29d2:	6f 96       	adiw	r28, 0x1f	; 31
    29d4:	8c af       	std	Y+60, r24	; 0x3c
    29d6:	9d af       	std	Y+61, r25	; 0x3d
    29d8:	ae af       	std	Y+62, r26	; 0x3e
    29da:	bf af       	std	Y+63, r27	; 0x3f
    29dc:	6f 97       	sbiw	r28, 0x1f	; 31
    29de:	d8 01       	movw	r26, r16
    29e0:	c7 01       	movw	r24, r14
    29e2:	04 c0       	rjmp	.+8      	; 0x29ec <__umoddi3+0x712>
    29e4:	b6 95       	lsr	r27
    29e6:	a7 95       	ror	r26
    29e8:	97 95       	ror	r25
    29ea:	87 95       	ror	r24
    29ec:	2a 95       	dec	r18
    29ee:	d2 f7       	brpl	.-12     	; 0x29e4 <__umoddi3+0x70a>
    29f0:	9c 01       	movw	r18, r24
    29f2:	ad 01       	movw	r20, r26
    29f4:	2c 5c       	subi	r18, 0xCC	; 204
    29f6:	3d 4f       	sbci	r19, 0xFD	; 253
    29f8:	d9 01       	movw	r26, r18
    29fa:	2c 91       	ld	r18, X
    29fc:	6f 96       	adiw	r28, 0x1f	; 31
    29fe:	8c ad       	ldd	r24, Y+60	; 0x3c
    2a00:	9d ad       	ldd	r25, Y+61	; 0x3d
    2a02:	ae ad       	ldd	r26, Y+62	; 0x3e
    2a04:	bf ad       	ldd	r27, Y+63	; 0x3f
    2a06:	6f 97       	sbiw	r28, 0x1f	; 31
    2a08:	82 1b       	sub	r24, r18
    2a0a:	91 09       	sbc	r25, r1
    2a0c:	a1 09       	sbc	r26, r1
    2a0e:	b1 09       	sbc	r27, r1
    2a10:	00 97       	sbiw	r24, 0x00	; 0
    2a12:	a1 05       	cpc	r26, r1
    2a14:	b1 05       	cpc	r27, r1
    2a16:	09 f0       	breq	.+2      	; 0x2a1a <__umoddi3+0x740>
    2a18:	44 c0       	rjmp	.+136    	; 0x2aa2 <__umoddi3+0x7c8>
    2a1a:	e6 14       	cp	r14, r6
    2a1c:	f7 04       	cpc	r15, r7
    2a1e:	08 05       	cpc	r16, r8
    2a20:	19 05       	cpc	r17, r9
    2a22:	48 f0       	brcs	.+18     	; 0x2a36 <__umoddi3+0x75c>
    2a24:	2f a0       	ldd	r2, Y+39	; 0x27
    2a26:	38 a4       	ldd	r3, Y+40	; 0x28
    2a28:	49 a4       	ldd	r4, Y+41	; 0x29
    2a2a:	5a a4       	ldd	r5, Y+42	; 0x2a
    2a2c:	2a 14       	cp	r2, r10
    2a2e:	3b 04       	cpc	r3, r11
    2a30:	4c 04       	cpc	r4, r12
    2a32:	5d 04       	cpc	r5, r13
    2a34:	48 f1       	brcs	.+82     	; 0x2a88 <__umoddi3+0x7ae>
    2a36:	2f a1       	ldd	r18, Y+39	; 0x27
    2a38:	38 a5       	ldd	r19, Y+40	; 0x28
    2a3a:	49 a5       	ldd	r20, Y+41	; 0x29
    2a3c:	5a a5       	ldd	r21, Y+42	; 0x2a
    2a3e:	2a 19       	sub	r18, r10
    2a40:	3b 09       	sbc	r19, r11
    2a42:	4c 09       	sbc	r20, r12
    2a44:	5d 09       	sbc	r21, r13
    2a46:	6e 18       	sub	r6, r14
    2a48:	7f 08       	sbc	r7, r15
    2a4a:	80 0a       	sbc	r8, r16
    2a4c:	91 0a       	sbc	r9, r17
    2a4e:	84 01       	movw	r16, r8
    2a50:	73 01       	movw	r14, r6
    2a52:	60 e0       	ldi	r22, 0x00	; 0
    2a54:	70 e0       	ldi	r23, 0x00	; 0
    2a56:	80 e0       	ldi	r24, 0x00	; 0
    2a58:	90 e0       	ldi	r25, 0x00	; 0
    2a5a:	4f a0       	ldd	r4, Y+39	; 0x27
    2a5c:	58 a4       	ldd	r5, Y+40	; 0x28
    2a5e:	69 a4       	ldd	r6, Y+41	; 0x29
    2a60:	7a a4       	ldd	r7, Y+42	; 0x2a
    2a62:	42 16       	cp	r4, r18
    2a64:	53 06       	cpc	r5, r19
    2a66:	64 06       	cpc	r6, r20
    2a68:	75 06       	cpc	r7, r21
    2a6a:	20 f4       	brcc	.+8      	; 0x2a74 <__umoddi3+0x79a>
    2a6c:	61 e0       	ldi	r22, 0x01	; 1
    2a6e:	70 e0       	ldi	r23, 0x00	; 0
    2a70:	80 e0       	ldi	r24, 0x00	; 0
    2a72:	90 e0       	ldi	r25, 0x00	; 0
    2a74:	37 01       	movw	r6, r14
    2a76:	48 01       	movw	r8, r16
    2a78:	66 1a       	sub	r6, r22
    2a7a:	77 0a       	sbc	r7, r23
    2a7c:	88 0a       	sbc	r8, r24
    2a7e:	99 0a       	sbc	r9, r25
    2a80:	2f a3       	std	Y+39, r18	; 0x27
    2a82:	38 a7       	std	Y+40, r19	; 0x28
    2a84:	49 a7       	std	Y+41, r20	; 0x29
    2a86:	5a a7       	std	Y+42, r21	; 0x2a
    2a88:	af a0       	ldd	r10, Y+39	; 0x27
    2a8a:	b8 a4       	ldd	r11, Y+40	; 0x28
    2a8c:	c9 a4       	ldd	r12, Y+41	; 0x29
    2a8e:	da a4       	ldd	r13, Y+42	; 0x2a
    2a90:	a9 8a       	std	Y+17, r10	; 0x11
    2a92:	ba 8a       	std	Y+18, r11	; 0x12
    2a94:	cb 8a       	std	Y+19, r12	; 0x13
    2a96:	dc 8a       	std	Y+20, r13	; 0x14
    2a98:	6d 8a       	std	Y+21, r6	; 0x15
    2a9a:	7e 8a       	std	Y+22, r7	; 0x16
    2a9c:	8f 8a       	std	Y+23, r8	; 0x17
    2a9e:	98 8e       	std	Y+24, r9	; 0x18
    2aa0:	59 c2       	rjmp	.+1202   	; 0x2f54 <__umoddi3+0xc7a>
    2aa2:	9a 8f       	std	Y+26, r25	; 0x1a
    2aa4:	89 8f       	std	Y+25, r24	; 0x19
    2aa6:	28 1a       	sub	r2, r24
    2aa8:	39 0a       	sbc	r3, r25
    2aaa:	4a 0a       	sbc	r4, r26
    2aac:	5b 0a       	sbc	r5, r27
    2aae:	3e 8e       	std	Y+30, r3	; 0x1e
    2ab0:	2d 8e       	std	Y+29, r2	; 0x1d
    2ab2:	a6 01       	movw	r20, r12
    2ab4:	95 01       	movw	r18, r10
    2ab6:	0d 8c       	ldd	r0, Y+29	; 0x1d
    2ab8:	04 c0       	rjmp	.+8      	; 0x2ac2 <__umoddi3+0x7e8>
    2aba:	56 95       	lsr	r21
    2abc:	47 95       	ror	r20
    2abe:	37 95       	ror	r19
    2ac0:	27 95       	ror	r18
    2ac2:	0a 94       	dec	r0
    2ac4:	d2 f7       	brpl	.-12     	; 0x2aba <__umoddi3+0x7e0>
    2ac6:	d8 01       	movw	r26, r16
    2ac8:	c7 01       	movw	r24, r14
    2aca:	09 8c       	ldd	r0, Y+25	; 0x19
    2acc:	04 c0       	rjmp	.+8      	; 0x2ad6 <__umoddi3+0x7fc>
    2ace:	88 0f       	add	r24, r24
    2ad0:	99 1f       	adc	r25, r25
    2ad2:	aa 1f       	adc	r26, r26
    2ad4:	bb 1f       	adc	r27, r27
    2ad6:	0a 94       	dec	r0
    2ad8:	d2 f7       	brpl	.-12     	; 0x2ace <__umoddi3+0x7f4>
    2ada:	28 2b       	or	r18, r24
    2adc:	39 2b       	or	r19, r25
    2ade:	4a 2b       	or	r20, r26
    2ae0:	5b 2b       	or	r21, r27
    2ae2:	2f ab       	std	Y+55, r18	; 0x37
    2ae4:	38 af       	std	Y+56, r19	; 0x38
    2ae6:	49 af       	std	Y+57, r20	; 0x39
    2ae8:	5a af       	std	Y+58, r21	; 0x3a
    2aea:	09 8c       	ldd	r0, Y+25	; 0x19
    2aec:	04 c0       	rjmp	.+8      	; 0x2af6 <__umoddi3+0x81c>
    2aee:	aa 0c       	add	r10, r10
    2af0:	bb 1c       	adc	r11, r11
    2af2:	cc 1c       	adc	r12, r12
    2af4:	dd 1c       	adc	r13, r13
    2af6:	0a 94       	dec	r0
    2af8:	d2 f7       	brpl	.-12     	; 0x2aee <__umoddi3+0x814>
    2afa:	af 8e       	std	Y+31, r10	; 0x1f
    2afc:	b8 a2       	std	Y+32, r11	; 0x20
    2afe:	c9 a2       	std	Y+33, r12	; 0x21
    2b00:	da a2       	std	Y+34, r13	; 0x22
    2b02:	84 01       	movw	r16, r8
    2b04:	73 01       	movw	r14, r6
    2b06:	0d 8c       	ldd	r0, Y+29	; 0x1d
    2b08:	04 c0       	rjmp	.+8      	; 0x2b12 <__umoddi3+0x838>
    2b0a:	16 95       	lsr	r17
    2b0c:	07 95       	ror	r16
    2b0e:	f7 94       	ror	r15
    2b10:	e7 94       	ror	r14
    2b12:	0a 94       	dec	r0
    2b14:	d2 f7       	brpl	.-12     	; 0x2b0a <__umoddi3+0x830>
    2b16:	2f a1       	ldd	r18, Y+39	; 0x27
    2b18:	38 a5       	ldd	r19, Y+40	; 0x28
    2b1a:	49 a5       	ldd	r20, Y+41	; 0x29
    2b1c:	5a a5       	ldd	r21, Y+42	; 0x2a
    2b1e:	0d 8c       	ldd	r0, Y+29	; 0x1d
    2b20:	04 c0       	rjmp	.+8      	; 0x2b2a <__umoddi3+0x850>
    2b22:	56 95       	lsr	r21
    2b24:	47 95       	ror	r20
    2b26:	37 95       	ror	r19
    2b28:	27 95       	ror	r18
    2b2a:	0a 94       	dec	r0
    2b2c:	d2 f7       	brpl	.-12     	; 0x2b22 <__umoddi3+0x848>
    2b2e:	d4 01       	movw	r26, r8
    2b30:	c3 01       	movw	r24, r6
    2b32:	09 8c       	ldd	r0, Y+25	; 0x19
    2b34:	04 c0       	rjmp	.+8      	; 0x2b3e <__umoddi3+0x864>
    2b36:	88 0f       	add	r24, r24
    2b38:	99 1f       	adc	r25, r25
    2b3a:	aa 1f       	adc	r26, r26
    2b3c:	bb 1f       	adc	r27, r27
    2b3e:	0a 94       	dec	r0
    2b40:	d2 f7       	brpl	.-12     	; 0x2b36 <__umoddi3+0x85c>
    2b42:	28 2b       	or	r18, r24
    2b44:	39 2b       	or	r19, r25
    2b46:	4a 2b       	or	r20, r26
    2b48:	5b 2b       	or	r21, r27
    2b4a:	2f a7       	std	Y+47, r18	; 0x2f
    2b4c:	38 ab       	std	Y+48, r19	; 0x30
    2b4e:	49 ab       	std	Y+49, r20	; 0x31
    2b50:	5a ab       	std	Y+50, r21	; 0x32
    2b52:	2f a1       	ldd	r18, Y+39	; 0x27
    2b54:	38 a5       	ldd	r19, Y+40	; 0x28
    2b56:	49 a5       	ldd	r20, Y+41	; 0x29
    2b58:	5a a5       	ldd	r21, Y+42	; 0x2a
    2b5a:	09 8c       	ldd	r0, Y+25	; 0x19
    2b5c:	04 c0       	rjmp	.+8      	; 0x2b66 <__umoddi3+0x88c>
    2b5e:	22 0f       	add	r18, r18
    2b60:	33 1f       	adc	r19, r19
    2b62:	44 1f       	adc	r20, r20
    2b64:	55 1f       	adc	r21, r21
    2b66:	0a 94       	dec	r0
    2b68:	d2 f7       	brpl	.-12     	; 0x2b5e <__umoddi3+0x884>
    2b6a:	2b a3       	std	Y+35, r18	; 0x23
    2b6c:	3c a3       	std	Y+36, r19	; 0x24
    2b6e:	4d a3       	std	Y+37, r20	; 0x25
    2b70:	5e a3       	std	Y+38, r21	; 0x26
    2b72:	8f a9       	ldd	r24, Y+55	; 0x37
    2b74:	98 ad       	ldd	r25, Y+56	; 0x38
    2b76:	a9 ad       	ldd	r26, Y+57	; 0x39
    2b78:	ba ad       	ldd	r27, Y+58	; 0x3a
    2b7a:	cd 01       	movw	r24, r26
    2b7c:	aa 27       	eor	r26, r26
    2b7e:	bb 27       	eor	r27, r27
    2b80:	63 96       	adiw	r28, 0x13	; 19
    2b82:	8c af       	std	Y+60, r24	; 0x3c
    2b84:	9d af       	std	Y+61, r25	; 0x3d
    2b86:	ae af       	std	Y+62, r26	; 0x3e
    2b88:	bf af       	std	Y+63, r27	; 0x3f
    2b8a:	63 97       	sbiw	r28, 0x13	; 19
    2b8c:	6f a8       	ldd	r6, Y+55	; 0x37
    2b8e:	78 ac       	ldd	r7, Y+56	; 0x38
    2b90:	89 ac       	ldd	r8, Y+57	; 0x39
    2b92:	9a ac       	ldd	r9, Y+58	; 0x3a
    2b94:	4f ef       	ldi	r20, 0xFF	; 255
    2b96:	24 2e       	mov	r2, r20
    2b98:	4f ef       	ldi	r20, 0xFF	; 255
    2b9a:	34 2e       	mov	r3, r20
    2b9c:	41 2c       	mov	r4, r1
    2b9e:	51 2c       	mov	r5, r1
    2ba0:	62 20       	and	r6, r2
    2ba2:	73 20       	and	r7, r3
    2ba4:	84 20       	and	r8, r4
    2ba6:	95 20       	and	r9, r5
    2ba8:	c8 01       	movw	r24, r16
    2baa:	b7 01       	movw	r22, r14
    2bac:	63 96       	adiw	r28, 0x13	; 19
    2bae:	2c ad       	ldd	r18, Y+60	; 0x3c
    2bb0:	3d ad       	ldd	r19, Y+61	; 0x3d
    2bb2:	4e ad       	ldd	r20, Y+62	; 0x3e
    2bb4:	5f ad       	ldd	r21, Y+63	; 0x3f
    2bb6:	63 97       	sbiw	r28, 0x13	; 19
    2bb8:	0e 94 2c 18 	call	0x3058	; 0x3058 <__udivmodsi4>
    2bbc:	19 01       	movw	r2, r18
    2bbe:	2a 01       	movw	r4, r20
    2bc0:	ca 01       	movw	r24, r20
    2bc2:	b9 01       	movw	r22, r18
    2bc4:	a4 01       	movw	r20, r8
    2bc6:	93 01       	movw	r18, r6
    2bc8:	0e 94 0d 18 	call	0x301a	; 0x301a <__mulsi3>
    2bcc:	5b 01       	movw	r10, r22
    2bce:	6c 01       	movw	r12, r24
    2bd0:	c8 01       	movw	r24, r16
    2bd2:	b7 01       	movw	r22, r14
    2bd4:	63 96       	adiw	r28, 0x13	; 19
    2bd6:	2c ad       	ldd	r18, Y+60	; 0x3c
    2bd8:	3d ad       	ldd	r19, Y+61	; 0x3d
    2bda:	4e ad       	ldd	r20, Y+62	; 0x3e
    2bdc:	5f ad       	ldd	r21, Y+63	; 0x3f
    2bde:	63 97       	sbiw	r28, 0x13	; 19
    2be0:	0e 94 2c 18 	call	0x3058	; 0x3058 <__udivmodsi4>
    2be4:	cb 01       	movw	r24, r22
    2be6:	77 27       	eor	r23, r23
    2be8:	66 27       	eor	r22, r22
    2bea:	ef a4       	ldd	r14, Y+47	; 0x2f
    2bec:	f8 a8       	ldd	r15, Y+48	; 0x30
    2bee:	09 a9       	ldd	r16, Y+49	; 0x31
    2bf0:	1a a9       	ldd	r17, Y+50	; 0x32
    2bf2:	98 01       	movw	r18, r16
    2bf4:	44 27       	eor	r20, r20
    2bf6:	55 27       	eor	r21, r21
    2bf8:	7b 01       	movw	r14, r22
    2bfa:	8c 01       	movw	r16, r24
    2bfc:	e2 2a       	or	r14, r18
    2bfe:	f3 2a       	or	r15, r19
    2c00:	04 2b       	or	r16, r20
    2c02:	15 2b       	or	r17, r21
    2c04:	ea 14       	cp	r14, r10
    2c06:	fb 04       	cpc	r15, r11
    2c08:	0c 05       	cpc	r16, r12
    2c0a:	1d 05       	cpc	r17, r13
    2c0c:	00 f5       	brcc	.+64     	; 0x2c4e <__umoddi3+0x974>
    2c0e:	08 94       	sec
    2c10:	21 08       	sbc	r2, r1
    2c12:	31 08       	sbc	r3, r1
    2c14:	41 08       	sbc	r4, r1
    2c16:	51 08       	sbc	r5, r1
    2c18:	2f a9       	ldd	r18, Y+55	; 0x37
    2c1a:	38 ad       	ldd	r19, Y+56	; 0x38
    2c1c:	49 ad       	ldd	r20, Y+57	; 0x39
    2c1e:	5a ad       	ldd	r21, Y+58	; 0x3a
    2c20:	e2 0e       	add	r14, r18
    2c22:	f3 1e       	adc	r15, r19
    2c24:	04 1f       	adc	r16, r20
    2c26:	15 1f       	adc	r17, r21
    2c28:	e2 16       	cp	r14, r18
    2c2a:	f3 06       	cpc	r15, r19
    2c2c:	04 07       	cpc	r16, r20
    2c2e:	15 07       	cpc	r17, r21
    2c30:	70 f0       	brcs	.+28     	; 0x2c4e <__umoddi3+0x974>
    2c32:	ea 14       	cp	r14, r10
    2c34:	fb 04       	cpc	r15, r11
    2c36:	0c 05       	cpc	r16, r12
    2c38:	1d 05       	cpc	r17, r13
    2c3a:	48 f4       	brcc	.+18     	; 0x2c4e <__umoddi3+0x974>
    2c3c:	08 94       	sec
    2c3e:	21 08       	sbc	r2, r1
    2c40:	31 08       	sbc	r3, r1
    2c42:	41 08       	sbc	r4, r1
    2c44:	51 08       	sbc	r5, r1
    2c46:	e2 0e       	add	r14, r18
    2c48:	f3 1e       	adc	r15, r19
    2c4a:	04 1f       	adc	r16, r20
    2c4c:	15 1f       	adc	r17, r21
    2c4e:	ea 18       	sub	r14, r10
    2c50:	fb 08       	sbc	r15, r11
    2c52:	0c 09       	sbc	r16, r12
    2c54:	1d 09       	sbc	r17, r13
    2c56:	c8 01       	movw	r24, r16
    2c58:	b7 01       	movw	r22, r14
    2c5a:	63 96       	adiw	r28, 0x13	; 19
    2c5c:	2c ad       	ldd	r18, Y+60	; 0x3c
    2c5e:	3d ad       	ldd	r19, Y+61	; 0x3d
    2c60:	4e ad       	ldd	r20, Y+62	; 0x3e
    2c62:	5f ad       	ldd	r21, Y+63	; 0x3f
    2c64:	63 97       	sbiw	r28, 0x13	; 19
    2c66:	0e 94 2c 18 	call	0x3058	; 0x3058 <__udivmodsi4>
    2c6a:	59 01       	movw	r10, r18
    2c6c:	6a 01       	movw	r12, r20
    2c6e:	ca 01       	movw	r24, r20
    2c70:	b9 01       	movw	r22, r18
    2c72:	a4 01       	movw	r20, r8
    2c74:	93 01       	movw	r18, r6
    2c76:	0e 94 0d 18 	call	0x301a	; 0x301a <__mulsi3>
    2c7a:	3b 01       	movw	r6, r22
    2c7c:	4c 01       	movw	r8, r24
    2c7e:	c8 01       	movw	r24, r16
    2c80:	b7 01       	movw	r22, r14
    2c82:	63 96       	adiw	r28, 0x13	; 19
    2c84:	2c ad       	ldd	r18, Y+60	; 0x3c
    2c86:	3d ad       	ldd	r19, Y+61	; 0x3d
    2c88:	4e ad       	ldd	r20, Y+62	; 0x3e
    2c8a:	5f ad       	ldd	r21, Y+63	; 0x3f
    2c8c:	63 97       	sbiw	r28, 0x13	; 19
    2c8e:	0e 94 2c 18 	call	0x3058	; 0x3058 <__udivmodsi4>
    2c92:	cb 01       	movw	r24, r22
    2c94:	77 27       	eor	r23, r23
    2c96:	66 27       	eor	r22, r22
    2c98:	2f a5       	ldd	r18, Y+47	; 0x2f
    2c9a:	38 a9       	ldd	r19, Y+48	; 0x30
    2c9c:	49 a9       	ldd	r20, Y+49	; 0x31
    2c9e:	5a a9       	ldd	r21, Y+50	; 0x32
    2ca0:	40 70       	andi	r20, 0x00	; 0
    2ca2:	50 70       	andi	r21, 0x00	; 0
    2ca4:	7b 01       	movw	r14, r22
    2ca6:	8c 01       	movw	r16, r24
    2ca8:	e2 2a       	or	r14, r18
    2caa:	f3 2a       	or	r15, r19
    2cac:	04 2b       	or	r16, r20
    2cae:	15 2b       	or	r17, r21
    2cb0:	e6 14       	cp	r14, r6
    2cb2:	f7 04       	cpc	r15, r7
    2cb4:	08 05       	cpc	r16, r8
    2cb6:	19 05       	cpc	r17, r9
    2cb8:	00 f5       	brcc	.+64     	; 0x2cfa <__umoddi3+0xa20>
    2cba:	08 94       	sec
    2cbc:	a1 08       	sbc	r10, r1
    2cbe:	b1 08       	sbc	r11, r1
    2cc0:	c1 08       	sbc	r12, r1
    2cc2:	d1 08       	sbc	r13, r1
    2cc4:	8f a9       	ldd	r24, Y+55	; 0x37
    2cc6:	98 ad       	ldd	r25, Y+56	; 0x38
    2cc8:	a9 ad       	ldd	r26, Y+57	; 0x39
    2cca:	ba ad       	ldd	r27, Y+58	; 0x3a
    2ccc:	e8 0e       	add	r14, r24
    2cce:	f9 1e       	adc	r15, r25
    2cd0:	0a 1f       	adc	r16, r26
    2cd2:	1b 1f       	adc	r17, r27
    2cd4:	e8 16       	cp	r14, r24
    2cd6:	f9 06       	cpc	r15, r25
    2cd8:	0a 07       	cpc	r16, r26
    2cda:	1b 07       	cpc	r17, r27
    2cdc:	70 f0       	brcs	.+28     	; 0x2cfa <__umoddi3+0xa20>
    2cde:	e6 14       	cp	r14, r6
    2ce0:	f7 04       	cpc	r15, r7
    2ce2:	08 05       	cpc	r16, r8
    2ce4:	19 05       	cpc	r17, r9
    2ce6:	48 f4       	brcc	.+18     	; 0x2cfa <__umoddi3+0xa20>
    2ce8:	08 94       	sec
    2cea:	a1 08       	sbc	r10, r1
    2cec:	b1 08       	sbc	r11, r1
    2cee:	c1 08       	sbc	r12, r1
    2cf0:	d1 08       	sbc	r13, r1
    2cf2:	e8 0e       	add	r14, r24
    2cf4:	f9 1e       	adc	r15, r25
    2cf6:	0a 1f       	adc	r16, r26
    2cf8:	1b 1f       	adc	r17, r27
    2cfa:	e6 18       	sub	r14, r6
    2cfc:	f7 08       	sbc	r15, r7
    2cfe:	08 09       	sbc	r16, r8
    2d00:	19 09       	sbc	r17, r9
    2d02:	eb a6       	std	Y+43, r14	; 0x2b
    2d04:	fc a6       	std	Y+44, r15	; 0x2c
    2d06:	0d a7       	std	Y+45, r16	; 0x2d
    2d08:	1e a7       	std	Y+46, r17	; 0x2e
    2d0a:	d1 01       	movw	r26, r2
    2d0c:	99 27       	eor	r25, r25
    2d0e:	88 27       	eor	r24, r24
    2d10:	86 01       	movw	r16, r12
    2d12:	75 01       	movw	r14, r10
    2d14:	e8 2a       	or	r14, r24
    2d16:	f9 2a       	or	r15, r25
    2d18:	0a 2b       	or	r16, r26
    2d1a:	1b 2b       	or	r17, r27
    2d1c:	bf ef       	ldi	r27, 0xFF	; 255
    2d1e:	ab 2e       	mov	r10, r27
    2d20:	bf ef       	ldi	r27, 0xFF	; 255
    2d22:	bb 2e       	mov	r11, r27
    2d24:	c1 2c       	mov	r12, r1
    2d26:	d1 2c       	mov	r13, r1
    2d28:	ae 20       	and	r10, r14
    2d2a:	bf 20       	and	r11, r15
    2d2c:	c0 22       	and	r12, r16
    2d2e:	d1 22       	and	r13, r17
    2d30:	78 01       	movw	r14, r16
    2d32:	00 27       	eor	r16, r16
    2d34:	11 27       	eor	r17, r17
    2d36:	6f 8c       	ldd	r6, Y+31	; 0x1f
    2d38:	78 a0       	ldd	r7, Y+32	; 0x20
    2d3a:	89 a0       	ldd	r8, Y+33	; 0x21
    2d3c:	9a a0       	ldd	r9, Y+34	; 0x22
    2d3e:	ff ef       	ldi	r31, 0xFF	; 255
    2d40:	2f 2e       	mov	r2, r31
    2d42:	ff ef       	ldi	r31, 0xFF	; 255
    2d44:	3f 2e       	mov	r3, r31
    2d46:	41 2c       	mov	r4, r1
    2d48:	51 2c       	mov	r5, r1
    2d4a:	62 20       	and	r6, r2
    2d4c:	73 20       	and	r7, r3
    2d4e:	84 20       	and	r8, r4
    2d50:	95 20       	and	r9, r5
    2d52:	2f 8d       	ldd	r18, Y+31	; 0x1f
    2d54:	38 a1       	ldd	r19, Y+32	; 0x20
    2d56:	49 a1       	ldd	r20, Y+33	; 0x21
    2d58:	5a a1       	ldd	r21, Y+34	; 0x22
    2d5a:	9a 01       	movw	r18, r20
    2d5c:	44 27       	eor	r20, r20
    2d5e:	55 27       	eor	r21, r21
    2d60:	6b 96       	adiw	r28, 0x1b	; 27
    2d62:	2c af       	std	Y+60, r18	; 0x3c
    2d64:	3d af       	std	Y+61, r19	; 0x3d
    2d66:	4e af       	std	Y+62, r20	; 0x3e
    2d68:	5f af       	std	Y+63, r21	; 0x3f
    2d6a:	6b 97       	sbiw	r28, 0x1b	; 27
    2d6c:	c6 01       	movw	r24, r12
    2d6e:	b5 01       	movw	r22, r10
    2d70:	a4 01       	movw	r20, r8
    2d72:	93 01       	movw	r18, r6
    2d74:	0e 94 0d 18 	call	0x301a	; 0x301a <__mulsi3>
    2d78:	67 96       	adiw	r28, 0x17	; 23
    2d7a:	6c af       	std	Y+60, r22	; 0x3c
    2d7c:	7d af       	std	Y+61, r23	; 0x3d
    2d7e:	8e af       	std	Y+62, r24	; 0x3e
    2d80:	9f af       	std	Y+63, r25	; 0x3f
    2d82:	67 97       	sbiw	r28, 0x17	; 23
    2d84:	c6 01       	movw	r24, r12
    2d86:	b5 01       	movw	r22, r10
    2d88:	6b 96       	adiw	r28, 0x1b	; 27
    2d8a:	2c ad       	ldd	r18, Y+60	; 0x3c
    2d8c:	3d ad       	ldd	r19, Y+61	; 0x3d
    2d8e:	4e ad       	ldd	r20, Y+62	; 0x3e
    2d90:	5f ad       	ldd	r21, Y+63	; 0x3f
    2d92:	6b 97       	sbiw	r28, 0x1b	; 27
    2d94:	0e 94 0d 18 	call	0x301a	; 0x301a <__mulsi3>
    2d98:	1b 01       	movw	r2, r22
    2d9a:	2c 01       	movw	r4, r24
    2d9c:	c8 01       	movw	r24, r16
    2d9e:	b7 01       	movw	r22, r14
    2da0:	a4 01       	movw	r20, r8
    2da2:	93 01       	movw	r18, r6
    2da4:	0e 94 0d 18 	call	0x301a	; 0x301a <__mulsi3>
    2da8:	5b 01       	movw	r10, r22
    2daa:	6c 01       	movw	r12, r24
    2dac:	c8 01       	movw	r24, r16
    2dae:	b7 01       	movw	r22, r14
    2db0:	6b 96       	adiw	r28, 0x1b	; 27
    2db2:	2c ad       	ldd	r18, Y+60	; 0x3c
    2db4:	3d ad       	ldd	r19, Y+61	; 0x3d
    2db6:	4e ad       	ldd	r20, Y+62	; 0x3e
    2db8:	5f ad       	ldd	r21, Y+63	; 0x3f
    2dba:	6b 97       	sbiw	r28, 0x1b	; 27
    2dbc:	0e 94 0d 18 	call	0x301a	; 0x301a <__mulsi3>
    2dc0:	7b 01       	movw	r14, r22
    2dc2:	8c 01       	movw	r16, r24
    2dc4:	a6 01       	movw	r20, r12
    2dc6:	95 01       	movw	r18, r10
    2dc8:	22 0d       	add	r18, r2
    2dca:	33 1d       	adc	r19, r3
    2dcc:	44 1d       	adc	r20, r4
    2dce:	55 1d       	adc	r21, r5
    2dd0:	67 96       	adiw	r28, 0x17	; 23
    2dd2:	2c ac       	ldd	r2, Y+60	; 0x3c
    2dd4:	3d ac       	ldd	r3, Y+61	; 0x3d
    2dd6:	4e ac       	ldd	r4, Y+62	; 0x3e
    2dd8:	5f ac       	ldd	r5, Y+63	; 0x3f
    2dda:	67 97       	sbiw	r28, 0x17	; 23
    2ddc:	c2 01       	movw	r24, r4
    2dde:	aa 27       	eor	r26, r26
    2de0:	bb 27       	eor	r27, r27
    2de2:	28 0f       	add	r18, r24
    2de4:	39 1f       	adc	r19, r25
    2de6:	4a 1f       	adc	r20, r26
    2de8:	5b 1f       	adc	r21, r27
    2dea:	2a 15       	cp	r18, r10
    2dec:	3b 05       	cpc	r19, r11
    2dee:	4c 05       	cpc	r20, r12
    2df0:	5d 05       	cpc	r21, r13
    2df2:	48 f4       	brcc	.+18     	; 0x2e06 <__umoddi3+0xb2c>
    2df4:	41 2c       	mov	r4, r1
    2df6:	51 2c       	mov	r5, r1
    2df8:	61 e0       	ldi	r22, 0x01	; 1
    2dfa:	66 2e       	mov	r6, r22
    2dfc:	71 2c       	mov	r7, r1
    2dfe:	e4 0c       	add	r14, r4
    2e00:	f5 1c       	adc	r15, r5
    2e02:	06 1d       	adc	r16, r6
    2e04:	17 1d       	adc	r17, r7
    2e06:	ca 01       	movw	r24, r20
    2e08:	aa 27       	eor	r26, r26
    2e0a:	bb 27       	eor	r27, r27
    2e0c:	57 01       	movw	r10, r14
    2e0e:	68 01       	movw	r12, r16
    2e10:	a8 0e       	add	r10, r24
    2e12:	b9 1e       	adc	r11, r25
    2e14:	ca 1e       	adc	r12, r26
    2e16:	db 1e       	adc	r13, r27
    2e18:	a9 01       	movw	r20, r18
    2e1a:	33 27       	eor	r19, r19
    2e1c:	22 27       	eor	r18, r18
    2e1e:	67 96       	adiw	r28, 0x17	; 23
    2e20:	8c ad       	ldd	r24, Y+60	; 0x3c
    2e22:	9d ad       	ldd	r25, Y+61	; 0x3d
    2e24:	ae ad       	ldd	r26, Y+62	; 0x3e
    2e26:	bf ad       	ldd	r27, Y+63	; 0x3f
    2e28:	67 97       	sbiw	r28, 0x17	; 23
    2e2a:	a0 70       	andi	r26, 0x00	; 0
    2e2c:	b0 70       	andi	r27, 0x00	; 0
    2e2e:	79 01       	movw	r14, r18
    2e30:	8a 01       	movw	r16, r20
    2e32:	e8 0e       	add	r14, r24
    2e34:	f9 1e       	adc	r15, r25
    2e36:	0a 1f       	adc	r16, r26
    2e38:	1b 1f       	adc	r17, r27
    2e3a:	6b a4       	ldd	r6, Y+43	; 0x2b
    2e3c:	7c a4       	ldd	r7, Y+44	; 0x2c
    2e3e:	8d a4       	ldd	r8, Y+45	; 0x2d
    2e40:	9e a4       	ldd	r9, Y+46	; 0x2e
    2e42:	6a 14       	cp	r6, r10
    2e44:	7b 04       	cpc	r7, r11
    2e46:	8c 04       	cpc	r8, r12
    2e48:	9d 04       	cpc	r9, r13
    2e4a:	70 f0       	brcs	.+28     	; 0x2e68 <__umoddi3+0xb8e>
    2e4c:	a6 14       	cp	r10, r6
    2e4e:	b7 04       	cpc	r11, r7
    2e50:	c8 04       	cpc	r12, r8
    2e52:	d9 04       	cpc	r13, r9
    2e54:	91 f5       	brne	.+100    	; 0x2eba <__umoddi3+0xbe0>
    2e56:	2b a1       	ldd	r18, Y+35	; 0x23
    2e58:	3c a1       	ldd	r19, Y+36	; 0x24
    2e5a:	4d a1       	ldd	r20, Y+37	; 0x25
    2e5c:	5e a1       	ldd	r21, Y+38	; 0x26
    2e5e:	2e 15       	cp	r18, r14
    2e60:	3f 05       	cpc	r19, r15
    2e62:	40 07       	cpc	r20, r16
    2e64:	51 07       	cpc	r21, r17
    2e66:	48 f5       	brcc	.+82     	; 0x2eba <__umoddi3+0xbe0>
    2e68:	37 01       	movw	r6, r14
    2e6a:	48 01       	movw	r8, r16
    2e6c:	8f 8d       	ldd	r24, Y+31	; 0x1f
    2e6e:	98 a1       	ldd	r25, Y+32	; 0x20
    2e70:	a9 a1       	ldd	r26, Y+33	; 0x21
    2e72:	ba a1       	ldd	r27, Y+34	; 0x22
    2e74:	68 1a       	sub	r6, r24
    2e76:	79 0a       	sbc	r7, r25
    2e78:	8a 0a       	sbc	r8, r26
    2e7a:	9b 0a       	sbc	r9, r27
    2e7c:	a6 01       	movw	r20, r12
    2e7e:	95 01       	movw	r18, r10
    2e80:	2f a8       	ldd	r2, Y+55	; 0x37
    2e82:	38 ac       	ldd	r3, Y+56	; 0x38
    2e84:	49 ac       	ldd	r4, Y+57	; 0x39
    2e86:	5a ac       	ldd	r5, Y+58	; 0x3a
    2e88:	22 19       	sub	r18, r2
    2e8a:	33 09       	sbc	r19, r3
    2e8c:	44 09       	sbc	r20, r4
    2e8e:	55 09       	sbc	r21, r5
    2e90:	60 e0       	ldi	r22, 0x00	; 0
    2e92:	70 e0       	ldi	r23, 0x00	; 0
    2e94:	80 e0       	ldi	r24, 0x00	; 0
    2e96:	90 e0       	ldi	r25, 0x00	; 0
    2e98:	e6 14       	cp	r14, r6
    2e9a:	f7 04       	cpc	r15, r7
    2e9c:	08 05       	cpc	r16, r8
    2e9e:	19 05       	cpc	r17, r9
    2ea0:	20 f4       	brcc	.+8      	; 0x2eaa <__umoddi3+0xbd0>
    2ea2:	61 e0       	ldi	r22, 0x01	; 1
    2ea4:	70 e0       	ldi	r23, 0x00	; 0
    2ea6:	80 e0       	ldi	r24, 0x00	; 0
    2ea8:	90 e0       	ldi	r25, 0x00	; 0
    2eaa:	59 01       	movw	r10, r18
    2eac:	6a 01       	movw	r12, r20
    2eae:	a6 1a       	sub	r10, r22
    2eb0:	b7 0a       	sbc	r11, r23
    2eb2:	c8 0a       	sbc	r12, r24
    2eb4:	d9 0a       	sbc	r13, r25
    2eb6:	84 01       	movw	r16, r8
    2eb8:	73 01       	movw	r14, r6
    2eba:	4b a0       	ldd	r4, Y+35	; 0x23
    2ebc:	5c a0       	ldd	r5, Y+36	; 0x24
    2ebe:	6d a0       	ldd	r6, Y+37	; 0x25
    2ec0:	7e a0       	ldd	r7, Y+38	; 0x26
    2ec2:	4e 18       	sub	r4, r14
    2ec4:	5f 08       	sbc	r5, r15
    2ec6:	60 0a       	sbc	r6, r16
    2ec8:	71 0a       	sbc	r7, r17
    2eca:	83 01       	movw	r16, r6
    2ecc:	72 01       	movw	r14, r4
    2ece:	2b a5       	ldd	r18, Y+43	; 0x2b
    2ed0:	3c a5       	ldd	r19, Y+44	; 0x2c
    2ed2:	4d a5       	ldd	r20, Y+45	; 0x2d
    2ed4:	5e a5       	ldd	r21, Y+46	; 0x2e
    2ed6:	2a 19       	sub	r18, r10
    2ed8:	3b 09       	sbc	r19, r11
    2eda:	4c 09       	sbc	r20, r12
    2edc:	5d 09       	sbc	r21, r13
    2ede:	60 e0       	ldi	r22, 0x00	; 0
    2ee0:	70 e0       	ldi	r23, 0x00	; 0
    2ee2:	80 e0       	ldi	r24, 0x00	; 0
    2ee4:	90 e0       	ldi	r25, 0x00	; 0
    2ee6:	6b a0       	ldd	r6, Y+35	; 0x23
    2ee8:	7c a0       	ldd	r7, Y+36	; 0x24
    2eea:	8d a0       	ldd	r8, Y+37	; 0x25
    2eec:	9e a0       	ldd	r9, Y+38	; 0x26
    2eee:	6e 14       	cp	r6, r14
    2ef0:	7f 04       	cpc	r7, r15
    2ef2:	80 06       	cpc	r8, r16
    2ef4:	91 06       	cpc	r9, r17
    2ef6:	20 f4       	brcc	.+8      	; 0x2f00 <__umoddi3+0xc26>
    2ef8:	61 e0       	ldi	r22, 0x01	; 1
    2efa:	70 e0       	ldi	r23, 0x00	; 0
    2efc:	80 e0       	ldi	r24, 0x00	; 0
    2efe:	90 e0       	ldi	r25, 0x00	; 0
    2f00:	26 1b       	sub	r18, r22
    2f02:	37 0b       	sbc	r19, r23
    2f04:	48 0b       	sbc	r20, r24
    2f06:	59 0b       	sbc	r21, r25
    2f08:	da 01       	movw	r26, r20
    2f0a:	c9 01       	movw	r24, r18
    2f0c:	0d 8c       	ldd	r0, Y+29	; 0x1d
    2f0e:	04 c0       	rjmp	.+8      	; 0x2f18 <__umoddi3+0xc3e>
    2f10:	22 0f       	add	r18, r18
    2f12:	33 1f       	adc	r19, r19
    2f14:	44 1f       	adc	r20, r20
    2f16:	55 1f       	adc	r21, r21
    2f18:	0a 94       	dec	r0
    2f1a:	d2 f7       	brpl	.-12     	; 0x2f10 <__umoddi3+0xc36>
    2f1c:	09 8c       	ldd	r0, Y+25	; 0x19
    2f1e:	04 c0       	rjmp	.+8      	; 0x2f28 <__umoddi3+0xc4e>
    2f20:	16 95       	lsr	r17
    2f22:	07 95       	ror	r16
    2f24:	f7 94       	ror	r15
    2f26:	e7 94       	ror	r14
    2f28:	0a 94       	dec	r0
    2f2a:	d2 f7       	brpl	.-12     	; 0x2f20 <__umoddi3+0xc46>
    2f2c:	2e 29       	or	r18, r14
    2f2e:	3f 29       	or	r19, r15
    2f30:	40 2b       	or	r20, r16
    2f32:	51 2b       	or	r21, r17
    2f34:	29 8b       	std	Y+17, r18	; 0x11
    2f36:	3a 8b       	std	Y+18, r19	; 0x12
    2f38:	4b 8b       	std	Y+19, r20	; 0x13
    2f3a:	5c 8b       	std	Y+20, r21	; 0x14
    2f3c:	09 8c       	ldd	r0, Y+25	; 0x19
    2f3e:	04 c0       	rjmp	.+8      	; 0x2f48 <__umoddi3+0xc6e>
    2f40:	b6 95       	lsr	r27
    2f42:	a7 95       	ror	r26
    2f44:	97 95       	ror	r25
    2f46:	87 95       	ror	r24
    2f48:	0a 94       	dec	r0
    2f4a:	d2 f7       	brpl	.-12     	; 0x2f40 <__umoddi3+0xc66>
    2f4c:	8d 8b       	std	Y+21, r24	; 0x15
    2f4e:	9e 8b       	std	Y+22, r25	; 0x16
    2f50:	af 8b       	std	Y+23, r26	; 0x17
    2f52:	b8 8f       	std	Y+24, r27	; 0x18
    2f54:	29 88       	ldd	r2, Y+17	; 0x11
    2f56:	3a 88       	ldd	r3, Y+18	; 0x12
    2f58:	4b 88       	ldd	r4, Y+19	; 0x13
    2f5a:	5c 88       	ldd	r5, Y+20	; 0x14
    2f5c:	6d 88       	ldd	r6, Y+21	; 0x15
    2f5e:	7e 88       	ldd	r7, Y+22	; 0x16
    2f60:	8f 88       	ldd	r8, Y+23	; 0x17
    2f62:	98 8c       	ldd	r9, Y+24	; 0x18
    2f64:	22 2d       	mov	r18, r2
    2f66:	33 2d       	mov	r19, r3
    2f68:	44 2d       	mov	r20, r4
    2f6a:	55 2d       	mov	r21, r5
    2f6c:	66 2d       	mov	r22, r6
    2f6e:	77 2d       	mov	r23, r7
    2f70:	88 2d       	mov	r24, r8
    2f72:	99 2d       	mov	r25, r9
    2f74:	e2 e1       	ldi	r30, 0x12	; 18
    2f76:	c2 5a       	subi	r28, 0xA2	; 162
    2f78:	df 4f       	sbci	r29, 0xFF	; 255
    2f7a:	0c 94 6a 18 	jmp	0x30d4	; 0x30d4 <__epilogue_restores__>

00002f7e <__udivmodqi4>:
    2f7e:	99 1b       	sub	r25, r25
    2f80:	79 e0       	ldi	r23, 0x09	; 9
    2f82:	04 c0       	rjmp	.+8      	; 0x2f8c <__udivmodqi4_ep>

00002f84 <__udivmodqi4_loop>:
    2f84:	99 1f       	adc	r25, r25
    2f86:	96 17       	cp	r25, r22
    2f88:	08 f0       	brcs	.+2      	; 0x2f8c <__udivmodqi4_ep>
    2f8a:	96 1b       	sub	r25, r22

00002f8c <__udivmodqi4_ep>:
    2f8c:	88 1f       	adc	r24, r24
    2f8e:	7a 95       	dec	r23
    2f90:	c9 f7       	brne	.-14     	; 0x2f84 <__udivmodqi4_loop>
    2f92:	80 95       	com	r24
    2f94:	08 95       	ret

00002f96 <__udivmodhi4>:
    2f96:	aa 1b       	sub	r26, r26
    2f98:	bb 1b       	sub	r27, r27
    2f9a:	51 e1       	ldi	r21, 0x11	; 17
    2f9c:	07 c0       	rjmp	.+14     	; 0x2fac <__udivmodhi4_ep>

00002f9e <__udivmodhi4_loop>:
    2f9e:	aa 1f       	adc	r26, r26
    2fa0:	bb 1f       	adc	r27, r27
    2fa2:	a6 17       	cp	r26, r22
    2fa4:	b7 07       	cpc	r27, r23
    2fa6:	10 f0       	brcs	.+4      	; 0x2fac <__udivmodhi4_ep>
    2fa8:	a6 1b       	sub	r26, r22
    2faa:	b7 0b       	sbc	r27, r23

00002fac <__udivmodhi4_ep>:
    2fac:	88 1f       	adc	r24, r24
    2fae:	99 1f       	adc	r25, r25
    2fb0:	5a 95       	dec	r21
    2fb2:	a9 f7       	brne	.-22     	; 0x2f9e <__udivmodhi4_loop>
    2fb4:	80 95       	com	r24
    2fb6:	90 95       	com	r25
    2fb8:	bc 01       	movw	r22, r24
    2fba:	cd 01       	movw	r24, r26
    2fbc:	08 95       	ret

00002fbe <__divmodhi4>:
    2fbe:	97 fb       	bst	r25, 7
    2fc0:	09 2e       	mov	r0, r25
    2fc2:	07 26       	eor	r0, r23
    2fc4:	0a d0       	rcall	.+20     	; 0x2fda <__divmodhi4_neg1>
    2fc6:	77 fd       	sbrc	r23, 7
    2fc8:	04 d0       	rcall	.+8      	; 0x2fd2 <__divmodhi4_neg2>
    2fca:	e5 df       	rcall	.-54     	; 0x2f96 <__udivmodhi4>
    2fcc:	06 d0       	rcall	.+12     	; 0x2fda <__divmodhi4_neg1>
    2fce:	00 20       	and	r0, r0
    2fd0:	1a f4       	brpl	.+6      	; 0x2fd8 <__divmodhi4_exit>

00002fd2 <__divmodhi4_neg2>:
    2fd2:	70 95       	com	r23
    2fd4:	61 95       	neg	r22
    2fd6:	7f 4f       	sbci	r23, 0xFF	; 255

00002fd8 <__divmodhi4_exit>:
    2fd8:	08 95       	ret

00002fda <__divmodhi4_neg1>:
    2fda:	f6 f7       	brtc	.-4      	; 0x2fd8 <__divmodhi4_exit>
    2fdc:	90 95       	com	r25
    2fde:	81 95       	neg	r24
    2fe0:	9f 4f       	sbci	r25, 0xFF	; 255
    2fe2:	08 95       	ret

00002fe4 <__divmodsi4>:
    2fe4:	97 fb       	bst	r25, 7
    2fe6:	09 2e       	mov	r0, r25
    2fe8:	05 26       	eor	r0, r21
    2fea:	0e d0       	rcall	.+28     	; 0x3008 <__divmodsi4_neg1>
    2fec:	57 fd       	sbrc	r21, 7
    2fee:	04 d0       	rcall	.+8      	; 0x2ff8 <__divmodsi4_neg2>
    2ff0:	33 d0       	rcall	.+102    	; 0x3058 <__udivmodsi4>
    2ff2:	0a d0       	rcall	.+20     	; 0x3008 <__divmodsi4_neg1>
    2ff4:	00 1c       	adc	r0, r0
    2ff6:	38 f4       	brcc	.+14     	; 0x3006 <__divmodsi4_exit>

00002ff8 <__divmodsi4_neg2>:
    2ff8:	50 95       	com	r21
    2ffa:	40 95       	com	r20
    2ffc:	30 95       	com	r19
    2ffe:	21 95       	neg	r18
    3000:	3f 4f       	sbci	r19, 0xFF	; 255
    3002:	4f 4f       	sbci	r20, 0xFF	; 255
    3004:	5f 4f       	sbci	r21, 0xFF	; 255

00003006 <__divmodsi4_exit>:
    3006:	08 95       	ret

00003008 <__divmodsi4_neg1>:
    3008:	f6 f7       	brtc	.-4      	; 0x3006 <__divmodsi4_exit>
    300a:	90 95       	com	r25
    300c:	80 95       	com	r24
    300e:	70 95       	com	r23
    3010:	61 95       	neg	r22
    3012:	7f 4f       	sbci	r23, 0xFF	; 255
    3014:	8f 4f       	sbci	r24, 0xFF	; 255
    3016:	9f 4f       	sbci	r25, 0xFF	; 255
    3018:	08 95       	ret

0000301a <__mulsi3>:
    301a:	62 9f       	mul	r22, r18
    301c:	d0 01       	movw	r26, r0
    301e:	73 9f       	mul	r23, r19
    3020:	f0 01       	movw	r30, r0
    3022:	82 9f       	mul	r24, r18
    3024:	e0 0d       	add	r30, r0
    3026:	f1 1d       	adc	r31, r1
    3028:	64 9f       	mul	r22, r20
    302a:	e0 0d       	add	r30, r0
    302c:	f1 1d       	adc	r31, r1
    302e:	92 9f       	mul	r25, r18
    3030:	f0 0d       	add	r31, r0
    3032:	83 9f       	mul	r24, r19
    3034:	f0 0d       	add	r31, r0
    3036:	74 9f       	mul	r23, r20
    3038:	f0 0d       	add	r31, r0
    303a:	65 9f       	mul	r22, r21
    303c:	f0 0d       	add	r31, r0
    303e:	99 27       	eor	r25, r25
    3040:	72 9f       	mul	r23, r18
    3042:	b0 0d       	add	r27, r0
    3044:	e1 1d       	adc	r30, r1
    3046:	f9 1f       	adc	r31, r25
    3048:	63 9f       	mul	r22, r19
    304a:	b0 0d       	add	r27, r0
    304c:	e1 1d       	adc	r30, r1
    304e:	f9 1f       	adc	r31, r25
    3050:	bd 01       	movw	r22, r26
    3052:	cf 01       	movw	r24, r30
    3054:	11 24       	eor	r1, r1
    3056:	08 95       	ret

00003058 <__udivmodsi4>:
    3058:	a1 e2       	ldi	r26, 0x21	; 33
    305a:	1a 2e       	mov	r1, r26
    305c:	aa 1b       	sub	r26, r26
    305e:	bb 1b       	sub	r27, r27
    3060:	fd 01       	movw	r30, r26
    3062:	0d c0       	rjmp	.+26     	; 0x307e <__udivmodsi4_ep>

00003064 <__udivmodsi4_loop>:
    3064:	aa 1f       	adc	r26, r26
    3066:	bb 1f       	adc	r27, r27
    3068:	ee 1f       	adc	r30, r30
    306a:	ff 1f       	adc	r31, r31
    306c:	a2 17       	cp	r26, r18
    306e:	b3 07       	cpc	r27, r19
    3070:	e4 07       	cpc	r30, r20
    3072:	f5 07       	cpc	r31, r21
    3074:	20 f0       	brcs	.+8      	; 0x307e <__udivmodsi4_ep>
    3076:	a2 1b       	sub	r26, r18
    3078:	b3 0b       	sbc	r27, r19
    307a:	e4 0b       	sbc	r30, r20
    307c:	f5 0b       	sbc	r31, r21

0000307e <__udivmodsi4_ep>:
    307e:	66 1f       	adc	r22, r22
    3080:	77 1f       	adc	r23, r23
    3082:	88 1f       	adc	r24, r24
    3084:	99 1f       	adc	r25, r25
    3086:	1a 94       	dec	r1
    3088:	69 f7       	brne	.-38     	; 0x3064 <__udivmodsi4_loop>
    308a:	60 95       	com	r22
    308c:	70 95       	com	r23
    308e:	80 95       	com	r24
    3090:	90 95       	com	r25
    3092:	9b 01       	movw	r18, r22
    3094:	ac 01       	movw	r20, r24
    3096:	bd 01       	movw	r22, r26
    3098:	cf 01       	movw	r24, r30
    309a:	08 95       	ret

0000309c <__prologue_saves__>:
    309c:	2f 92       	push	r2
    309e:	3f 92       	push	r3
    30a0:	4f 92       	push	r4
    30a2:	5f 92       	push	r5
    30a4:	6f 92       	push	r6
    30a6:	7f 92       	push	r7
    30a8:	8f 92       	push	r8
    30aa:	9f 92       	push	r9
    30ac:	af 92       	push	r10
    30ae:	bf 92       	push	r11
    30b0:	cf 92       	push	r12
    30b2:	df 92       	push	r13
    30b4:	ef 92       	push	r14
    30b6:	ff 92       	push	r15
    30b8:	0f 93       	push	r16
    30ba:	1f 93       	push	r17
    30bc:	cf 93       	push	r28
    30be:	df 93       	push	r29
    30c0:	cd b7       	in	r28, 0x3d	; 61
    30c2:	de b7       	in	r29, 0x3e	; 62
    30c4:	ca 1b       	sub	r28, r26
    30c6:	db 0b       	sbc	r29, r27
    30c8:	0f b6       	in	r0, 0x3f	; 63
    30ca:	f8 94       	cli
    30cc:	de bf       	out	0x3e, r29	; 62
    30ce:	0f be       	out	0x3f, r0	; 63
    30d0:	cd bf       	out	0x3d, r28	; 61
    30d2:	19 94       	eijmp

000030d4 <__epilogue_restores__>:
    30d4:	2a 88       	ldd	r2, Y+18	; 0x12
    30d6:	39 88       	ldd	r3, Y+17	; 0x11
    30d8:	48 88       	ldd	r4, Y+16	; 0x10
    30da:	5f 84       	ldd	r5, Y+15	; 0x0f
    30dc:	6e 84       	ldd	r6, Y+14	; 0x0e
    30de:	7d 84       	ldd	r7, Y+13	; 0x0d
    30e0:	8c 84       	ldd	r8, Y+12	; 0x0c
    30e2:	9b 84       	ldd	r9, Y+11	; 0x0b
    30e4:	aa 84       	ldd	r10, Y+10	; 0x0a
    30e6:	b9 84       	ldd	r11, Y+9	; 0x09
    30e8:	c8 84       	ldd	r12, Y+8	; 0x08
    30ea:	df 80       	ldd	r13, Y+7	; 0x07
    30ec:	ee 80       	ldd	r14, Y+6	; 0x06
    30ee:	fd 80       	ldd	r15, Y+5	; 0x05
    30f0:	0c 81       	ldd	r16, Y+4	; 0x04
    30f2:	1b 81       	ldd	r17, Y+3	; 0x03
    30f4:	aa 81       	ldd	r26, Y+2	; 0x02
    30f6:	b9 81       	ldd	r27, Y+1	; 0x01
    30f8:	ce 0f       	add	r28, r30
    30fa:	d1 1d       	adc	r29, r1
    30fc:	0f b6       	in	r0, 0x3f	; 63
    30fe:	f8 94       	cli
    3100:	de bf       	out	0x3e, r29	; 62
    3102:	0f be       	out	0x3f, r0	; 63
    3104:	cd bf       	out	0x3d, r28	; 61
    3106:	ed 01       	movw	r28, r26
    3108:	08 95       	ret

0000310a <_exit>:
    310a:	ff cf       	rjmp	.-2      	; 0x310a <_exit>
